
a.exe:     file format pei-i386


Disassembly of section .text:

00401000 <_WinMainCRTStartup>:
  401000:	55                   	push   ebp
  401001:	89 e5                	mov    ebp,esp
  401003:	83 ec 18             	sub    esp,0x18
  401006:	83 e4 f0             	and    esp,0xfffffff0
  401009:	c7 04 24 90 10 40 00 	mov    DWORD PTR [esp],0x401090
  401010:	e8 0b 02 00 00       	call   401220 <_cygwin_crt0>
  401015:	c7 44 24 08 00 00 00 	mov    DWORD PTR [esp+0x8],0x0
  40101c:	00 
  40101d:	c7 44 24 04 00 00 00 	mov    DWORD PTR [esp+0x4],0x0
  401024:	00 
  401025:	c7 04 24 00 00 00 00 	mov    DWORD PTR [esp],0x0
  40102c:	e8 1f 02 00 00       	call   401250 <_cygwin_premain0>
  401031:	c7 44 24 08 00 00 00 	mov    DWORD PTR [esp+0x8],0x0
  401038:	00 
  401039:	c7 44 24 04 00 00 00 	mov    DWORD PTR [esp+0x4],0x0
  401040:	00 
  401041:	c7 04 24 00 00 00 00 	mov    DWORD PTR [esp],0x0
  401048:	e8 13 02 00 00       	call   401260 <_cygwin_premain1>
  40104d:	c7 44 24 08 00 00 00 	mov    DWORD PTR [esp+0x8],0x0
  401054:	00 
  401055:	c7 44 24 04 00 00 00 	mov    DWORD PTR [esp+0x4],0x0
  40105c:	00 
  40105d:	c7 04 24 00 00 00 00 	mov    DWORD PTR [esp],0x0
  401064:	e8 07 02 00 00       	call   401270 <_cygwin_premain2>
  401069:	c7 44 24 08 00 00 00 	mov    DWORD PTR [esp+0x8],0x0
  401070:	00 
  401071:	c7 44 24 04 00 00 00 	mov    DWORD PTR [esp+0x4],0x0
  401078:	00 
  401079:	c7 04 24 00 00 00 00 	mov    DWORD PTR [esp],0x0
  401080:	e8 fb 01 00 00       	call   401280 <_cygwin_premain3>
  401085:	c9                   	leave  
  401086:	c3                   	ret    
  401087:	90                   	nop
  401088:	90                   	nop
  401089:	90                   	nop
  40108a:	90                   	nop
  40108b:	90                   	nop
  40108c:	90                   	nop
  40108d:	90                   	nop
  40108e:	90                   	nop
  40108f:	90                   	nop

00401090 <_main>:
  401090:	55                   	push   ebp
  401091:	89 e5                	mov    ebp,esp
  401093:	83 ec 28             	sub    esp,0x28
  401096:	83 e4 f0             	and    esp,0xfffffff0
  401099:	b8 00 00 00 00       	mov    eax,0x0
  40109e:	83 c0 0f             	add    eax,0xf
  4010a1:	83 c0 0f             	add    eax,0xf
  4010a4:	c1 e8 04             	shr    eax,0x4
  4010a7:	c1 e0 04             	shl    eax,0x4
  4010aa:	89 45 e8             	mov    DWORD PTR [ebp-0x18],eax
  4010ad:	8b 45 e8             	mov    eax,DWORD PTR [ebp-0x18]
  4010b0:	e8 3b 01 00 00       	call   4011f0 <___chkstk>
  4010b5:	e8 d6 01 00 00       	call   401290 <___main>
  4010ba:	c7 45 fc 00 00 00 00 	mov    DWORD PTR [ebp-0x4],0x0
  4010c1:	c7 45 f8 00 00 00 00 	mov    DWORD PTR [ebp-0x8],0x0
  4010c8:	8b 45 0c             	mov    eax,DWORD PTR [ebp+0xc]
  4010cb:	83 c0 08             	add    eax,0x8
  4010ce:	8b 00                	mov    eax,DWORD PTR [eax]
  4010d0:	89 04 24             	mov    DWORD PTR [esp],eax
  4010d3:	e8 d0 01 00 00       	call   4012a8 <_atoi>
  4010d8:	89 45 f4             	mov    DWORD PTR [ebp-0xc],eax
  4010db:	83 7d 08 03          	cmp    DWORD PTR [ebp+0x8],0x3
  4010df:	74 18                	je     4010f9 <_main+0x69>
  4010e1:	c7 04 24 20 20 40 00 	mov    DWORD PTR [esp],0x402020
  4010e8:	e8 b3 01 00 00       	call   4012a0 <_printf>
  4010ed:	c7 04 24 49 20 40 00 	mov    DWORD PTR [esp],0x402049
  4010f4:	e8 a7 01 00 00       	call   4012a0 <_printf>
  4010f9:	8b 45 0c             	mov    eax,DWORD PTR [ebp+0xc]
  4010fc:	83 c0 04             	add    eax,0x4
  4010ff:	8b 00                	mov    eax,DWORD PTR [eax]
  401101:	89 04 24             	mov    DWORD PTR [esp],eax
  401104:	e8 9f 01 00 00       	call   4012a8 <_atoi>
  401109:	83 f8 09             	cmp    eax,0x9
  40110c:	7f 16                	jg     401124 <_main+0x94>
  40110e:	8b 45 0c             	mov    eax,DWORD PTR [ebp+0xc]
  401111:	83 c0 04             	add    eax,0x4
  401114:	8b 00                	mov    eax,DWORD PTR [eax]
  401116:	89 04 24             	mov    DWORD PTR [esp],eax
  401119:	e8 8a 01 00 00       	call   4012a8 <_atoi>
  40111e:	85 c0                	test   eax,eax
  401120:	7e 02                	jle    401124 <_main+0x94>
  401122:	eb 0c                	jmp    401130 <_main+0xa0>
  401124:	c7 04 24 64 20 40 00 	mov    DWORD PTR [esp],0x402064
  40112b:	e8 70 01 00 00       	call   4012a0 <_printf>
  401130:	81 7d f4 ff c9 9a 3b 	cmp    DWORD PTR [ebp-0xc],0x3b9ac9ff
  401137:	7f 08                	jg     401141 <_main+0xb1>
  401139:	83 7d f4 01          	cmp    DWORD PTR [ebp-0xc],0x1
  40113d:	7e 02                	jle    401141 <_main+0xb1>
  40113f:	eb 0c                	jmp    40114d <_main+0xbd>
  401141:	c7 04 24 64 20 40 00 	mov    DWORD PTR [esp],0x402064
  401148:	e8 53 01 00 00       	call   4012a0 <_printf>
  40114d:	8b 45 0c             	mov    eax,DWORD PTR [ebp+0xc]
  401150:	83 c0 04             	add    eax,0x4
  401153:	8b 00                	mov    eax,DWORD PTR [eax]
  401155:	89 04 24             	mov    DWORD PTR [esp],eax
  401158:	e8 4b 01 00 00       	call   4012a8 <_atoi>
  40115d:	50                   	push   eax
  40115e:	db 04 24             	fild   DWORD PTR [esp]
  401161:	8d 64 24 04          	lea    esp,[esp+0x4]
  401165:	dd 5c 24 08          	fstp   QWORD PTR [esp+0x8]
  401169:	dd 05 b8 20 40 00    	fld    QWORD PTR ds:0x4020b8
  40116f:	dd 1c 24             	fstp   QWORD PTR [esp]
  401172:	e8 21 01 00 00       	call   401298 <_pow>
  401177:	d9 e8                	fld1   
  401179:	de e9                	fsubrp st(1),st
  40117b:	d9 7d f2             	fnstcw WORD PTR [ebp-0xe]
  40117e:	0f b7 45 f2          	movzx  eax,WORD PTR [ebp-0xe]
  401182:	66 0d 00 0c          	or     ax,0xc00
  401186:	66 89 45 f0          	mov    WORD PTR [ebp-0x10],ax
  40118a:	d9 6d f0             	fldcw  WORD PTR [ebp-0x10]
  40118d:	db 5d f8             	fistp  DWORD PTR [ebp-0x8]
  401190:	d9 6d f2             	fldcw  WORD PTR [ebp-0xe]
  401193:	8b 45 f8             	mov    eax,DWORD PTR [ebp-0x8]
  401196:	89 45 fc             	mov    DWORD PTR [ebp-0x4],eax
  401199:	83 7d fc 00          	cmp    DWORD PTR [ebp-0x4],0x0
  40119d:	7e 38                	jle    4011d7 <_main+0x147>
  40119f:	8b 55 fc             	mov    edx,DWORD PTR [ebp-0x4]
  4011a2:	8d 4d f4             	lea    ecx,[ebp-0xc]
  4011a5:	89 4d e8             	mov    DWORD PTR [ebp-0x18],ecx
  4011a8:	89 d0                	mov    eax,edx
  4011aa:	8b 4d e8             	mov    ecx,DWORD PTR [ebp-0x18]
  4011ad:	99                   	cdq    
  4011ae:	f7 39                	idiv   DWORD PTR [ecx]
  4011b0:	85 d2                	test   edx,edx
  4011b2:	75 1c                	jne    4011d0 <_main+0x140>
  4011b4:	8b 45 fc             	mov    eax,DWORD PTR [ebp-0x4]
  4011b7:	89 44 24 04          	mov    DWORD PTR [esp+0x4],eax
  4011bb:	c7 04 24 9b 20 40 00 	mov    DWORD PTR [esp],0x40209b
  4011c2:	e8 d9 00 00 00       	call   4012a0 <_printf>
  4011c7:	c7 45 ec 00 00 00 00 	mov    DWORD PTR [ebp-0x14],0x0
  4011ce:	eb 1a                	jmp    4011ea <_main+0x15a>
  4011d0:	8d 45 fc             	lea    eax,[ebp-0x4]
  4011d3:	ff 08                	dec    DWORD PTR [eax]
  4011d5:	eb c2                	jmp    401199 <_main+0x109>
  4011d7:	c7 04 24 9f 20 40 00 	mov    DWORD PTR [esp],0x40209f
  4011de:	e8 bd 00 00 00       	call   4012a0 <_printf>
  4011e3:	c7 45 ec 00 00 00 00 	mov    DWORD PTR [ebp-0x14],0x0
  4011ea:	8b 45 ec             	mov    eax,DWORD PTR [ebp-0x14]
  4011ed:	c9                   	leave  
  4011ee:	c3                   	ret    
  4011ef:	90                   	nop

004011f0 <___chkstk>:
  4011f0:	51                   	push   ecx
  4011f1:	89 e1                	mov    ecx,esp
  4011f3:	83 c1 08             	add    ecx,0x8

004011f6 <probe>:
  4011f6:	3d 00 10 00 00       	cmp    eax,0x1000
  4011fb:	72 10                	jb     40120d <done>
  4011fd:	81 e9 00 10 00 00    	sub    ecx,0x1000
  401203:	83 09 00             	or     DWORD PTR [ecx],0x0
  401206:	2d 00 10 00 00       	sub    eax,0x1000
  40120b:	eb e9                	jmp    4011f6 <probe>

0040120d <done>:
  40120d:	29 c1                	sub    ecx,eax
  40120f:	83 09 00             	or     DWORD PTR [ecx],0x0
  401212:	89 e0                	mov    eax,esp
  401214:	89 cc                	mov    esp,ecx
  401216:	8b 08                	mov    ecx,DWORD PTR [eax]
  401218:	8b 40 04             	mov    eax,DWORD PTR [eax+0x4]
  40121b:	ff e0                	jmp    eax
  40121d:	90                   	nop
  40121e:	90                   	nop
  40121f:	90                   	nop

00401220 <_cygwin_crt0>:
  401220:	55                   	push   ebp
  401221:	89 e5                	mov    ebp,esp
  401223:	83 ec 18             	sub    esp,0x18
  401226:	8b 45 08             	mov    eax,DWORD PTR [ebp+0x8]
  401229:	c7 44 24 04 00 00 00 	mov    DWORD PTR [esp+0x4],0x0
  401230:	00 
  401231:	89 04 24             	mov    DWORD PTR [esp],eax
  401234:	e8 77 00 00 00       	call   4012b0 <__cygwin_crt0_common@8>
  401239:	83 ec 08             	sub    esp,0x8
  40123c:	ff 15 80 40 40 00    	call   DWORD PTR ds:0x404080
  401242:	90                   	nop
  401243:	90                   	nop
  401244:	90                   	nop
  401245:	90                   	nop
  401246:	90                   	nop
  401247:	90                   	nop
  401248:	90                   	nop
  401249:	90                   	nop
  40124a:	90                   	nop
  40124b:	90                   	nop
  40124c:	90                   	nop
  40124d:	90                   	nop
  40124e:	90                   	nop
  40124f:	90                   	nop

00401250 <_cygwin_premain0>:
  401250:	55                   	push   ebp
  401251:	89 e5                	mov    ebp,esp
  401253:	5d                   	pop    ebp
  401254:	c3                   	ret    
  401255:	90                   	nop
  401256:	90                   	nop
  401257:	90                   	nop
  401258:	90                   	nop
  401259:	90                   	nop
  40125a:	90                   	nop
  40125b:	90                   	nop
  40125c:	90                   	nop
  40125d:	90                   	nop
  40125e:	90                   	nop
  40125f:	90                   	nop

00401260 <_cygwin_premain1>:
  401260:	55                   	push   ebp
  401261:	89 e5                	mov    ebp,esp
  401263:	5d                   	pop    ebp
  401264:	c3                   	ret    
  401265:	90                   	nop
  401266:	90                   	nop
  401267:	90                   	nop
  401268:	90                   	nop
  401269:	90                   	nop
  40126a:	90                   	nop
  40126b:	90                   	nop
  40126c:	90                   	nop
  40126d:	90                   	nop
  40126e:	90                   	nop
  40126f:	90                   	nop

00401270 <_cygwin_premain2>:
  401270:	55                   	push   ebp
  401271:	89 e5                	mov    ebp,esp
  401273:	5d                   	pop    ebp
  401274:	c3                   	ret    
  401275:	90                   	nop
  401276:	90                   	nop
  401277:	90                   	nop
  401278:	90                   	nop
  401279:	90                   	nop
  40127a:	90                   	nop
  40127b:	90                   	nop
  40127c:	90                   	nop
  40127d:	90                   	nop
  40127e:	90                   	nop
  40127f:	90                   	nop

00401280 <_cygwin_premain3>:
  401280:	55                   	push   ebp
  401281:	89 e5                	mov    ebp,esp
  401283:	5d                   	pop    ebp
  401284:	c3                   	ret    
  401285:	90                   	nop
  401286:	90                   	nop
  401287:	90                   	nop
  401288:	90                   	nop
  401289:	90                   	nop
  40128a:	90                   	nop
  40128b:	90                   	nop
  40128c:	90                   	nop
  40128d:	90                   	nop
  40128e:	90                   	nop
  40128f:	90                   	nop

00401290 <___main>:
  401290:	ff 25 7c 40 40 00    	jmp    DWORD PTR ds:0x40407c
  401296:	90                   	nop
  401297:	90                   	nop

00401298 <_pow>:
  401298:	ff 25 a4 40 40 00    	jmp    DWORD PTR ds:0x4040a4
  40129e:	90                   	nop
  40129f:	90                   	nop

004012a0 <_printf>:
  4012a0:	ff 25 a8 40 40 00    	jmp    DWORD PTR ds:0x4040a8
  4012a6:	90                   	nop
  4012a7:	90                   	nop

004012a8 <_atoi>:
  4012a8:	ff 25 88 40 40 00    	jmp    DWORD PTR ds:0x404088
  4012ae:	90                   	nop
  4012af:	90                   	nop

004012b0 <__cygwin_crt0_common@8>:
  4012b0:	55                   	push   ebp
  4012b1:	89 e5                	mov    ebp,esp
  4012b3:	56                   	push   esi
  4012b4:	53                   	push   ebx
  4012b5:	83 ec 10             	sub    esp,0x10
  4012b8:	8b 5d 0c             	mov    ebx,DWORD PTR [ebp+0xc]
  4012bb:	8b 75 08             	mov    esi,DWORD PTR [ebp+0x8]
  4012be:	c7 04 24 08 00 00 00 	mov    DWORD PTR [esp],0x8
  4012c5:	e8 36 04 00 00       	call   401700 <_cygwin_internal>
  4012ca:	85 db                	test   ebx,ebx
  4012cc:	0f 84 c1 01 00 00    	je     401493 <__cygwin_crt0_common@8+0x1e3>
  4012d2:	8b 15 84 40 40 00    	mov    edx,DWORD PTR ds:0x404084
  4012d8:	85 c0                	test   eax,eax
  4012da:	c7 43 04 a8 00 00 00 	mov    DWORD PTR [ebx+0x4],0xa8
  4012e1:	c7 43 08 ef 03 00 00 	mov    DWORD PTR [ebx+0x8],0x3ef
  4012e8:	c7 43 0c 11 00 00 00 	mov    DWORD PTR [ebx+0xc],0x11
  4012ef:	89 53 10             	mov    DWORD PTR [ebx+0x10],edx
  4012f2:	8b 55 00             	mov    edx,DWORD PTR [ebp+0x0]
  4012f5:	c7 83 80 00 00 00 00 	mov    DWORD PTR [ebx+0x80],0x0
  4012fc:	00 00 00 
  4012ff:	c7 83 84 00 00 00 06 	mov    DWORD PTR [ebx+0x84],0x106
  401306:	01 00 00 
  401309:	c7 43 2c 90 17 40 00 	mov    DWORD PTR [ebx+0x2c],0x401790
  401310:	c7 43 30 98 17 40 00 	mov    DWORD PTR [ebx+0x30],0x401798
  401317:	c7 43 14 00 30 40 00 	mov    DWORD PTR [ebx+0x14],0x403000
  40131e:	89 73 28             	mov    DWORD PTR [ebx+0x28],esi
  401321:	c7 43 48 50 12 40 00 	mov    DWORD PTR [ebx+0x48],0x401250
  401328:	c7 43 4c 60 12 40 00 	mov    DWORD PTR [ebx+0x4c],0x401260
  40132f:	c7 43 50 70 12 40 00 	mov    DWORD PTR [ebx+0x50],0x401270
  401336:	c7 43 54 80 12 40 00 	mov    DWORD PTR [ebx+0x54],0x401280
  40133d:	c7 43 24 04 30 40 00 	mov    DWORD PTR [ebx+0x24],0x403004
  401344:	89 13                	mov    DWORD PTR [ebx],edx
  401346:	c7 43 18 e0 16 40 00 	mov    DWORD PTR [ebx+0x18],0x4016e0
  40134d:	c7 43 1c e8 16 40 00 	mov    DWORD PTR [ebx+0x1c],0x4016e8
  401354:	c7 43 20 f0 16 40 00 	mov    DWORD PTR [ebx+0x20],0x4016f0
  40135b:	c7 43 44 f8 16 40 00 	mov    DWORD PTR [ebx+0x44],0x4016f8
  401362:	0f 84 c5 00 00 00    	je     40142d <__cygwin_crt0_common@8+0x17d>
  401368:	8b 50 78             	mov    edx,DWORD PTR [eax+0x78]
  40136b:	85 d2                	test   edx,edx
  40136d:	0f 84 ba 00 00 00    	je     40142d <__cygwin_crt0_common@8+0x17d>
  401373:	8b 35 08 30 40 00    	mov    esi,DWORD PTR ds:0x403008
  401379:	85 f6                	test   esi,esi
  40137b:	0f 85 ac 00 00 00    	jne    40142d <__cygwin_crt0_common@8+0x17d>
  401381:	8b 0d 00 20 40 00    	mov    ecx,DWORD PTR ds:0x402000
  401387:	85 c9                	test   ecx,ecx
  401389:	0f 84 21 02 00 00    	je     4015b0 <__cygwin_crt0_common@8+0x300>
  40138f:	a1 04 20 40 00       	mov    eax,ds:0x402004
  401394:	85 c0                	test   eax,eax
  401396:	0f 84 04 02 00 00    	je     4015a0 <__cygwin_crt0_common@8+0x2f0>
  40139c:	8b 35 08 20 40 00    	mov    esi,DWORD PTR ds:0x402008
  4013a2:	85 f6                	test   esi,esi
  4013a4:	0f 84 e6 01 00 00    	je     401590 <__cygwin_crt0_common@8+0x2e0>
  4013aa:	8b 0d 0c 20 40 00    	mov    ecx,DWORD PTR ds:0x40200c
  4013b0:	85 c9                	test   ecx,ecx
  4013b2:	0f 84 c8 01 00 00    	je     401580 <__cygwin_crt0_common@8+0x2d0>
  4013b8:	a1 10 20 40 00       	mov    eax,ds:0x402010
  4013bd:	85 c0                	test   eax,eax
  4013bf:	0f 84 ab 01 00 00    	je     401570 <__cygwin_crt0_common@8+0x2c0>
  4013c5:	8b 35 14 20 40 00    	mov    esi,DWORD PTR ds:0x402014
  4013cb:	85 f6                	test   esi,esi
  4013cd:	0f 84 8d 01 00 00    	je     401560 <__cygwin_crt0_common@8+0x2b0>
  4013d3:	8b 0d 18 20 40 00    	mov    ecx,DWORD PTR ds:0x402018
  4013d9:	85 c9                	test   ecx,ecx
  4013db:	0f 84 6f 01 00 00    	je     401550 <__cygwin_crt0_common@8+0x2a0>
  4013e1:	a1 1c 20 40 00       	mov    eax,ds:0x40201c
  4013e6:	85 c0                	test   eax,eax
  4013e8:	0f 84 52 01 00 00    	je     401540 <__cygwin_crt0_common@8+0x290>
  4013ee:	a1 00 20 40 00       	mov    eax,ds:0x402000
  4013f3:	89 02                	mov    DWORD PTR [edx],eax
  4013f5:	a1 04 20 40 00       	mov    eax,ds:0x402004
  4013fa:	89 42 04             	mov    DWORD PTR [edx+0x4],eax
  4013fd:	a1 08 20 40 00       	mov    eax,ds:0x402008
  401402:	89 42 08             	mov    DWORD PTR [edx+0x8],eax
  401405:	a1 0c 20 40 00       	mov    eax,ds:0x40200c
  40140a:	89 42 0c             	mov    DWORD PTR [edx+0xc],eax
  40140d:	a1 10 20 40 00       	mov    eax,ds:0x402010
  401412:	89 42 10             	mov    DWORD PTR [edx+0x10],eax
  401415:	a1 14 20 40 00       	mov    eax,ds:0x402014
  40141a:	89 42 14             	mov    DWORD PTR [edx+0x14],eax
  40141d:	a1 18 20 40 00       	mov    eax,ds:0x402018
  401422:	89 42 18             	mov    DWORD PTR [edx+0x18],eax
  401425:	a1 1c 20 40 00       	mov    eax,ds:0x40201c
  40142a:	89 42 1c             	mov    DWORD PTR [edx+0x1c],eax
  40142d:	c7 04 24 00 00 00 00 	mov    DWORD PTR [esp],0x0
  401434:	e8 4f 03 00 00       	call   401788 <_GetModuleHandleA@4>
  401439:	c7 43 34 00 20 40 00 	mov    DWORD PTR [ebx+0x34],0x402000
  401440:	c7 43 38 c0 20 40 00 	mov    DWORD PTR [ebx+0x38],0x4020c0
  401447:	c7 43 3c 00 30 40 00 	mov    DWORD PTR [ebx+0x3c],0x403000
  40144e:	c7 43 40 00 31 40 00 	mov    DWORD PTR [ebx+0x40],0x403100
  401455:	c7 83 94 00 00 00 00 	mov    DWORD PTR [ebx+0x94],0x403000
  40145c:	30 40 00 
  40145f:	89 43 7c             	mov    DWORD PTR [ebx+0x7c],eax
  401462:	83 ec 04             	sub    esp,0x4
  401465:	c7 83 98 00 00 00 00 	mov    DWORD PTR [ebx+0x98],0x403000
  40146c:	30 40 00 
  40146f:	c7 83 9c 00 00 00 00 	mov    DWORD PTR [ebx+0x9c],0x400000
  401476:	00 40 00 
  401479:	c7 04 24 00 00 00 00 	mov    DWORD PTR [esp],0x0
  401480:	e8 8b 02 00 00       	call   401710 <__pei386_runtime_relocator>
  401485:	8d 65 f8             	lea    esp,[ebp-0x8]
  401488:	b8 01 00 00 00       	mov    eax,0x1
  40148d:	5b                   	pop    ebx
  40148e:	5e                   	pop    esi
  40148f:	5d                   	pop    ebp
  401490:	c2 08 00             	ret    0x8
  401493:	8b 15 84 40 40 00    	mov    edx,DWORD PTR ds:0x404084
  401499:	85 c0                	test   eax,eax
  40149b:	8b 88 a4 00 00 00    	mov    ecx,DWORD PTR [eax+0xa4]
  4014a1:	c7 40 04 a8 00 00 00 	mov    DWORD PTR [eax+0x4],0xa8
  4014a8:	c7 40 08 ef 03 00 00 	mov    DWORD PTR [eax+0x8],0x3ef
  4014af:	c7 40 0c 11 00 00 00 	mov    DWORD PTR [eax+0xc],0x11
  4014b6:	89 0a                	mov    DWORD PTR [edx],ecx
  4014b8:	8b 55 00             	mov    edx,DWORD PTR [ebp+0x0]
  4014bb:	c7 80 80 00 00 00 00 	mov    DWORD PTR [eax+0x80],0x0
  4014c2:	00 00 00 
  4014c5:	c7 80 84 00 00 00 06 	mov    DWORD PTR [eax+0x84],0x106
  4014cc:	01 00 00 
  4014cf:	c7 40 2c 90 17 40 00 	mov    DWORD PTR [eax+0x2c],0x401790
  4014d6:	c7 40 30 98 17 40 00 	mov    DWORD PTR [eax+0x30],0x401798
  4014dd:	c7 40 14 00 30 40 00 	mov    DWORD PTR [eax+0x14],0x403000
  4014e4:	89 70 28             	mov    DWORD PTR [eax+0x28],esi
  4014e7:	c7 40 48 50 12 40 00 	mov    DWORD PTR [eax+0x48],0x401250
  4014ee:	c7 40 4c 60 12 40 00 	mov    DWORD PTR [eax+0x4c],0x401260
  4014f5:	c7 40 50 70 12 40 00 	mov    DWORD PTR [eax+0x50],0x401270
  4014fc:	c7 40 54 80 12 40 00 	mov    DWORD PTR [eax+0x54],0x401280
  401503:	c7 40 24 04 30 40 00 	mov    DWORD PTR [eax+0x24],0x403004
  40150a:	89 10                	mov    DWORD PTR [eax],edx
  40150c:	c7 40 18 e0 16 40 00 	mov    DWORD PTR [eax+0x18],0x4016e0
  401513:	c7 40 1c e8 16 40 00 	mov    DWORD PTR [eax+0x1c],0x4016e8
  40151a:	c7 40 20 f0 16 40 00 	mov    DWORD PTR [eax+0x20],0x4016f0
  401521:	c7 40 44 f8 16 40 00 	mov    DWORD PTR [eax+0x44],0x4016f8
  401528:	0f 84 ff fe ff ff    	je     40142d <__cygwin_crt0_common@8+0x17d>
  40152e:	8b 50 78             	mov    edx,DWORD PTR [eax+0x78]
  401531:	89 c3                	mov    ebx,eax
  401533:	85 d2                	test   edx,edx
  401535:	0f 85 38 fe ff ff    	jne    401373 <__cygwin_crt0_common@8+0xc3>
  40153b:	e9 ed fe ff ff       	jmp    40142d <__cygwin_crt0_common@8+0x17d>
  401540:	8b 42 1c             	mov    eax,DWORD PTR [edx+0x1c]
  401543:	a3 1c 20 40 00       	mov    ds:0x40201c,eax
  401548:	e9 a1 fe ff ff       	jmp    4013ee <__cygwin_crt0_common@8+0x13e>
  40154d:	8d 76 00             	lea    esi,[esi+0x0]
  401550:	8b 42 18             	mov    eax,DWORD PTR [edx+0x18]
  401553:	a3 18 20 40 00       	mov    ds:0x402018,eax
  401558:	e9 84 fe ff ff       	jmp    4013e1 <__cygwin_crt0_common@8+0x131>
  40155d:	8d 76 00             	lea    esi,[esi+0x0]
  401560:	8b 42 14             	mov    eax,DWORD PTR [edx+0x14]
  401563:	a3 14 20 40 00       	mov    ds:0x402014,eax
  401568:	e9 66 fe ff ff       	jmp    4013d3 <__cygwin_crt0_common@8+0x123>
  40156d:	8d 76 00             	lea    esi,[esi+0x0]
  401570:	8b 42 10             	mov    eax,DWORD PTR [edx+0x10]
  401573:	a3 10 20 40 00       	mov    ds:0x402010,eax
  401578:	e9 48 fe ff ff       	jmp    4013c5 <__cygwin_crt0_common@8+0x115>
  40157d:	8d 76 00             	lea    esi,[esi+0x0]
  401580:	8b 42 0c             	mov    eax,DWORD PTR [edx+0xc]
  401583:	a3 0c 20 40 00       	mov    ds:0x40200c,eax
  401588:	e9 2b fe ff ff       	jmp    4013b8 <__cygwin_crt0_common@8+0x108>
  40158d:	8d 76 00             	lea    esi,[esi+0x0]
  401590:	8b 42 08             	mov    eax,DWORD PTR [edx+0x8]
  401593:	a3 08 20 40 00       	mov    ds:0x402008,eax
  401598:	e9 0d fe ff ff       	jmp    4013aa <__cygwin_crt0_common@8+0xfa>
  40159d:	8d 76 00             	lea    esi,[esi+0x0]
  4015a0:	8b 42 04             	mov    eax,DWORD PTR [edx+0x4]
  4015a3:	a3 04 20 40 00       	mov    ds:0x402004,eax
  4015a8:	e9 ef fd ff ff       	jmp    40139c <__cygwin_crt0_common@8+0xec>
  4015ad:	8d 76 00             	lea    esi,[esi+0x0]
  4015b0:	8b 02                	mov    eax,DWORD PTR [edx]
  4015b2:	a3 00 20 40 00       	mov    ds:0x402000,eax
  4015b7:	e9 d3 fd ff ff       	jmp    40138f <__cygwin_crt0_common@8+0xdf>
  4015bc:	90                   	nop
  4015bd:	90                   	nop
  4015be:	90                   	nop
  4015bf:	90                   	nop

004015c0 <___dllMain>:
  4015c0:	55                   	push   ebp
  4015c1:	89 e5                	mov    ebp,esp
  4015c3:	83 ec 18             	sub    esp,0x18
  4015c6:	a1 14 30 40 00       	mov    eax,ds:0x403014
  4015cb:	89 44 24 08          	mov    DWORD PTR [esp+0x8],eax
  4015cf:	a1 10 30 40 00       	mov    eax,ds:0x403010
  4015d4:	89 44 24 04          	mov    DWORD PTR [esp+0x4],eax
  4015d8:	a1 0c 30 40 00       	mov    eax,ds:0x40300c
  4015dd:	89 04 24             	mov    DWORD PTR [esp],eax
  4015e0:	e8 3b 01 00 00       	call   401720 <_DllMain@12>
  4015e5:	83 ec 0c             	sub    esp,0xc
  4015e8:	c9                   	leave  
  4015e9:	c3                   	ret    
  4015ea:	8d b6 00 00 00 00    	lea    esi,[esi+0x0]

004015f0 <__cygwin_dll_entry@12>:
  4015f0:	55                   	push   ebp
  4015f1:	89 e5                	mov    ebp,esp
  4015f3:	83 ec 28             	sub    esp,0x28
  4015f6:	8b 45 0c             	mov    eax,DWORD PTR [ebp+0xc]
  4015f9:	8b 55 08             	mov    edx,DWORD PTR [ebp+0x8]
  4015fc:	8b 4d 10             	mov    ecx,DWORD PTR [ebp+0x10]
  4015ff:	83 f8 01             	cmp    eax,0x1
  401602:	74 6f                	je     401673 <__cygwin_dll_entry@12+0x83>
  401604:	72 1a                	jb     401620 <__cygwin_dll_entry@12+0x30>
  401606:	83 f8 02             	cmp    eax,0x2
  401609:	0f 84 a8 00 00 00    	je     4016b7 <__cygwin_dll_entry@12+0xc7>
  40160f:	83 f8 03             	cmp    eax,0x3
  401612:	74 4c                	je     401660 <__cygwin_dll_entry@12+0x70>
  401614:	b8 01 00 00 00       	mov    eax,0x1
  401619:	c9                   	leave  
  40161a:	c2 0c 00             	ret    0xc
  40161d:	8d 76 00             	lea    esi,[esi+0x0]
  401620:	89 4c 24 08          	mov    DWORD PTR [esp+0x8],ecx
  401624:	c7 44 24 04 00 00 00 	mov    DWORD PTR [esp+0x4],0x0
  40162b:	00 
  40162c:	89 14 24             	mov    DWORD PTR [esp],edx
  40162f:	e8 ec 00 00 00       	call   401720 <_DllMain@12>
  401634:	83 ec 0c             	sub    esp,0xc
  401637:	85 c0                	test   eax,eax
  401639:	74 de                	je     401619 <__cygwin_dll_entry@12+0x29>
  40163b:	8b 15 18 30 40 00    	mov    edx,DWORD PTR ds:0x403018
  401641:	89 45 f4             	mov    DWORD PTR [ebp-0xc],eax
  401644:	89 14 24             	mov    DWORD PTR [esp],edx
  401647:	e8 e4 00 00 00       	call   401730 <_cygwin_detach_dll>
  40164c:	8b 45 f4             	mov    eax,DWORD PTR [ebp-0xc]
  40164f:	c7 05 18 30 40 00 ff 	mov    DWORD PTR ds:0x403018,0xffffffff
  401656:	ff ff ff 
  401659:	eb be                	jmp    401619 <__cygwin_dll_entry@12+0x29>
  40165b:	90                   	nop
  40165c:	8d 74 26 00          	lea    esi,[esi+eiz*1+0x0]
  401660:	89 4d 10             	mov    DWORD PTR [ebp+0x10],ecx
  401663:	c7 45 0c 03 00 00 00 	mov    DWORD PTR [ebp+0xc],0x3
  40166a:	89 55 08             	mov    DWORD PTR [ebp+0x8],edx
  40166d:	c9                   	leave  
  40166e:	e9 ad 00 00 00       	jmp    401720 <_DllMain@12>
  401673:	31 c0                	xor    eax,eax
  401675:	85 c9                	test   ecx,ecx
  401677:	0f 94 c0             	sete   al
  40167a:	c7 44 24 04 c0 15 40 	mov    DWORD PTR [esp+0x4],0x4015c0
  401681:	00 
  401682:	89 14 24             	mov    DWORD PTR [esp],edx
  401685:	89 15 0c 30 40 00    	mov    DWORD PTR ds:0x40300c,edx
  40168b:	c7 05 10 30 40 00 01 	mov    DWORD PTR ds:0x403010,0x1
  401692:	00 00 00 
  401695:	89 0d 14 30 40 00    	mov    DWORD PTR ds:0x403014,ecx
  40169b:	a3 08 30 40 00       	mov    ds:0x403008,eax
  4016a0:	e8 9b 00 00 00       	call   401740 <_cygwin_attach_dll>
  4016a5:	83 f8 ff             	cmp    eax,0xffffffff
  4016a8:	a3 18 30 40 00       	mov    ds:0x403018,eax
  4016ad:	0f 95 c0             	setne  al
  4016b0:	0f b6 c0             	movzx  eax,al
  4016b3:	c9                   	leave  
  4016b4:	c2 0c 00             	ret    0xc
  4016b7:	89 4d 10             	mov    DWORD PTR [ebp+0x10],ecx
  4016ba:	c7 45 0c 02 00 00 00 	mov    DWORD PTR [ebp+0xc],0x2
  4016c1:	89 55 08             	mov    DWORD PTR [ebp+0x8],edx
  4016c4:	c9                   	leave  
  4016c5:	e9 56 00 00 00       	jmp    401720 <_DllMain@12>
  4016ca:	8d b6 00 00 00 00    	lea    esi,[esi+0x0]

004016d0 <__cygwin_noncygwin_dll_entry@12>:
  4016d0:	55                   	push   ebp
  4016d1:	89 e5                	mov    ebp,esp
  4016d3:	83 ec 08             	sub    esp,0x8
  4016d6:	c9                   	leave  
  4016d7:	e9 14 ff ff ff       	jmp    4015f0 <__cygwin_dll_entry@12>
  4016dc:	90                   	nop
  4016dd:	90                   	nop
  4016de:	90                   	nop
  4016df:	90                   	nop

004016e0 <_malloc>:
  4016e0:	ff 25 a0 40 40 00    	jmp    DWORD PTR ds:0x4040a0
  4016e6:	90                   	nop
  4016e7:	90                   	nop

004016e8 <_free>:
  4016e8:	ff 25 9c 40 40 00    	jmp    DWORD PTR ds:0x40409c
  4016ee:	90                   	nop
  4016ef:	90                   	nop

004016f0 <_realloc>:
  4016f0:	ff 25 ac 40 40 00    	jmp    DWORD PTR ds:0x4040ac
  4016f6:	90                   	nop
  4016f7:	90                   	nop

004016f8 <_calloc>:
  4016f8:	ff 25 8c 40 40 00    	jmp    DWORD PTR ds:0x40408c
  4016fe:	90                   	nop
  4016ff:	90                   	nop

00401700 <_cygwin_internal>:
  401700:	ff 25 94 40 40 00    	jmp    DWORD PTR ds:0x404094
  401706:	90                   	nop
  401707:	90                   	nop
  401708:	66 90                	xchg   ax,ax
  40170a:	66 90                	xchg   ax,ax
  40170c:	66 90                	xchg   ax,ax
  40170e:	66 90                	xchg   ax,ax

00401710 <__pei386_runtime_relocator>:
  401710:	55                   	push   ebp
  401711:	89 e5                	mov    ebp,esp
  401713:	5d                   	pop    ebp
  401714:	c3                   	ret    
  401715:	90                   	nop
  401716:	90                   	nop
  401717:	90                   	nop
  401718:	90                   	nop
  401719:	90                   	nop
  40171a:	90                   	nop
  40171b:	90                   	nop
  40171c:	90                   	nop
  40171d:	90                   	nop
  40171e:	90                   	nop
  40171f:	90                   	nop

00401720 <_DllMain@12>:
  401720:	55                   	push   ebp
  401721:	b8 01 00 00 00       	mov    eax,0x1
  401726:	89 e5                	mov    ebp,esp
  401728:	5d                   	pop    ebp
  401729:	c2 0c 00             	ret    0xc
  40172c:	90                   	nop
  40172d:	90                   	nop
  40172e:	90                   	nop
  40172f:	90                   	nop

00401730 <_cygwin_detach_dll>:
  401730:	ff 25 90 40 40 00    	jmp    DWORD PTR ds:0x404090
  401736:	90                   	nop
  401737:	90                   	nop
  401738:	66 90                	xchg   ax,ax
  40173a:	66 90                	xchg   ax,ax
  40173c:	66 90                	xchg   ax,ax
  40173e:	66 90                	xchg   ax,ax

00401740 <_cygwin_attach_dll>:
  401740:	55                   	push   ebp
  401741:	89 e5                	mov    ebp,esp
  401743:	53                   	push   ebx
  401744:	83 ec 14             	sub    esp,0x14
  401747:	8b 45 0c             	mov    eax,DWORD PTR [ebp+0xc]
  40174a:	8b 5d 08             	mov    ebx,DWORD PTR [ebp+0x8]
  40174d:	c7 44 24 04 20 30 40 	mov    DWORD PTR [esp+0x4],0x403020
  401754:	00 
  401755:	89 04 24             	mov    DWORD PTR [esp],eax
  401758:	e8 53 fb ff ff       	call   4012b0 <__cygwin_crt0_common@8>
  40175d:	89 5d 08             	mov    DWORD PTR [ebp+0x8],ebx
  401760:	8b 5d fc             	mov    ebx,DWORD PTR [ebp-0x4]
  401763:	c7 45 0c 20 30 40 00 	mov    DWORD PTR [ebp+0xc],0x403020
  40176a:	83 ec 08             	sub    esp,0x8
  40176d:	c9                   	leave  
  40176e:	e9 0d 00 00 00       	jmp    401780 <_dll_dllcrt0>
  401773:	90                   	nop
  401774:	90                   	nop
  401775:	90                   	nop
  401776:	90                   	nop
  401777:	90                   	nop
  401778:	90                   	nop
  401779:	90                   	nop
  40177a:	90                   	nop
  40177b:	90                   	nop
  40177c:	90                   	nop
  40177d:	90                   	nop
  40177e:	90                   	nop
  40177f:	90                   	nop

00401780 <_dll_dllcrt0>:
  401780:	ff 25 98 40 40 00    	jmp    DWORD PTR ds:0x404098
  401786:	90                   	nop
  401787:	90                   	nop

00401788 <_GetModuleHandleA@4>:
  401788:	ff 25 b4 40 40 00    	jmp    DWORD PTR ds:0x4040b4
  40178e:	90                   	nop
  40178f:	90                   	nop

00401790 <__CTOR_LIST__>:
  401790:	ff                   	(bad)  
  401791:	ff                   	(bad)  
  401792:	ff                   	(bad)  
  401793:	ff 00                	inc    DWORD PTR [eax]
  401795:	00 00                	add    BYTE PTR [eax],al
	...

00401798 <__DTOR_LIST__>:
  401798:	ff                   	(bad)  
  401799:	ff                   	(bad)  
  40179a:	ff                   	(bad)  
  40179b:	ff 00                	inc    DWORD PTR [eax]
  40179d:	00 00                	add    BYTE PTR [eax],al
	...

Disassembly of section .idata:

00404000 <__head_cygwin1_dll>:
  404000:	3c 40                	cmp    al,0x40
	...
  40400a:	00 00                	add    BYTE PTR [eax],al
  40400c:	b0 41                	mov    al,0x41
  40400e:	00 00                	add    BYTE PTR [eax],al
  404010:	7c 40                	jl     404052 <.idata$4+0x2>
	...

00404014 <__head_lib32_libkernel32_a>:
  404014:	74 40                	je     404056 <.idata$4+0x2>
	...
  40401e:	00 00                	add    BYTE PTR [eax],al
  404020:	c0 41 00 00          	rol    BYTE PTR [ecx+0x0],0x0
  404024:	b4 40                	mov    ah,0x40
	...

0040403c <.idata$4>:
  40403c:	bc 40 00 00 c8       	mov    esp,0xc8000040

00404040 <.idata$4>:
  404040:	c8 40 00 00          	enter  0x40,0x0

00404044 <.idata$4>:
  404044:	d8 40 00             	fadd   DWORD PTR [eax+0x0]
	...

00404048 <.idata$4>:
  404048:	e8 40 00 00 f0       	call   f040408d <.debug_ranges+0xefff308d>

0040404c <.idata$4>:
  40404c:	f0 40                	lock inc eax
	...

00404050 <.idata$4>:
  404050:	fc                   	cld    
  404051:	40                   	inc    eax
	...

00404054 <.idata$4>:
  404054:	10 41 00             	adc    BYTE PTR [ecx+0x0],al
	...

00404058 <.idata$4>:
  404058:	24 41                	and    al,0x41
	...

0040405c <.idata$4>:
  40405c:	34 41                	xor    al,0x41
	...

00404060 <.idata$4>:
  404060:	3c 41                	cmp    al,0x41
	...

00404064 <.idata$4>:
  404064:	48                   	dec    eax
  404065:	41                   	inc    ecx
	...

00404068 <.idata$4>:
  404068:	50                   	push   eax
  404069:	41                   	inc    ecx
	...

0040406c <.idata$4>:
  40406c:	5c                   	pop    esp
  40406d:	41                   	inc    ecx
	...

00404070 <.idata$4>:
  404070:	00 00                	add    BYTE PTR [eax],al
	...

00404074 <hname>:
  404074:	68 41 00 00 00       	push   0x41

00404078 <.idata$4>:
  404078:	00 00                	add    BYTE PTR [eax],al
	...

0040407c <__IAT_start__>:
  40407c:	bc 40 00 00 c8       	mov    esp,0xc8000040

00404080 <__imp___dll_crt0@0>:
  404080:	c8 40 00 00          	enter  0x40,0x0

00404084 <__imp___impure_ptr>:
  404084:	d8 40 00             	fadd   DWORD PTR [eax+0x0]
	...

00404088 <__imp__atoi>:
  404088:	e8 40 00 00 f0       	call   f04040cd <.debug_ranges+0xefff30cd>

0040408c <__imp__calloc>:
  40408c:	f0 40                	lock inc eax
	...

00404090 <__imp__cygwin_detach_dll>:
  404090:	fc                   	cld    
  404091:	40                   	inc    eax
	...

00404094 <__imp__cygwin_internal>:
  404094:	10 41 00             	adc    BYTE PTR [ecx+0x0],al
	...

00404098 <__imp__dll_dllcrt0>:
  404098:	24 41                	and    al,0x41
	...

0040409c <__imp__free>:
  40409c:	34 41                	xor    al,0x41
	...

004040a0 <__imp__malloc>:
  4040a0:	3c 41                	cmp    al,0x41
	...

004040a4 <__imp__pow>:
  4040a4:	48                   	dec    eax
  4040a5:	41                   	inc    ecx
	...

004040a8 <__imp__printf>:
  4040a8:	50                   	push   eax
  4040a9:	41                   	inc    ecx
	...

004040ac <__imp__realloc>:
  4040ac:	5c                   	pop    esp
  4040ad:	41                   	inc    ecx
	...

004040b0 <.idata$5>:
  4040b0:	00 00                	add    BYTE PTR [eax],al
	...

004040b4 <__imp__GetModuleHandleA@4>:
  4040b4:	68 41 00 00 00       	push   0x41

004040b8 <.idata$5>:
  4040b8:	00 00                	add    BYTE PTR [eax],al
	...

004040bc <__IAT_end__>:
  4040bc:	3d 00 5f 5f 6d       	cmp    eax,0x6d5f5f00
  4040c1:	61                   	popa   
  4040c2:	69 6e 00 00 00 00 b8 	imul   ebp,DWORD PTR [esi+0x0],0xb8000000

004040c8 <.idata$6>:
  4040c8:	b8 00 5f 64 6c       	mov    eax,0x6c645f00
  4040cd:	6c                   	ins    BYTE PTR es:[edi],dx
  4040ce:	5f                   	pop    edi
  4040cf:	63 72 74             	arpl   WORD PTR [edx+0x74],si
  4040d2:	30 40 30             	xor    BYTE PTR [eax+0x30],al
  4040d5:	00 00                	add    BYTE PTR [eax],al
	...

004040d8 <__nm___impure_ptr>:
  4040d8:	71 01                	jno    4040db <__nm___impure_ptr+0x3>
  4040da:	5f                   	pop    edi
  4040db:	69 6d 70 75 72 65 5f 	imul   ebp,DWORD PTR [ebp+0x70],0x5f657275
  4040e2:	70 74                	jo     404158 <.idata$6+0x8>
  4040e4:	72 00                	jb     4040e6 <__nm___impure_ptr+0xe>
	...

004040e8 <.idata$6>:
  4040e8:	cd 02                	int    0x2
  4040ea:	61                   	popa   
  4040eb:	74 6f                	je     40415c <.idata$6>
  4040ed:	69 00 00 df 02 63    	imul   eax,DWORD PTR [eax],0x6302df00

004040f0 <.idata$6>:
  4040f0:	df 02                	fild   WORD PTR [edx]
  4040f2:	63 61 6c             	arpl   WORD PTR [ecx+0x6c],sp
  4040f5:	6c                   	ins    BYTE PTR es:[edi],dx
  4040f6:	6f                   	outs   dx,DWORD PTR ds:[esi]
  4040f7:	63 00                	arpl   WORD PTR [eax],ax
  4040f9:	00 00                	add    BYTE PTR [eax],al
	...

004040fc <.idata$6>:
  4040fc:	44                   	inc    esp
  4040fd:	03 63 79             	add    esp,DWORD PTR [ebx+0x79]
  404100:	67 77 69             	addr16 ja 40416c <.idata$6+0x4>
  404103:	6e                   	outs   dx,BYTE PTR ds:[esi]
  404104:	5f                   	pop    edi
  404105:	64                   	fs
  404106:	65                   	gs
  404107:	74 61                	je     40416a <.idata$6+0x2>
  404109:	63 68 5f             	arpl   WORD PTR [eax+0x5f],bp
  40410c:	64                   	fs
  40410d:	6c                   	ins    BYTE PTR es:[edi],dx
  40410e:	6c                   	ins    BYTE PTR es:[edi],dx
	...

00404110 <.idata$6>:
  404110:	46                   	inc    esi
  404111:	03 63 79             	add    esp,DWORD PTR [ebx+0x79]
  404114:	67 77 69             	addr16 ja 404180 <.idata$7>
  404117:	6e                   	outs   dx,BYTE PTR ds:[esi]
  404118:	5f                   	pop    edi
  404119:	69 6e 74 65 72 6e 61 	imul   ebp,DWORD PTR [esi+0x74],0x616e7265
  404120:	6c                   	ins    BYTE PTR es:[edi],dx
  404121:	00 00                	add    BYTE PTR [eax],al
	...

00404124 <.idata$6>:
  404124:	5b                   	pop    ebx
  404125:	03 64 6c 6c          	add    esp,DWORD PTR [esp+ebp*2+0x6c]
  404129:	5f                   	pop    edi
  40412a:	64                   	fs
  40412b:	6c                   	ins    BYTE PTR es:[edi],dx
  40412c:	6c                   	ins    BYTE PTR es:[edi],dx
  40412d:	63 72 74             	arpl   WORD PTR [edx+0x74],si
  404130:	30 00                	xor    BYTE PTR [eax],al
	...

00404134 <.idata$6>:
  404134:	e9 03 66 72 65       	jmp    65b2a73c <.debug_ranges+0x6571973c>
  404139:	65 00 00             	add    BYTE PTR gs:[eax],al

0040413c <.idata$6>:
  40413c:	03 05 6d 61 6c 6c    	add    eax,DWORD PTR ds:0x6c6c616d
  404142:	6f                   	outs   dx,DWORD PTR ds:[esi]
  404143:	63 00                	arpl   WORD PTR [eax],ax
  404145:	00 00                	add    BYTE PTR [eax],al
	...

00404148 <.idata$6>:
  404148:	6b 05 70 6f 77 00 00 	imul   eax,DWORD PTR ds:0x776f70,0x0
	...

00404150 <.idata$6>:
  404150:	71 05                	jno    404157 <.idata$6+0x7>
  404152:	70 72                	jo     4041c6 <__lib32_libkernel32_a_iname+0x6>
  404154:	69 6e 74 66 00 00 00 	imul   ebp,DWORD PTR [esi+0x74],0x66
	...

0040415c <.idata$6>:
  40415c:	f1                   	icebp  
  40415d:	05 72 65 61 6c       	add    eax,0x6c616572
  404162:	6c                   	ins    BYTE PTR es:[edi],dx
  404163:	6f                   	outs   dx,DWORD PTR ds:[esi]
  404164:	63 00                	arpl   WORD PTR [eax],ax
	...

00404168 <.idata$6>:
  404168:	fe 01                	inc    BYTE PTR [ecx]
  40416a:	47                   	inc    edi
  40416b:	65                   	gs
  40416c:	74 4d                	je     4041bb <_cygwin1_dll_iname+0xb>
  40416e:	6f                   	outs   dx,DWORD PTR ds:[esi]
  40416f:	64                   	fs
  404170:	75 6c                	jne    4041de <__lib32_libkernel32_a_iname+0x1e>
  404172:	65                   	gs
  404173:	48                   	dec    eax
  404174:	61                   	popa   
  404175:	6e                   	outs   dx,BYTE PTR ds:[esi]
  404176:	64                   	fs
  404177:	6c                   	ins    BYTE PTR es:[edi],dx
  404178:	65                   	gs
  404179:	41                   	inc    ecx
	...

0040417c <.idata$7>:
  40417c:	00 40 00             	add    BYTE PTR [eax+0x0],al
	...

00404180 <.idata$7>:
  404180:	00 40 00             	add    BYTE PTR [eax+0x0],al
	...

00404184 <.idata$7>:
  404184:	00 40 00             	add    BYTE PTR [eax+0x0],al
	...

00404188 <.idata$7>:
  404188:	00 40 00             	add    BYTE PTR [eax+0x0],al
	...

0040418c <.idata$7>:
  40418c:	00 40 00             	add    BYTE PTR [eax+0x0],al
	...

00404190 <.idata$7>:
  404190:	00 40 00             	add    BYTE PTR [eax+0x0],al
	...

00404194 <.idata$7>:
  404194:	00 40 00             	add    BYTE PTR [eax+0x0],al
	...

00404198 <.idata$7>:
  404198:	00 40 00             	add    BYTE PTR [eax+0x0],al
	...

0040419c <.idata$7>:
  40419c:	00 40 00             	add    BYTE PTR [eax+0x0],al
	...

004041a0 <.idata$7>:
  4041a0:	00 40 00             	add    BYTE PTR [eax+0x0],al
	...

004041a4 <.idata$7>:
  4041a4:	00 40 00             	add    BYTE PTR [eax+0x0],al
	...

004041a8 <.idata$7>:
  4041a8:	00 40 00             	add    BYTE PTR [eax+0x0],al
	...

004041ac <.idata$7>:
  4041ac:	00 40 00             	add    BYTE PTR [eax+0x0],al
	...

004041b0 <_cygwin1_dll_iname>:
  4041b0:	63 79 67             	arpl   WORD PTR [ecx+0x67],di
  4041b3:	77 69                	ja     40421e <__lib32_libkernel32_a_iname+0x5e>
  4041b5:	6e                   	outs   dx,BYTE PTR ds:[esi]
  4041b6:	31 2e                	xor    DWORD PTR [esi],ebp
  4041b8:	64                   	fs
  4041b9:	6c                   	ins    BYTE PTR es:[edi],dx
  4041ba:	6c                   	ins    BYTE PTR es:[edi],dx
	...

004041bc <.idata$7>:
  4041bc:	14 40                	adc    al,0x40
	...

004041c0 <__lib32_libkernel32_a_iname>:
  4041c0:	4b                   	dec    ebx
  4041c1:	45                   	inc    ebp
  4041c2:	52                   	push   edx
  4041c3:	4e                   	dec    esi
  4041c4:	45                   	inc    ebp
  4041c5:	4c                   	dec    esp
  4041c6:	33 32                	xor    esi,DWORD PTR [edx]
  4041c8:	2e                   	cs
  4041c9:	64                   	fs
  4041ca:	6c                   	ins    BYTE PTR es:[edi],dx
  4041cb:	6c                   	ins    BYTE PTR es:[edi],dx
  4041cc:	00 00                	add    BYTE PTR [eax],al
	...
