
a.exe:     file format pei-i386


Disassembly of section .text:

00401000 <_WinMainCRTStartup>:
  401000:	55                   	push   ebp
  401001:	89 e5                	mov    ebp,esp
  401003:	83 ec 18             	sub    esp,0x18
  401006:	83 e4 f0             	and    esp,0xfffffff0
  401009:	c7 04 24 90 10 40 00 	mov    DWORD PTR [esp],0x401090
  401010:	e8 0b 02 00 00       	call   401220 <_cygwin_crt0>
  401015:	c7 44 24 08 00 00 00 	mov    DWORD PTR [esp+0x8],0x0
  40101c:	00 
  40101d:	c7 44 24 04 00 00 00 	mov    DWORD PTR [esp+0x4],0x0
  401024:	00 
  401025:	c7 04 24 00 00 00 00 	mov    DWORD PTR [esp],0x0
  40102c:	e8 1f 02 00 00       	call   401250 <_cygwin_premain0>
  401031:	c7 44 24 08 00 00 00 	mov    DWORD PTR [esp+0x8],0x0
  401038:	00 
  401039:	c7 44 24 04 00 00 00 	mov    DWORD PTR [esp+0x4],0x0
  401040:	00 
  401041:	c7 04 24 00 00 00 00 	mov    DWORD PTR [esp],0x0
  401048:	e8 13 02 00 00       	call   401260 <_cygwin_premain1>
  40104d:	c7 44 24 08 00 00 00 	mov    DWORD PTR [esp+0x8],0x0
  401054:	00 
  401055:	c7 44 24 04 00 00 00 	mov    DWORD PTR [esp+0x4],0x0
  40105c:	00 
  40105d:	c7 04 24 00 00 00 00 	mov    DWORD PTR [esp],0x0
  401064:	e8 07 02 00 00       	call   401270 <_cygwin_premain2>
  401069:	c7 44 24 08 00 00 00 	mov    DWORD PTR [esp+0x8],0x0
  401070:	00 
  401071:	c7 44 24 04 00 00 00 	mov    DWORD PTR [esp+0x4],0x0
  401078:	00 
  401079:	c7 04 24 00 00 00 00 	mov    DWORD PTR [esp],0x0
  401080:	e8 fb 01 00 00       	call   401280 <_cygwin_premain3>
  401085:	c9                   	leave  
  401086:	c3                   	ret    
  401087:	90                   	nop
  401088:	90                   	nop
  401089:	90                   	nop
  40108a:	90                   	nop
  40108b:	90                   	nop
  40108c:	90                   	nop
  40108d:	90                   	nop
  40108e:	90                   	nop
  40108f:	90                   	nop

00401090 <_main>:
  401090:	55                   	push   ebp
  401091:	89 e5                	mov    ebp,esp
  401093:	83 ec 28             	sub    esp,0x28
  401096:	83 e4 f0             	and    esp,0xfffffff0
  401099:	b8 00 00 00 00       	mov    eax,0x0
  40109e:	83 c0 0f             	add    eax,0xf
  4010a1:	83 c0 0f             	add    eax,0xf
  4010a4:	c1 e8 04             	shr    eax,0x4
  4010a7:	c1 e0 04             	shl    eax,0x4
  4010aa:	89 45 e8             	mov    DWORD PTR [ebp-0x18],eax
  4010ad:	8b 45 e8             	mov    eax,DWORD PTR [ebp-0x18]
  4010b0:	e8 3b 01 00 00       	call   4011f0 <___chkstk>
  4010b5:	e8 d6 01 00 00       	call   401290 <___main>
  4010ba:	c7 45 fc 00 00 00 00 	mov    DWORD PTR [ebp-0x4],0x0
  4010c1:	c7 45 f8 00 00 00 00 	mov    DWORD PTR [ebp-0x8],0x0
  4010c8:	8b 45 0c             	mov    eax,DWORD PTR [ebp+0xc]
  4010cb:	83 c0 08             	add    eax,0x8
  4010ce:	8b 00                	mov    eax,DWORD PTR [eax]
  4010d0:	89 04 24             	mov    DWORD PTR [esp],eax
  4010d3:	e8 d0 01 00 00       	call   4012a8 <_atoi>
  4010d8:	89 45 f4             	mov    DWORD PTR [ebp-0xc],eax
  4010db:	83 7d 08 03          	cmp    DWORD PTR [ebp+0x8],0x3
  4010df:	74 18                	je     4010f9 <_main+0x69>
  4010e1:	c7 04 24 20 20 40 00 	mov    DWORD PTR [esp],0x402020
  4010e8:	e8 b3 01 00 00       	call   4012a0 <_printf>
  4010ed:	c7 04 24 49 20 40 00 	mov    DWORD PTR [esp],0x402049
  4010f4:	e8 a7 01 00 00       	call   4012a0 <_printf>
  4010f9:	8b 45 0c             	mov    eax,DWORD PTR [ebp+0xc]
  4010fc:	83 c0 04             	add    eax,0x4
  4010ff:	8b 00                	mov    eax,DWORD PTR [eax]
  401101:	89 04 24             	mov    DWORD PTR [esp],eax
  401104:	e8 9f 01 00 00       	call   4012a8 <_atoi>
  401109:	83 f8 09             	cmp    eax,0x9
  40110c:	7f 16                	jg     401124 <_main+0x94>
  40110e:	8b 45 0c             	mov    eax,DWORD PTR [ebp+0xc]
  401111:	83 c0 04             	add    eax,0x4
  401114:	8b 00                	mov    eax,DWORD PTR [eax]
  401116:	89 04 24             	mov    DWORD PTR [esp],eax
  401119:	e8 8a 01 00 00       	call   4012a8 <_atoi>
  40111e:	85 c0                	test   eax,eax
  401120:	7e 02                	jle    401124 <_main+0x94>
  401122:	eb 0c                	jmp    401130 <_main+0xa0>
  401124:	c7 04 24 64 20 40 00 	mov    DWORD PTR [esp],0x402064
  40112b:	e8 70 01 00 00       	call   4012a0 <_printf>
  401130:	81 7d f4 ff c9 9a 3b 	cmp    DWORD PTR [ebp-0xc],0x3b9ac9ff
  401137:	7f 08                	jg     401141 <_main+0xb1>
  401139:	83 7d f4 01          	cmp    DWORD PTR [ebp-0xc],0x1
  40113d:	7e 02                	jle    401141 <_main+0xb1>
  40113f:	eb 0c                	jmp    40114d <_main+0xbd>
  401141:	c7 04 24 64 20 40 00 	mov    DWORD PTR [esp],0x402064
  401148:	e8 53 01 00 00       	call   4012a0 <_printf>
  40114d:	8b 45 0c             	mov    eax,DWORD PTR [ebp+0xc]
  401150:	83 c0 04             	add    eax,0x4
  401153:	8b 00                	mov    eax,DWORD PTR [eax]
  401155:	89 04 24             	mov    DWORD PTR [esp],eax
  401158:	e8 4b 01 00 00       	call   4012a8 <_atoi>
  40115d:	50                   	push   eax
  40115e:	db 04 24             	fild   DWORD PTR [esp]
  401161:	8d 64 24 04          	lea    esp,[esp+0x4]
  401165:	dd 5c 24 08          	fstp   QWORD PTR [esp+0x8]
  401169:	dd 05 b8 20 40 00    	fld    QWORD PTR ds:0x4020b8
  40116f:	dd 1c 24             	fstp   QWORD PTR [esp]
  401172:	e8 21 01 00 00       	call   401298 <_pow>
  401177:	d9 e8                	fld1   
  401179:	de e9                	fsubrp st(1),st
  40117b:	d9 7d f2             	fnstcw WORD PTR [ebp-0xe]
  40117e:	0f b7 45 f2          	movzx  eax,WORD PTR [ebp-0xe]
  401182:	66 0d 00 0c          	or     ax,0xc00
  401186:	66 89 45 f0          	mov    WORD PTR [ebp-0x10],ax
  40118a:	d9 6d f0             	fldcw  WORD PTR [ebp-0x10]
  40118d:	db 5d f8             	fistp  DWORD PTR [ebp-0x8]
  401190:	d9 6d f2             	fldcw  WORD PTR [ebp-0xe]
  401193:	8b 45 f8             	mov    eax,DWORD PTR [ebp-0x8]
  401196:	89 45 fc             	mov    DWORD PTR [ebp-0x4],eax
  401199:	83 7d fc 00          	cmp    DWORD PTR [ebp-0x4],0x0
  40119d:	7e 38                	jle    4011d7 <_main+0x147>
  40119f:	8b 55 fc             	mov    edx,DWORD PTR [ebp-0x4]
  4011a2:	8d 4d f4             	lea    ecx,[ebp-0xc]
  4011a5:	89 4d e8             	mov    DWORD PTR [ebp-0x18],ecx
  4011a8:	89 d0                	mov    eax,edx
  4011aa:	8b 4d e8             	mov    ecx,DWORD PTR [ebp-0x18]
  4011ad:	99                   	cdq    
  4011ae:	f7 39                	idiv   DWORD PTR [ecx]
  4011b0:	85 d2                	test   edx,edx
  4011b2:	75 1c                	jne    4011d0 <_main+0x140>
  4011b4:	8b 45 fc             	mov    eax,DWORD PTR [ebp-0x4]
  4011b7:	89 44 24 04          	mov    DWORD PTR [esp+0x4],eax
  4011bb:	c7 04 24 9b 20 40 00 	mov    DWORD PTR [esp],0x40209b
  4011c2:	e8 d9 00 00 00       	call   4012a0 <_printf>
  4011c7:	c7 45 ec 00 00 00 00 	mov    DWORD PTR [ebp-0x14],0x0
  4011ce:	eb 1a                	jmp    4011ea <_main+0x15a>
  4011d0:	8d 45 fc             	lea    eax,[ebp-0x4]
  4011d3:	ff 08                	dec    DWORD PTR [eax]
  4011d5:	eb c2                	jmp    401199 <_main+0x109>
  4011d7:	c7 04 24 9f 20 40 00 	mov    DWORD PTR [esp],0x40209f
  4011de:	e8 bd 00 00 00       	call   4012a0 <_printf>
  4011e3:	c7 45 ec 00 00 00 00 	mov    DWORD PTR [ebp-0x14],0x0
  4011ea:	8b 45 ec             	mov    eax,DWORD PTR [ebp-0x14]
  4011ed:	c9                   	leave  
  4011ee:	c3                   	ret    
  4011ef:	90                   	nop

004011f0 <___chkstk>:
  4011f0:	51                   	push   ecx
  4011f1:	89 e1                	mov    ecx,esp
  4011f3:	83 c1 08             	add    ecx,0x8

004011f6 <probe>:
  4011f6:	3d 00 10 00 00       	cmp    eax,0x1000
  4011fb:	72 10                	jb     40120d <done>
  4011fd:	81 e9 00 10 00 00    	sub    ecx,0x1000
  401203:	83 09 00             	or     DWORD PTR [ecx],0x0
  401206:	2d 00 10 00 00       	sub    eax,0x1000
  40120b:	eb e9                	jmp    4011f6 <probe>

0040120d <done>:
  40120d:	29 c1                	sub    ecx,eax
  40120f:	83 09 00             	or     DWORD PTR [ecx],0x0
  401212:	89 e0                	mov    eax,esp
  401214:	89 cc                	mov    esp,ecx
  401216:	8b 08                	mov    ecx,DWORD PTR [eax]
  401218:	8b 40 04             	mov    eax,DWORD PTR [eax+0x4]
  40121b:	ff e0                	jmp    eax
  40121d:	90                   	nop
  40121e:	90                   	nop
  40121f:	90                   	nop

00401220 <_cygwin_crt0>:
  401220:	55                   	push   ebp
  401221:	89 e5                	mov    ebp,esp
  401223:	83 ec 18             	sub    esp,0x18
  401226:	8b 45 08             	mov    eax,DWORD PTR [ebp+0x8]
  401229:	c7 44 24 04 00 00 00 	mov    DWORD PTR [esp+0x4],0x0
  401230:	00 
  401231:	89 04 24             	mov    DWORD PTR [esp],eax
  401234:	e8 77 00 00 00       	call   4012b0 <__cygwin_crt0_common@8>
  401239:	83 ec 08             	sub    esp,0x8
  40123c:	ff 15 80 40 40 00    	call   DWORD PTR ds:0x404080
  401242:	90                   	nop
  401243:	90                   	nop
  401244:	90                   	nop
  401245:	90                   	nop
  401246:	90                   	nop
  401247:	90                   	nop
  401248:	90                   	nop
  401249:	90                   	nop
  40124a:	90                   	nop
  40124b:	90                   	nop
  40124c:	90                   	nop
  40124d:	90                   	nop
  40124e:	90                   	nop
  40124f:	90                   	nop

00401250 <_cygwin_premain0>:
  401250:	55                   	push   ebp
  401251:	89 e5                	mov    ebp,esp
  401253:	5d                   	pop    ebp
  401254:	c3                   	ret    
  401255:	90                   	nop
  401256:	90                   	nop
  401257:	90                   	nop
  401258:	90                   	nop
  401259:	90                   	nop
  40125a:	90                   	nop
  40125b:	90                   	nop
  40125c:	90                   	nop
  40125d:	90                   	nop
  40125e:	90                   	nop
  40125f:	90                   	nop

00401260 <_cygwin_premain1>:
  401260:	55                   	push   ebp
  401261:	89 e5                	mov    ebp,esp
  401263:	5d                   	pop    ebp
  401264:	c3                   	ret    
  401265:	90                   	nop
  401266:	90                   	nop
  401267:	90                   	nop
  401268:	90                   	nop
  401269:	90                   	nop
  40126a:	90                   	nop
  40126b:	90                   	nop
  40126c:	90                   	nop
  40126d:	90                   	nop
  40126e:	90                   	nop
  40126f:	90                   	nop

00401270 <_cygwin_premain2>:
  401270:	55                   	push   ebp
  401271:	89 e5                	mov    ebp,esp
  401273:	5d                   	pop    ebp
  401274:	c3                   	ret    
  401275:	90                   	nop
  401276:	90                   	nop
  401277:	90                   	nop
  401278:	90                   	nop
  401279:	90                   	nop
  40127a:	90                   	nop
  40127b:	90                   	nop
  40127c:	90                   	nop
  40127d:	90                   	nop
  40127e:	90                   	nop
  40127f:	90                   	nop

00401280 <_cygwin_premain3>:
  401280:	55                   	push   ebp
  401281:	89 e5                	mov    ebp,esp
  401283:	5d                   	pop    ebp
  401284:	c3                   	ret    
  401285:	90                   	nop
  401286:	90                   	nop
  401287:	90                   	nop
  401288:	90                   	nop
  401289:	90                   	nop
  40128a:	90                   	nop
  40128b:	90                   	nop
  40128c:	90                   	nop
  40128d:	90                   	nop
  40128e:	90                   	nop
  40128f:	90                   	nop

00401290 <___main>:
  401290:	ff 25 7c 40 40 00    	jmp    DWORD PTR ds:0x40407c
  401296:	90                   	nop
  401297:	90                   	nop

00401298 <_pow>:
  401298:	ff 25 a4 40 40 00    	jmp    DWORD PTR ds:0x4040a4
  40129e:	90                   	nop
  40129f:	90                   	nop

004012a0 <_printf>:
  4012a0:	ff 25 a8 40 40 00    	jmp    DWORD PTR ds:0x4040a8
  4012a6:	90                   	nop
  4012a7:	90                   	nop

004012a8 <_atoi>:
  4012a8:	ff 25 88 40 40 00    	jmp    DWORD PTR ds:0x404088
  4012ae:	90                   	nop
  4012af:	90                   	nop

004012b0 <__cygwin_crt0_common@8>:
  4012b0:	55                   	push   ebp
  4012b1:	89 e5                	mov    ebp,esp
  4012b3:	56                   	push   esi
  4012b4:	53                   	push   ebx
  4012b5:	83 ec 10             	sub    esp,0x10
  4012b8:	8b 5d 0c             	mov    ebx,DWORD PTR [ebp+0xc]
  4012bb:	8b 75 08             	mov    esi,DWORD PTR [ebp+0x8]
  4012be:	c7 04 24 08 00 00 00 	mov    DWORD PTR [esp],0x8
  4012c5:	e8 36 04 00 00       	call   401700 <_cygwin_internal>
  4012ca:	85 db                	test   ebx,ebx
  4012cc:	0f 84 c1 01 00 00    	je     401493 <__cygwin_crt0_common@8+0x1e3>
  4012d2:	8b 15 84 40 40 00    	mov    edx,DWORD PTR ds:0x404084
  4012d8:	85 c0                	test   eax,eax
  4012da:	c7 43 04 a8 00 00 00 	mov    DWORD PTR [ebx+0x4],0xa8
  4012e1:	c7 43 08 ef 03 00 00 	mov    DWORD PTR [ebx+0x8],0x3ef
  4012e8:	c7 43 0c 11 00 00 00 	mov    DWORD PTR [ebx+0xc],0x11
  4012ef:	89 53 10             	mov    DWORD PTR [ebx+0x10],edx
  4012f2:	8b 55 00             	mov    edx,DWORD PTR [ebp+0x0]
  4012f5:	c7 83 80 00 00 00 00 	mov    DWORD PTR [ebx+0x80],0x0
  4012fc:	00 00 00 
  4012ff:	c7 83 84 00 00 00 06 	mov    DWORD PTR [ebx+0x84],0x106
  401306:	01 00 00 
  401309:	c7 43 2c 90 17 40 00 	mov    DWORD PTR [ebx+0x2c],0x401790
  401310:	c7 43 30 98 17 40 00 	mov    DWORD PTR [ebx+0x30],0x401798
  401317:	c7 43 14 00 30 40 00 	mov    DWORD PTR [ebx+0x14],0x403000
  40131e:	89 73 28             	mov    DWORD PTR [ebx+0x28],esi
  401321:	c7 43 48 50 12 40 00 	mov    DWORD PTR [ebx+0x48],0x401250
  401328:	c7 43 4c 60 12 40 00 	mov    DWORD PTR [ebx+0x4c],0x401260
  40132f:	c7 43 50 70 12 40 00 	mov    DWORD PTR [ebx+0x50],0x401270
  401336:	c7 43 54 80 12 40 00 	mov    DWORD PTR [ebx+0x54],0x401280
  40133d:	c7 43 24 04 30 40 00 	mov    DWORD PTR [ebx+0x24],0x403004
  401344:	89 13                	mov    DWORD PTR [ebx],edx
  401346:	c7 43 18 e0 16 40 00 	mov    DWORD PTR [ebx+0x18],0x4016e0
  40134d:	c7 43 1c e8 16 40 00 	mov    DWORD PTR [ebx+0x1c],0x4016e8
  401354:	c7 43 20 f0 16 40 00 	mov    DWORD PTR [ebx+0x20],0x4016f0
  40135b:	c7 43 44 f8 16 40 00 	mov    DWORD PTR [ebx+0x44],0x4016f8
  401362:	0f 84 c5 00 00 00    	je     40142d <__cygwin_crt0_common@8+0x17d>
  401368:	8b 50 78             	mov    edx,DWORD PTR [eax+0x78]
  40136b:	85 d2                	test   edx,edx
  40136d:	0f 84 ba 00 00 00    	je     40142d <__cygwin_crt0_common@8+0x17d>
  401373:	8b 35 08 30 40 00    	mov    esi,DWORD PTR ds:0x403008
  401379:	85 f6                	test   esi,esi
  40137b:	0f 85 ac 00 00 00    	jne    40142d <__cygwin_crt0_common@8+0x17d>
  401381:	8b 0d 00 20 40 00    	mov    ecx,DWORD PTR ds:0x402000
  401387:	85 c9                	test   ecx,ecx
  401389:	0f 84 21 02 00 00    	je     4015b0 <__cygwin_crt0_common@8+0x300>
  40138f:	a1 04 20 40 00       	mov    eax,ds:0x402004
  401394:	85 c0                	test   eax,eax
  401396:	0f 84 04 02 00 00    	je     4015a0 <__cygwin_crt0_common@8+0x2f0>
  40139c:	8b 35 08 20 40 00    	mov    esi,DWORD PTR ds:0x402008
  4013a2:	85 f6                	test   esi,esi
  4013a4:	0f 84 e6 01 00 00    	je     401590 <__cygwin_crt0_common@8+0x2e0>
  4013aa:	8b 0d 0c 20 40 00    	mov    ecx,DWORD PTR ds:0x40200c
  4013b0:	85 c9                	test   ecx,ecx
  4013b2:	0f 84 c8 01 00 00    	je     401580 <__cygwin_crt0_common@8+0x2d0>
  4013b8:	a1 10 20 40 00       	mov    eax,ds:0x402010
  4013bd:	85 c0                	test   eax,eax
  4013bf:	0f 84 ab 01 00 00    	je     401570 <__cygwin_crt0_common@8+0x2c0>
  4013c5:	8b 35 14 20 40 00    	mov    esi,DWORD PTR ds:0x402014
  4013cb:	85 f6                	test   esi,esi
  4013cd:	0f 84 8d 01 00 00    	je     401560 <__cygwin_crt0_common@8+0x2b0>
  4013d3:	8b 0d 18 20 40 00    	mov    ecx,DWORD PTR ds:0x402018
  4013d9:	85 c9                	test   ecx,ecx
  4013db:	0f 84 6f 01 00 00    	je     401550 <__cygwin_crt0_common@8+0x2a0>
  4013e1:	a1 1c 20 40 00       	mov    eax,ds:0x40201c
  4013e6:	85 c0                	test   eax,eax
  4013e8:	0f 84 52 01 00 00    	je     401540 <__cygwin_crt0_common@8+0x290>
  4013ee:	a1 00 20 40 00       	mov    eax,ds:0x402000
  4013f3:	89 02                	mov    DWORD PTR [edx],eax
  4013f5:	a1 04 20 40 00       	mov    eax,ds:0x402004
  4013fa:	89 42 04             	mov    DWORD PTR [edx+0x4],eax
  4013fd:	a1 08 20 40 00       	mov    eax,ds:0x402008
  401402:	89 42 08             	mov    DWORD PTR [edx+0x8],eax
  401405:	a1 0c 20 40 00       	mov    eax,ds:0x40200c
  40140a:	89 42 0c             	mov    DWORD PTR [edx+0xc],eax
  40140d:	a1 10 20 40 00       	mov    eax,ds:0x402010
  401412:	89 42 10             	mov    DWORD PTR [edx+0x10],eax
  401415:	a1 14 20 40 00       	mov    eax,ds:0x402014
  40141a:	89 42 14             	mov    DWORD PTR [edx+0x14],eax
  40141d:	a1 18 20 40 00       	mov    eax,ds:0x402018
  401422:	89 42 18             	mov    DWORD PTR [edx+0x18],eax
  401425:	a1 1c 20 40 00       	mov    eax,ds:0x40201c
  40142a:	89 42 1c             	mov    DWORD PTR [edx+0x1c],eax
  40142d:	c7 04 24 00 00 00 00 	mov    DWORD PTR [esp],0x0
  401434:	e8 4f 03 00 00       	call   401788 <_GetModuleHandleA@4>
  401439:	c7 43 34 00 20 40 00 	mov    DWORD PTR [ebx+0x34],0x402000
  401440:	c7 43 38 c0 20 40 00 	mov    DWORD PTR [ebx+0x38],0x4020c0
  401447:	c7 43 3c 00 30 40 00 	mov    DWORD PTR [ebx+0x3c],0x403000
  40144e:	c7 43 40 00 31 40 00 	mov    DWORD PTR [ebx+0x40],0x403100
  401455:	c7 83 94 00 00 00 00 	mov    DWORD PTR [ebx+0x94],0x403000
  40145c:	30 40 00 
  40145f:	89 43 7c             	mov    DWORD PTR [ebx+0x7c],eax
  401462:	83 ec 04             	sub    esp,0x4
  401465:	c7 83 98 00 00 00 00 	mov    DWORD PTR [ebx+0x98],0x403000
  40146c:	30 40 00 
  40146f:	c7 83 9c 00 00 00 00 	mov    DWORD PTR [ebx+0x9c],0x400000
  401476:	00 40 00 
  401479:	c7 04 24 00 00 00 00 	mov    DWORD PTR [esp],0x0
  401480:	e8 8b 02 00 00       	call   401710 <__pei386_runtime_relocator>
  401485:	8d 65 f8             	lea    esp,[ebp-0x8]
  401488:	b8 01 00 00 00       	mov    eax,0x1
  40148d:	5b                   	pop    ebx
  40148e:	5e                   	pop    esi
  40148f:	5d                   	pop    ebp
  401490:	c2 08 00             	ret    0x8
  401493:	8b 15 84 40 40 00    	mov    edx,DWORD PTR ds:0x404084
  401499:	85 c0                	test   eax,eax
  40149b:	8b 88 a4 00 00 00    	mov    ecx,DWORD PTR [eax+0xa4]
  4014a1:	c7 40 04 a8 00 00 00 	mov    DWORD PTR [eax+0x4],0xa8
  4014a8:	c7 40 08 ef 03 00 00 	mov    DWORD PTR [eax+0x8],0x3ef
  4014af:	c7 40 0c 11 00 00 00 	mov    DWORD PTR [eax+0xc],0x11
  4014b6:	89 0a                	mov    DWORD PTR [edx],ecx
  4014b8:	8b 55 00             	mov    edx,DWORD PTR [ebp+0x0]
  4014bb:	c7 80 80 00 00 00 00 	mov    DWORD PTR [eax+0x80],0x0
  4014c2:	00 00 00 
  4014c5:	c7 80 84 00 00 00 06 	mov    DWORD PTR [eax+0x84],0x106
  4014cc:	01 00 00 
  4014cf:	c7 40 2c 90 17 40 00 	mov    DWORD PTR [eax+0x2c],0x401790
  4014d6:	c7 40 30 98 17 40 00 	mov    DWORD PTR [eax+0x30],0x401798
  4014dd:	c7 40 14 00 30 40 00 	mov    DWORD PTR [eax+0x14],0x403000
  4014e4:	89 70 28             	mov    DWORD PTR [eax+0x28],esi
  4014e7:	c7 40 48 50 12 40 00 	mov    DWORD PTR [eax+0x48],0x401250
  4014ee:	c7 40 4c 60 12 40 00 	mov    DWORD PTR [eax+0x4c],0x401260
  4014f5:	c7 40 50 70 12 40 00 	mov    DWORD PTR [eax+0x50],0x401270
  4014fc:	c7 40 54 80 12 40 00 	mov    DWORD PTR [eax+0x54],0x401280
  401503:	c7 40 24 04 30 40 00 	mov    DWORD PTR [eax+0x24],0x403004
  40150a:	89 10                	mov    DWORD PTR [eax],edx
  40150c:	c7 40 18 e0 16 40 00 	mov    DWORD PTR [eax+0x18],0x4016e0
  401513:	c7 40 1c e8 16 40 00 	mov    DWORD PTR [eax+0x1c],0x4016e8
  40151a:	c7 40 20 f0 16 40 00 	mov    DWORD PTR [eax+0x20],0x4016f0
  401521:	c7 40 44 f8 16 40 00 	mov    DWORD PTR [eax+0x44],0x4016f8
  401528:	0f 84 ff fe ff ff    	je     40142d <__cygwin_crt0_common@8+0x17d>
  40152e:	8b 50 78             	mov    edx,DWORD PTR [eax+0x78]
  401531:	89 c3                	mov    ebx,eax
  401533:	85 d2                	test   edx,edx
  401535:	0f 85 38 fe ff ff    	jne    401373 <__cygwin_crt0_common@8+0xc3>
  40153b:	e9 ed fe ff ff       	jmp    40142d <__cygwin_crt0_common@8+0x17d>
  401540:	8b 42 1c             	mov    eax,DWORD PTR [edx+0x1c]
  401543:	a3 1c 20 40 00       	mov    ds:0x40201c,eax
  401548:	e9 a1 fe ff ff       	jmp    4013ee <__cygwin_crt0_common@8+0x13e>
  40154d:	8d 76 00             	lea    esi,[esi+0x0]
  401550:	8b 42 18             	mov    eax,DWORD PTR [edx+0x18]
  401553:	a3 18 20 40 00       	mov    ds:0x402018,eax
  401558:	e9 84 fe ff ff       	jmp    4013e1 <__cygwin_crt0_common@8+0x131>
  40155d:	8d 76 00             	lea    esi,[esi+0x0]
  401560:	8b 42 14             	mov    eax,DWORD PTR [edx+0x14]
  401563:	a3 14 20 40 00       	mov    ds:0x402014,eax
  401568:	e9 66 fe ff ff       	jmp    4013d3 <__cygwin_crt0_common@8+0x123>
  40156d:	8d 76 00             	lea    esi,[esi+0x0]
  401570:	8b 42 10             	mov    eax,DWORD PTR [edx+0x10]
  401573:	a3 10 20 40 00       	mov    ds:0x402010,eax
  401578:	e9 48 fe ff ff       	jmp    4013c5 <__cygwin_crt0_common@8+0x115>
  40157d:	8d 76 00             	lea    esi,[esi+0x0]
  401580:	8b 42 0c             	mov    eax,DWORD PTR [edx+0xc]
  401583:	a3 0c 20 40 00       	mov    ds:0x40200c,eax
  401588:	e9 2b fe ff ff       	jmp    4013b8 <__cygwin_crt0_common@8+0x108>
  40158d:	8d 76 00             	lea    esi,[esi+0x0]
  401590:	8b 42 08             	mov    eax,DWORD PTR [edx+0x8]
  401593:	a3 08 20 40 00       	mov    ds:0x402008,eax
  401598:	e9 0d fe ff ff       	jmp    4013aa <__cygwin_crt0_common@8+0xfa>
  40159d:	8d 76 00             	lea    esi,[esi+0x0]
  4015a0:	8b 42 04             	mov    eax,DWORD PTR [edx+0x4]
  4015a3:	a3 04 20 40 00       	mov    ds:0x402004,eax
  4015a8:	e9 ef fd ff ff       	jmp    40139c <__cygwin_crt0_common@8+0xec>
  4015ad:	8d 76 00             	lea    esi,[esi+0x0]
  4015b0:	8b 02                	mov    eax,DWORD PTR [edx]
  4015b2:	a3 00 20 40 00       	mov    ds:0x402000,eax
  4015b7:	e9 d3 fd ff ff       	jmp    40138f <__cygwin_crt0_common@8+0xdf>
  4015bc:	90                   	nop
  4015bd:	90                   	nop
  4015be:	90                   	nop
  4015bf:	90                   	nop

004015c0 <___dllMain>:
  4015c0:	55                   	push   ebp
  4015c1:	89 e5                	mov    ebp,esp
  4015c3:	83 ec 18             	sub    esp,0x18
  4015c6:	a1 14 30 40 00       	mov    eax,ds:0x403014
  4015cb:	89 44 24 08          	mov    DWORD PTR [esp+0x8],eax
  4015cf:	a1 10 30 40 00       	mov    eax,ds:0x403010
  4015d4:	89 44 24 04          	mov    DWORD PTR [esp+0x4],eax
  4015d8:	a1 0c 30 40 00       	mov    eax,ds:0x40300c
  4015dd:	89 04 24             	mov    DWORD PTR [esp],eax
  4015e0:	e8 3b 01 00 00       	call   401720 <_DllMain@12>
  4015e5:	83 ec 0c             	sub    esp,0xc
  4015e8:	c9                   	leave  
  4015e9:	c3                   	ret    
  4015ea:	8d b6 00 00 00 00    	lea    esi,[esi+0x0]

004015f0 <__cygwin_dll_entry@12>:
  4015f0:	55                   	push   ebp
  4015f1:	89 e5                	mov    ebp,esp
  4015f3:	83 ec 28             	sub    esp,0x28
  4015f6:	8b 45 0c             	mov    eax,DWORD PTR [ebp+0xc]
  4015f9:	8b 55 08             	mov    edx,DWORD PTR [ebp+0x8]
  4015fc:	8b 4d 10             	mov    ecx,DWORD PTR [ebp+0x10]
  4015ff:	83 f8 01             	cmp    eax,0x1
  401602:	74 6f                	je     401673 <__cygwin_dll_entry@12+0x83>
  401604:	72 1a                	jb     401620 <__cygwin_dll_entry@12+0x30>
  401606:	83 f8 02             	cmp    eax,0x2
  401609:	0f 84 a8 00 00 00    	je     4016b7 <__cygwin_dll_entry@12+0xc7>
  40160f:	83 f8 03             	cmp    eax,0x3
  401612:	74 4c                	je     401660 <__cygwin_dll_entry@12+0x70>
  401614:	b8 01 00 00 00       	mov    eax,0x1
  401619:	c9                   	leave  
  40161a:	c2 0c 00             	ret    0xc
  40161d:	8d 76 00             	lea    esi,[esi+0x0]
  401620:	89 4c 24 08          	mov    DWORD PTR [esp+0x8],ecx
  401624:	c7 44 24 04 00 00 00 	mov    DWORD PTR [esp+0x4],0x0
  40162b:	00 
  40162c:	89 14 24             	mov    DWORD PTR [esp],edx
  40162f:	e8 ec 00 00 00       	call   401720 <_DllMain@12>
  401634:	83 ec 0c             	sub    esp,0xc
  401637:	85 c0                	test   eax,eax
  401639:	74 de                	je     401619 <__cygwin_dll_entry@12+0x29>
  40163b:	8b 15 18 30 40 00    	mov    edx,DWORD PTR ds:0x403018
  401641:	89 45 f4             	mov    DWORD PTR [ebp-0xc],eax
  401644:	89 14 24             	mov    DWORD PTR [esp],edx
  401647:	e8 e4 00 00 00       	call   401730 <_cygwin_detach_dll>
  40164c:	8b 45 f4             	mov    eax,DWORD PTR [ebp-0xc]
  40164f:	c7 05 18 30 40 00 ff 	mov    DWORD PTR ds:0x403018,0xffffffff
  401656:	ff ff ff 
  401659:	eb be                	jmp    401619 <__cygwin_dll_entry@12+0x29>
  40165b:	90                   	nop
  40165c:	8d 74 26 00          	lea    esi,[esi+eiz*1+0x0]
  401660:	89 4d 10             	mov    DWORD PTR [ebp+0x10],ecx
  401663:	c7 45 0c 03 00 00 00 	mov    DWORD PTR [ebp+0xc],0x3
  40166a:	89 55 08             	mov    DWORD PTR [ebp+0x8],edx
  40166d:	c9                   	leave  
  40166e:	e9 ad 00 00 00       	jmp    401720 <_DllMain@12>
  401673:	31 c0                	xor    eax,eax
  401675:	85 c9                	test   ecx,ecx
  401677:	0f 94 c0             	sete   al
  40167a:	c7 44 24 04 c0 15 40 	mov    DWORD PTR [esp+0x4],0x4015c0
  401681:	00 
  401682:	89 14 24             	mov    DWORD PTR [esp],edx
  401685:	89 15 0c 30 40 00    	mov    DWORD PTR ds:0x40300c,edx
  40168b:	c7 05 10 30 40 00 01 	mov    DWORD PTR ds:0x403010,0x1
  401692:	00 00 00 
  401695:	89 0d 14 30 40 00    	mov    DWORD PTR ds:0x403014,ecx
  40169b:	a3 08 30 40 00       	mov    ds:0x403008,eax
  4016a0:	e8 9b 00 00 00       	call   401740 <_cygwin_attach_dll>
  4016a5:	83 f8 ff             	cmp    eax,0xffffffff
  4016a8:	a3 18 30 40 00       	mov    ds:0x403018,eax
  4016ad:	0f 95 c0             	setne  al
  4016b0:	0f b6 c0             	movzx  eax,al
  4016b3:	c9                   	leave  
  4016b4:	c2 0c 00             	ret    0xc
  4016b7:	89 4d 10             	mov    DWORD PTR [ebp+0x10],ecx
  4016ba:	c7 45 0c 02 00 00 00 	mov    DWORD PTR [ebp+0xc],0x2
  4016c1:	89 55 08             	mov    DWORD PTR [ebp+0x8],edx
  4016c4:	c9                   	leave  
  4016c5:	e9 56 00 00 00       	jmp    401720 <_DllMain@12>
  4016ca:	8d b6 00 00 00 00    	lea    esi,[esi+0x0]

004016d0 <__cygwin_noncygwin_dll_entry@12>:
  4016d0:	55                   	push   ebp
  4016d1:	89 e5                	mov    ebp,esp
  4016d3:	83 ec 08             	sub    esp,0x8
  4016d6:	c9                   	leave  
  4016d7:	e9 14 ff ff ff       	jmp    4015f0 <__cygwin_dll_entry@12>
  4016dc:	90                   	nop
  4016dd:	90                   	nop
  4016de:	90                   	nop
  4016df:	90                   	nop

004016e0 <_malloc>:
  4016e0:	ff 25 a0 40 40 00    	jmp    DWORD PTR ds:0x4040a0
  4016e6:	90                   	nop
  4016e7:	90                   	nop

004016e8 <_free>:
  4016e8:	ff 25 9c 40 40 00    	jmp    DWORD PTR ds:0x40409c
  4016ee:	90                   	nop
  4016ef:	90                   	nop

004016f0 <_realloc>:
  4016f0:	ff 25 ac 40 40 00    	jmp    DWORD PTR ds:0x4040ac
  4016f6:	90                   	nop
  4016f7:	90                   	nop

004016f8 <_calloc>:
  4016f8:	ff 25 8c 40 40 00    	jmp    DWORD PTR ds:0x40408c
  4016fe:	90                   	nop
  4016ff:	90                   	nop

00401700 <_cygwin_internal>:
  401700:	ff 25 94 40 40 00    	jmp    DWORD PTR ds:0x404094
  401706:	90                   	nop
  401707:	90                   	nop
  401708:	66 90                	xchg   ax,ax
  40170a:	66 90                	xchg   ax,ax
  40170c:	66 90                	xchg   ax,ax
  40170e:	66 90                	xchg   ax,ax

00401710 <__pei386_runtime_relocator>:
  401710:	55                   	push   ebp
  401711:	89 e5                	mov    ebp,esp
  401713:	5d                   	pop    ebp
  401714:	c3                   	ret    
  401715:	90                   	nop
  401716:	90                   	nop
  401717:	90                   	nop
  401718:	90                   	nop
  401719:	90                   	nop
  40171a:	90                   	nop
  40171b:	90                   	nop
  40171c:	90                   	nop
  40171d:	90                   	nop
  40171e:	90                   	nop
  40171f:	90                   	nop

00401720 <_DllMain@12>:
  401720:	55                   	push   ebp
  401721:	b8 01 00 00 00       	mov    eax,0x1
  401726:	89 e5                	mov    ebp,esp
  401728:	5d                   	pop    ebp
  401729:	c2 0c 00             	ret    0xc
  40172c:	90                   	nop
  40172d:	90                   	nop
  40172e:	90                   	nop
  40172f:	90                   	nop

00401730 <_cygwin_detach_dll>:
  401730:	ff 25 90 40 40 00    	jmp    DWORD PTR ds:0x404090
  401736:	90                   	nop
  401737:	90                   	nop
  401738:	66 90                	xchg   ax,ax
  40173a:	66 90                	xchg   ax,ax
  40173c:	66 90                	xchg   ax,ax
  40173e:	66 90                	xchg   ax,ax

00401740 <_cygwin_attach_dll>:
  401740:	55                   	push   ebp
  401741:	89 e5                	mov    ebp,esp
  401743:	53                   	push   ebx
  401744:	83 ec 14             	sub    esp,0x14
  401747:	8b 45 0c             	mov    eax,DWORD PTR [ebp+0xc]
  40174a:	8b 5d 08             	mov    ebx,DWORD PTR [ebp+0x8]
  40174d:	c7 44 24 04 20 30 40 	mov    DWORD PTR [esp+0x4],0x403020
  401754:	00 
  401755:	89 04 24             	mov    DWORD PTR [esp],eax
  401758:	e8 53 fb ff ff       	call   4012b0 <__cygwin_crt0_common@8>
  40175d:	89 5d 08             	mov    DWORD PTR [ebp+0x8],ebx
  401760:	8b 5d fc             	mov    ebx,DWORD PTR [ebp-0x4]
  401763:	c7 45 0c 20 30 40 00 	mov    DWORD PTR [ebp+0xc],0x403020
  40176a:	83 ec 08             	sub    esp,0x8
  40176d:	c9                   	leave  
  40176e:	e9 0d 00 00 00       	jmp    401780 <_dll_dllcrt0>
  401773:	90                   	nop
  401774:	90                   	nop
  401775:	90                   	nop
  401776:	90                   	nop
  401777:	90                   	nop
  401778:	90                   	nop
  401779:	90                   	nop
  40177a:	90                   	nop
  40177b:	90                   	nop
  40177c:	90                   	nop
  40177d:	90                   	nop
  40177e:	90                   	nop
  40177f:	90                   	nop

00401780 <_dll_dllcrt0>:
  401780:	ff 25 98 40 40 00    	jmp    DWORD PTR ds:0x404098
  401786:	90                   	nop
  401787:	90                   	nop

00401788 <_GetModuleHandleA@4>:
  401788:	ff 25 b4 40 40 00    	jmp    DWORD PTR ds:0x4040b4
  40178e:	90                   	nop
  40178f:	90                   	nop

00401790 <__CTOR_LIST__>:
  401790:	ff                   	(bad)  
  401791:	ff                   	(bad)  
  401792:	ff                   	(bad)  
  401793:	ff 00                	inc    DWORD PTR [eax]
  401795:	00 00                	add    BYTE PTR [eax],al
	...

00401798 <__DTOR_LIST__>:
  401798:	ff                   	(bad)  
  401799:	ff                   	(bad)  
  40179a:	ff                   	(bad)  
  40179b:	ff 00                	inc    DWORD PTR [eax]
  40179d:	00 00                	add    BYTE PTR [eax],al
	...

Disassembly of section .data:

00402000 <___cygwin_cxx_malloc>:
	...

00402020 <.data>:
  402020:	49                   	dec    ecx
  402021:	6e                   	outs   dx,BYTE PTR ds:[esi]
  402022:	76 61                	jbe    402085 <.data+0x65>
  402024:	6c                   	ins    BYTE PTR es:[edi],dx
  402025:	69 64 20 69 6e 70 75 	imul   esp,DWORD PTR [eax+eiz*1+0x69],0x7475706e
  40202c:	74 
  40202d:	3a 20                	cmp    ah,BYTE PTR [eax]
  40202f:	49                   	dec    ecx
  402030:	6e                   	outs   dx,BYTE PTR ds:[esi]
  402031:	70 72                	jo     4020a5 <.data+0x85>
  402033:	6f                   	outs   dx,DWORD PTR ds:[esi]
  402034:	70 65                	jo     40209b <.data+0x7b>
  402036:	72 20                	jb     402058 <.data+0x38>
  402038:	61                   	popa   
  402039:	72 67                	jb     4020a2 <.data+0x82>
  40203b:	75 6d                	jne    4020aa <.data+0x8a>
  40203d:	65 6e                	outs   dx,BYTE PTR gs:[esi]
  40203f:	74 20                	je     402061 <.data+0x41>
  402041:	63 6f 75             	arpl   WORD PTR [edi+0x75],bp
  402044:	6e                   	outs   dx,BYTE PTR ds:[esi]
  402045:	74 20                	je     402067 <.data+0x47>
  402047:	0a 00                	or     al,BYTE PTR [eax]
  402049:	20 20                	and    BYTE PTR [eax],ah
  40204b:	20 20                	and    BYTE PTR [eax],ah
  40204d:	3c 63                	cmp    al,0x63
  40204f:	6f                   	outs   dx,DWORD PTR ds:[esi]
  402050:	6d                   	ins    DWORD PTR es:[edi],dx
  402051:	6d                   	ins    DWORD PTR es:[edi],dx
  402052:	61                   	popa   
  402053:	6e                   	outs   dx,BYTE PTR ds:[esi]
  402054:	64 3e 20 3c 6e       	fs and BYTE PTR ds:fs:[esi+ebp*2],bh
  402059:	3e 20 3c 6d 3e 20 0a 	and    BYTE PTR ds:[ebp*2+0xa203e],bh
  402060:	00 
  402061:	00 00                	add    BYTE PTR [eax],al
  402063:	00 49 6e             	add    BYTE PTR [ecx+0x6e],cl
  402066:	76 61                	jbe    4020c9 <__data_end__+0x9>
  402068:	6c                   	ins    BYTE PTR es:[edi],dx
  402069:	69 64 20 69 6e 70 75 	imul   esp,DWORD PTR [eax+eiz*1+0x69],0x7475706e
  402070:	74 
  402071:	3a 20                	cmp    ah,BYTE PTR [eax]
  402073:	4e                   	dec    esi
  402074:	20 6d 75             	and    BYTE PTR [ebp+0x75],ch
  402077:	73 74                	jae    4020ed <__data_end__+0x2d>
  402079:	20 62 65             	and    BYTE PTR [edx+0x65],ah
  40207c:	20 61 20             	and    BYTE PTR [ecx+0x20],ah
  40207f:	76 61                	jbe    4020e2 <__data_end__+0x22>
  402081:	6c                   	ins    BYTE PTR es:[edi],dx
  402082:	75 65                	jne    4020e9 <__data_end__+0x29>
  402084:	20 62 65             	and    BYTE PTR [edx+0x65],ah
  402087:	74 77                	je     402100 <__data_end__+0x40>
  402089:	65 65 6e             	gs outs dx,BYTE PTR gs:[esi]
  40208c:	20 31                	and    BYTE PTR [ecx],dh
  40208e:	20 74 68 72          	and    BYTE PTR [eax+ebp*2+0x72],dh
  402092:	6f                   	outs   dx,DWORD PTR ds:[esi]
  402093:	75 67                	jne    4020fc <__data_end__+0x3c>
  402095:	68 20 39 20 0a       	push   0xa203920
  40209a:	00 25 64 0a 00 4e    	add    BYTE PTR ds:0x4e000a64,ah
  4020a0:	6f                   	outs   dx,DWORD PTR ds:[esi]
  4020a1:	20 73 6f             	and    BYTE PTR [ebx+0x6f],dh
  4020a4:	6c                   	ins    BYTE PTR es:[edi],dx
  4020a5:	75 74                	jne    40211b <__data_end__+0x5b>
  4020a7:	69 6f 6e 20 66 6f 75 	imul   ebp,DWORD PTR [edi+0x6e],0x756f6620
  4020ae:	6e                   	outs   dx,BYTE PTR ds:[esi]
  4020af:	64 0a 00             	or     al,BYTE PTR fs:[eax]
	...
  4020be:	24 40                	and    al,0x40

Disassembly of section .bss:

00403000 <__bss_start__>:
  403000:	00 00                	add    BYTE PTR [eax],al
	...

00403004 <__fmode>:
  403004:	00 00                	add    BYTE PTR [eax],al
	...

00403008 <___dynamically_loaded>:
  403008:	00 00                	add    BYTE PTR [eax],al
	...

0040300c <_storedHandle>:
  40300c:	00 00                	add    BYTE PTR [eax],al
	...

00403010 <_storedReason>:
  403010:	00 00                	add    BYTE PTR [eax],al
	...

00403014 <_storedPtr>:
  403014:	00 00                	add    BYTE PTR [eax],al
	...

00403018 <_dll_index>:
  403018:	00 00                	add    BYTE PTR [eax],al
	...

0040301c <.bss>:
  40301c:	00 00                	add    BYTE PTR [eax],al
	...

00403020 <_u.8984>:
	...

004030e0 <.bss>:
	...

Disassembly of section .idata:

00404000 <__head_cygwin1_dll>:
  404000:	3c 40                	cmp    al,0x40
	...
  40400a:	00 00                	add    BYTE PTR [eax],al
  40400c:	b0 41                	mov    al,0x41
  40400e:	00 00                	add    BYTE PTR [eax],al
  404010:	7c 40                	jl     404052 <.idata$4+0x2>
	...

00404014 <__head_lib32_libkernel32_a>:
  404014:	74 40                	je     404056 <.idata$4+0x2>
	...
  40401e:	00 00                	add    BYTE PTR [eax],al
  404020:	c0 41 00 00          	rol    BYTE PTR [ecx+0x0],0x0
  404024:	b4 40                	mov    ah,0x40
	...

0040403c <.idata$4>:
  40403c:	bc 40 00 00 c8       	mov    esp,0xc8000040

00404040 <.idata$4>:
  404040:	c8 40 00 00          	enter  0x40,0x0

00404044 <.idata$4>:
  404044:	d8 40 00             	fadd   DWORD PTR [eax+0x0]
	...

00404048 <.idata$4>:
  404048:	e8 40 00 00 f0       	call   f040408d <.debug_ranges+0xefff308d>

0040404c <.idata$4>:
  40404c:	f0 40                	lock inc eax
	...

00404050 <.idata$4>:
  404050:	fc                   	cld    
  404051:	40                   	inc    eax
	...

00404054 <.idata$4>:
  404054:	10 41 00             	adc    BYTE PTR [ecx+0x0],al
	...

00404058 <.idata$4>:
  404058:	24 41                	and    al,0x41
	...

0040405c <.idata$4>:
  40405c:	34 41                	xor    al,0x41
	...

00404060 <.idata$4>:
  404060:	3c 41                	cmp    al,0x41
	...

00404064 <.idata$4>:
  404064:	48                   	dec    eax
  404065:	41                   	inc    ecx
	...

00404068 <.idata$4>:
  404068:	50                   	push   eax
  404069:	41                   	inc    ecx
	...

0040406c <.idata$4>:
  40406c:	5c                   	pop    esp
  40406d:	41                   	inc    ecx
	...

00404070 <.idata$4>:
  404070:	00 00                	add    BYTE PTR [eax],al
	...

00404074 <hname>:
  404074:	68 41 00 00 00       	push   0x41

00404078 <.idata$4>:
  404078:	00 00                	add    BYTE PTR [eax],al
	...

0040407c <__IAT_start__>:
  40407c:	bc 40 00 00 c8       	mov    esp,0xc8000040

00404080 <__imp___dll_crt0@0>:
  404080:	c8 40 00 00          	enter  0x40,0x0

00404084 <__imp___impure_ptr>:
  404084:	d8 40 00             	fadd   DWORD PTR [eax+0x0]
	...

00404088 <__imp__atoi>:
  404088:	e8 40 00 00 f0       	call   f04040cd <.debug_ranges+0xefff30cd>

0040408c <__imp__calloc>:
  40408c:	f0 40                	lock inc eax
	...

00404090 <__imp__cygwin_detach_dll>:
  404090:	fc                   	cld    
  404091:	40                   	inc    eax
	...

00404094 <__imp__cygwin_internal>:
  404094:	10 41 00             	adc    BYTE PTR [ecx+0x0],al
	...

00404098 <__imp__dll_dllcrt0>:
  404098:	24 41                	and    al,0x41
	...

0040409c <__imp__free>:
  40409c:	34 41                	xor    al,0x41
	...

004040a0 <__imp__malloc>:
  4040a0:	3c 41                	cmp    al,0x41
	...

004040a4 <__imp__pow>:
  4040a4:	48                   	dec    eax
  4040a5:	41                   	inc    ecx
	...

004040a8 <__imp__printf>:
  4040a8:	50                   	push   eax
  4040a9:	41                   	inc    ecx
	...

004040ac <__imp__realloc>:
  4040ac:	5c                   	pop    esp
  4040ad:	41                   	inc    ecx
	...

004040b0 <.idata$5>:
  4040b0:	00 00                	add    BYTE PTR [eax],al
	...

004040b4 <__imp__GetModuleHandleA@4>:
  4040b4:	68 41 00 00 00       	push   0x41

004040b8 <.idata$5>:
  4040b8:	00 00                	add    BYTE PTR [eax],al
	...

004040bc <__IAT_end__>:
  4040bc:	3d 00 5f 5f 6d       	cmp    eax,0x6d5f5f00
  4040c1:	61                   	popa   
  4040c2:	69 6e 00 00 00 00 b8 	imul   ebp,DWORD PTR [esi+0x0],0xb8000000

004040c8 <.idata$6>:
  4040c8:	b8 00 5f 64 6c       	mov    eax,0x6c645f00
  4040cd:	6c                   	ins    BYTE PTR es:[edi],dx
  4040ce:	5f                   	pop    edi
  4040cf:	63 72 74             	arpl   WORD PTR [edx+0x74],si
  4040d2:	30 40 30             	xor    BYTE PTR [eax+0x30],al
  4040d5:	00 00                	add    BYTE PTR [eax],al
	...

004040d8 <__nm___impure_ptr>:
  4040d8:	71 01                	jno    4040db <__nm___impure_ptr+0x3>
  4040da:	5f                   	pop    edi
  4040db:	69 6d 70 75 72 65 5f 	imul   ebp,DWORD PTR [ebp+0x70],0x5f657275
  4040e2:	70 74                	jo     404158 <.idata$6+0x8>
  4040e4:	72 00                	jb     4040e6 <__nm___impure_ptr+0xe>
	...

004040e8 <.idata$6>:
  4040e8:	cd 02                	int    0x2
  4040ea:	61                   	popa   
  4040eb:	74 6f                	je     40415c <.idata$6>
  4040ed:	69 00 00 df 02 63    	imul   eax,DWORD PTR [eax],0x6302df00

004040f0 <.idata$6>:
  4040f0:	df 02                	fild   WORD PTR [edx]
  4040f2:	63 61 6c             	arpl   WORD PTR [ecx+0x6c],sp
  4040f5:	6c                   	ins    BYTE PTR es:[edi],dx
  4040f6:	6f                   	outs   dx,DWORD PTR ds:[esi]
  4040f7:	63 00                	arpl   WORD PTR [eax],ax
  4040f9:	00 00                	add    BYTE PTR [eax],al
	...

004040fc <.idata$6>:
  4040fc:	44                   	inc    esp
  4040fd:	03 63 79             	add    esp,DWORD PTR [ebx+0x79]
  404100:	67 77 69             	addr16 ja 40416c <.idata$6+0x4>
  404103:	6e                   	outs   dx,BYTE PTR ds:[esi]
  404104:	5f                   	pop    edi
  404105:	64                   	fs
  404106:	65                   	gs
  404107:	74 61                	je     40416a <.idata$6+0x2>
  404109:	63 68 5f             	arpl   WORD PTR [eax+0x5f],bp
  40410c:	64                   	fs
  40410d:	6c                   	ins    BYTE PTR es:[edi],dx
  40410e:	6c                   	ins    BYTE PTR es:[edi],dx
	...

00404110 <.idata$6>:
  404110:	46                   	inc    esi
  404111:	03 63 79             	add    esp,DWORD PTR [ebx+0x79]
  404114:	67 77 69             	addr16 ja 404180 <.idata$7>
  404117:	6e                   	outs   dx,BYTE PTR ds:[esi]
  404118:	5f                   	pop    edi
  404119:	69 6e 74 65 72 6e 61 	imul   ebp,DWORD PTR [esi+0x74],0x616e7265
  404120:	6c                   	ins    BYTE PTR es:[edi],dx
  404121:	00 00                	add    BYTE PTR [eax],al
	...

00404124 <.idata$6>:
  404124:	5b                   	pop    ebx
  404125:	03 64 6c 6c          	add    esp,DWORD PTR [esp+ebp*2+0x6c]
  404129:	5f                   	pop    edi
  40412a:	64                   	fs
  40412b:	6c                   	ins    BYTE PTR es:[edi],dx
  40412c:	6c                   	ins    BYTE PTR es:[edi],dx
  40412d:	63 72 74             	arpl   WORD PTR [edx+0x74],si
  404130:	30 00                	xor    BYTE PTR [eax],al
	...

00404134 <.idata$6>:
  404134:	e9 03 66 72 65       	jmp    65b2a73c <.debug_ranges+0x6571973c>
  404139:	65 00 00             	add    BYTE PTR gs:[eax],al

0040413c <.idata$6>:
  40413c:	03 05 6d 61 6c 6c    	add    eax,DWORD PTR ds:0x6c6c616d
  404142:	6f                   	outs   dx,DWORD PTR ds:[esi]
  404143:	63 00                	arpl   WORD PTR [eax],ax
  404145:	00 00                	add    BYTE PTR [eax],al
	...

00404148 <.idata$6>:
  404148:	6b 05 70 6f 77 00 00 	imul   eax,DWORD PTR ds:0x776f70,0x0
	...

00404150 <.idata$6>:
  404150:	71 05                	jno    404157 <.idata$6+0x7>
  404152:	70 72                	jo     4041c6 <__lib32_libkernel32_a_iname+0x6>
  404154:	69 6e 74 66 00 00 00 	imul   ebp,DWORD PTR [esi+0x74],0x66
	...

0040415c <.idata$6>:
  40415c:	f1                   	icebp  
  40415d:	05 72 65 61 6c       	add    eax,0x6c616572
  404162:	6c                   	ins    BYTE PTR es:[edi],dx
  404163:	6f                   	outs   dx,DWORD PTR ds:[esi]
  404164:	63 00                	arpl   WORD PTR [eax],ax
	...

00404168 <.idata$6>:
  404168:	fe 01                	inc    BYTE PTR [ecx]
  40416a:	47                   	inc    edi
  40416b:	65                   	gs
  40416c:	74 4d                	je     4041bb <_cygwin1_dll_iname+0xb>
  40416e:	6f                   	outs   dx,DWORD PTR ds:[esi]
  40416f:	64                   	fs
  404170:	75 6c                	jne    4041de <__lib32_libkernel32_a_iname+0x1e>
  404172:	65                   	gs
  404173:	48                   	dec    eax
  404174:	61                   	popa   
  404175:	6e                   	outs   dx,BYTE PTR ds:[esi]
  404176:	64                   	fs
  404177:	6c                   	ins    BYTE PTR es:[edi],dx
  404178:	65                   	gs
  404179:	41                   	inc    ecx
	...

0040417c <.idata$7>:
  40417c:	00 40 00             	add    BYTE PTR [eax+0x0],al
	...

00404180 <.idata$7>:
  404180:	00 40 00             	add    BYTE PTR [eax+0x0],al
	...

00404184 <.idata$7>:
  404184:	00 40 00             	add    BYTE PTR [eax+0x0],al
	...

00404188 <.idata$7>:
  404188:	00 40 00             	add    BYTE PTR [eax+0x0],al
	...

0040418c <.idata$7>:
  40418c:	00 40 00             	add    BYTE PTR [eax+0x0],al
	...

00404190 <.idata$7>:
  404190:	00 40 00             	add    BYTE PTR [eax+0x0],al
	...

00404194 <.idata$7>:
  404194:	00 40 00             	add    BYTE PTR [eax+0x0],al
	...

00404198 <.idata$7>:
  404198:	00 40 00             	add    BYTE PTR [eax+0x0],al
	...

0040419c <.idata$7>:
  40419c:	00 40 00             	add    BYTE PTR [eax+0x0],al
	...

004041a0 <.idata$7>:
  4041a0:	00 40 00             	add    BYTE PTR [eax+0x0],al
	...

004041a4 <.idata$7>:
  4041a4:	00 40 00             	add    BYTE PTR [eax+0x0],al
	...

004041a8 <.idata$7>:
  4041a8:	00 40 00             	add    BYTE PTR [eax+0x0],al
	...

004041ac <.idata$7>:
  4041ac:	00 40 00             	add    BYTE PTR [eax+0x0],al
	...

004041b0 <_cygwin1_dll_iname>:
  4041b0:	63 79 67             	arpl   WORD PTR [ecx+0x67],di
  4041b3:	77 69                	ja     40421e <__lib32_libkernel32_a_iname+0x5e>
  4041b5:	6e                   	outs   dx,BYTE PTR ds:[esi]
  4041b6:	31 2e                	xor    DWORD PTR [esi],ebp
  4041b8:	64                   	fs
  4041b9:	6c                   	ins    BYTE PTR es:[edi],dx
  4041ba:	6c                   	ins    BYTE PTR es:[edi],dx
	...

004041bc <.idata$7>:
  4041bc:	14 40                	adc    al,0x40
	...

004041c0 <__lib32_libkernel32_a_iname>:
  4041c0:	4b                   	dec    ebx
  4041c1:	45                   	inc    ebp
  4041c2:	52                   	push   edx
  4041c3:	4e                   	dec    esi
  4041c4:	45                   	inc    ebp
  4041c5:	4c                   	dec    esp
  4041c6:	33 32                	xor    esi,DWORD PTR [edx]
  4041c8:	2e                   	cs
  4041c9:	64                   	fs
  4041ca:	6c                   	ins    BYTE PTR es:[edi],dx
  4041cb:	6c                   	ins    BYTE PTR es:[edi],dx
  4041cc:	00 00                	add    BYTE PTR [eax],al
	...

Disassembly of section .debug_aranges:

00405000 <.debug_aranges>:
  405000:	1c 00                	sbb    al,0x0
  405002:	00 00                	add    BYTE PTR [eax],al
  405004:	02 00                	add    al,BYTE PTR [eax]
  405006:	00 00                	add    BYTE PTR [eax],al
  405008:	00 00                	add    BYTE PTR [eax],al
  40500a:	04 00                	add    al,0x0
  40500c:	00 00                	add    BYTE PTR [eax],al
  40500e:	00 00                	add    BYTE PTR [eax],al
  405010:	00 10                	add    BYTE PTR [eax],dl
  405012:	40                   	inc    eax
  405013:	00 87 00 00 00 00    	add    BYTE PTR [edi+0x0],al
  405019:	00 00                	add    BYTE PTR [eax],al
  40501b:	00 00                	add    BYTE PTR [eax],al
  40501d:	00 00                	add    BYTE PTR [eax],al
	...

00405020 <.debug_aranges>:
  405020:	1c 00                	sbb    al,0x0
  405022:	00 00                	add    BYTE PTR [eax],al
  405024:	02 00                	add    al,BYTE PTR [eax]
  405026:	51                   	push   ecx
  405027:	01 00                	add    DWORD PTR [eax],eax
  405029:	00 04 00             	add    BYTE PTR [eax+eax*1],al
  40502c:	00 00                	add    BYTE PTR [eax],al
  40502e:	00 00                	add    BYTE PTR [eax],al
  405030:	20 12                	and    BYTE PTR [edx],dl
  405032:	40                   	inc    eax
  405033:	00 22                	add    BYTE PTR [edx],ah
	...

00405040 <.debug_aranges>:
  405040:	1c 00                	sbb    al,0x0
  405042:	00 00                	add    BYTE PTR [eax],al
  405044:	02 00                	add    al,BYTE PTR [eax]
  405046:	f4                   	hlt    
  405047:	02 00                	add    al,BYTE PTR [eax]
  405049:	00 04 00             	add    BYTE PTR [eax+eax*1],al
  40504c:	00 00                	add    BYTE PTR [eax],al
  40504e:	00 00                	add    BYTE PTR [eax],al
  405050:	50                   	push   eax
  405051:	12 40 00             	adc    al,BYTE PTR [eax+0x0]
  405054:	05 00 00 00 00       	add    eax,0x0
  405059:	00 00                	add    BYTE PTR [eax],al
  40505b:	00 00                	add    BYTE PTR [eax],al
  40505d:	00 00                	add    BYTE PTR [eax],al
	...

00405060 <.debug_aranges>:
  405060:	1c 00                	sbb    al,0x0
  405062:	00 00                	add    BYTE PTR [eax],al
  405064:	02 00                	add    al,BYTE PTR [eax]
  405066:	d6                   	(bad)  
  405067:	03 00                	add    eax,DWORD PTR [eax]
  405069:	00 04 00             	add    BYTE PTR [eax+eax*1],al
  40506c:	00 00                	add    BYTE PTR [eax],al
  40506e:	00 00                	add    BYTE PTR [eax],al
  405070:	60                   	pusha  
  405071:	12 40 00             	adc    al,BYTE PTR [eax+0x0]
  405074:	05 00 00 00 00       	add    eax,0x0
  405079:	00 00                	add    BYTE PTR [eax],al
  40507b:	00 00                	add    BYTE PTR [eax],al
  40507d:	00 00                	add    BYTE PTR [eax],al
	...

00405080 <.debug_aranges>:
  405080:	1c 00                	sbb    al,0x0
  405082:	00 00                	add    BYTE PTR [eax],al
  405084:	02 00                	add    al,BYTE PTR [eax]
  405086:	b8 04 00 00 04       	mov    eax,0x4000004
  40508b:	00 00                	add    BYTE PTR [eax],al
  40508d:	00 00                	add    BYTE PTR [eax],al
  40508f:	00 70 12             	add    BYTE PTR [eax+0x12],dh
  405092:	40                   	inc    eax
  405093:	00 05 00 00 00 00    	add    BYTE PTR ds:0x0,al
  405099:	00 00                	add    BYTE PTR [eax],al
  40509b:	00 00                	add    BYTE PTR [eax],al
  40509d:	00 00                	add    BYTE PTR [eax],al
	...

004050a0 <.debug_aranges>:
  4050a0:	1c 00                	sbb    al,0x0
  4050a2:	00 00                	add    BYTE PTR [eax],al
  4050a4:	02 00                	add    al,BYTE PTR [eax]
  4050a6:	9a 05 00 00 04 00 00 	call   0x0:0x4000005
  4050ad:	00 00                	add    BYTE PTR [eax],al
  4050af:	00 80 12 40 00 05    	add    BYTE PTR [eax+0x5004012],al
	...

004050c0 <.debug_aranges>:
  4050c0:	1c 00                	sbb    al,0x0
  4050c2:	00 00                	add    BYTE PTR [eax],al
  4050c4:	02 00                	add    al,BYTE PTR [eax]
  4050c6:	7c 06                	jl     4050ce <.debug_aranges+0xe>
  4050c8:	00 00                	add    BYTE PTR [eax],al
  4050ca:	04 00                	add    al,0x0
  4050cc:	00 00                	add    BYTE PTR [eax],al
  4050ce:	00 00                	add    BYTE PTR [eax],al
  4050d0:	b0 12                	mov    al,0x12
  4050d2:	40                   	inc    eax
  4050d3:	00 0c 03             	add    BYTE PTR [ebx+eax*1],cl
	...

004050e0 <.debug_aranges>:
  4050e0:	1c 00                	sbb    al,0x0
  4050e2:	00 00                	add    BYTE PTR [eax],al
  4050e4:	02 00                	add    al,BYTE PTR [eax]
  4050e6:	bb 24 00 00 04       	mov    ebx,0x4000024
  4050eb:	00 00                	add    BYTE PTR [eax],al
  4050ed:	00 00                	add    BYTE PTR [eax],al
  4050ef:	00 c0                	add    al,al
  4050f1:	15 40 00 1c 01       	adc    eax,0x11c0040
	...

00405100 <.debug_aranges>:
  405100:	1c 00                	sbb    al,0x0
  405102:	00 00                	add    BYTE PTR [eax],al
  405104:	02 00                	add    al,BYTE PTR [eax]
  405106:	95                   	xchg   ebp,eax
  405107:	2a 00                	sub    al,BYTE PTR [eax]
  405109:	00 04 00             	add    BYTE PTR [eax+eax*1],al
  40510c:	00 00                	add    BYTE PTR [eax],al
  40510e:	00 00                	add    BYTE PTR [eax],al
  405110:	10 17                	adc    BYTE PTR [edi],dl
  405112:	40                   	inc    eax
  405113:	00 05 00 00 00 00    	add    BYTE PTR ds:0x0,al
  405119:	00 00                	add    BYTE PTR [eax],al
  40511b:	00 00                	add    BYTE PTR [eax],al
  40511d:	00 00                	add    BYTE PTR [eax],al
	...

00405120 <.debug_aranges>:
  405120:	1c 00                	sbb    al,0x0
  405122:	00 00                	add    BYTE PTR [eax],al
  405124:	02 00                	add    al,BYTE PTR [eax]
  405126:	4c                   	dec    esp
  405127:	2b 00                	sub    eax,DWORD PTR [eax]
  405129:	00 04 00             	add    BYTE PTR [eax+eax*1],al
  40512c:	00 00                	add    BYTE PTR [eax],al
  40512e:	00 00                	add    BYTE PTR [eax],al
  405130:	20 17                	and    BYTE PTR [edi],dl
  405132:	40                   	inc    eax
  405133:	00 0c 00             	add    BYTE PTR [eax+eax*1],cl
	...

00405140 <.debug_aranges>:
  405140:	1c 00                	sbb    al,0x0
  405142:	00 00                	add    BYTE PTR [eax],al
  405144:	02 00                	add    al,BYTE PTR [eax]
  405146:	63 2d 00 00 04 00    	arpl   WORD PTR ds:0x40000,bp
  40514c:	00 00                	add    BYTE PTR [eax],al
  40514e:	00 00                	add    BYTE PTR [eax],al
  405150:	40                   	inc    eax
  405151:	17                   	pop    ss
  405152:	40                   	inc    eax
  405153:	00 33                	add    BYTE PTR [ebx],dh
	...

Disassembly of section .debug_pubnames:

00406000 <.debug_pubnames>:
  406000:	21 00                	and    DWORD PTR [eax],eax
  406002:	00 00                	add    BYTE PTR [eax],al
  406004:	02 00                	add    al,BYTE PTR [eax]
  406006:	00 00                	add    BYTE PTR [eax],al
  406008:	00 00                	add    BYTE PTR [eax],al
  40600a:	51                   	push   ecx
  40600b:	01 00                	add    DWORD PTR [eax],eax
  40600d:	00 31                	add    BYTE PTR [ecx],dh
  40600f:	01 00                	add    DWORD PTR [eax],eax
  406011:	00 6d 61             	add    BYTE PTR [ebp+0x61],ch
  406014:	69 6e 43 52 54 53 74 	imul   ebp,DWORD PTR [esi+0x43],0x74535452
  40601b:	61                   	popa   
  40601c:	72 74                	jb     406092 <.debug_pubnames+0x25>
  40601e:	75 70                	jne    406090 <.debug_pubnames+0x23>
  406020:	00 00                	add    BYTE PTR [eax],al
  406022:	00 00                	add    BYTE PTR [eax],al
	...

00406025 <.debug_pubnames>:
  406025:	1e                   	push   ds
  406026:	00 00                	add    BYTE PTR [eax],al
  406028:	00 02                	add    BYTE PTR [edx],al
  40602a:	00 51 01             	add    BYTE PTR [ecx+0x1],dl
  40602d:	00 00                	add    BYTE PTR [eax],al
  40602f:	a3 01 00 00 78       	mov    ds:0x78000001,eax
  406034:	01 00                	add    DWORD PTR [eax],eax
  406036:	00 63 79             	add    BYTE PTR [ebx+0x79],ah
  406039:	67 77 69             	addr16 ja 4060a5 <.debug_pubnames+0x12>
  40603c:	6e                   	outs   dx,BYTE PTR ds:[esi]
  40603d:	5f                   	pop    edi
  40603e:	63 72 74             	arpl   WORD PTR [edx+0x74],si
  406041:	30 00                	xor    BYTE PTR [eax],al
  406043:	00 00                	add    BYTE PTR [eax],al
	...

00406047 <.debug_pubnames>:
  406047:	22 00                	and    al,BYTE PTR [eax]
  406049:	00 00                	add    BYTE PTR [eax],al
  40604b:	02 00                	add    al,BYTE PTR [eax]
  40604d:	f4                   	hlt    
  40604e:	02 00                	add    al,BYTE PTR [eax]
  406050:	00 e2                	add    dl,ah
  406052:	00 00                	add    BYTE PTR [eax],al
  406054:	00 82 00 00 00 63    	add    BYTE PTR [edx+0x63000000],al
  40605a:	79 67                	jns    4060c3 <.debug_pubnames+0xa>
  40605c:	77 69                	ja     4060c7 <.debug_pubnames+0xe>
  40605e:	6e                   	outs   dx,BYTE PTR ds:[esi]
  40605f:	5f                   	pop    edi
  406060:	70 72                	jo     4060d4 <.debug_pubnames+0x1b>
  406062:	65                   	gs
  406063:	6d                   	ins    DWORD PTR es:[edi],dx
  406064:	61                   	popa   
  406065:	69 6e 30 00 00 00 00 	imul   ebp,DWORD PTR [esi+0x30],0x0
	...

0040606d <.debug_pubnames>:
  40606d:	22 00                	and    al,BYTE PTR [eax]
  40606f:	00 00                	add    BYTE PTR [eax],al
  406071:	02 00                	add    al,BYTE PTR [eax]
  406073:	d6                   	(bad)  
  406074:	03 00                	add    eax,DWORD PTR [eax]
  406076:	00 e2                	add    dl,ah
  406078:	00 00                	add    BYTE PTR [eax],al
  40607a:	00 82 00 00 00 63    	add    BYTE PTR [edx+0x63000000],al
  406080:	79 67                	jns    4060e9 <.debug_pubnames+0xa>
  406082:	77 69                	ja     4060ed <.debug_pubnames+0xe>
  406084:	6e                   	outs   dx,BYTE PTR ds:[esi]
  406085:	5f                   	pop    edi
  406086:	70 72                	jo     4060fa <.debug_pubnames+0x1b>
  406088:	65                   	gs
  406089:	6d                   	ins    DWORD PTR es:[edi],dx
  40608a:	61                   	popa   
  40608b:	69 6e 31 00 00 00 00 	imul   ebp,DWORD PTR [esi+0x31],0x0
	...

00406093 <.debug_pubnames>:
  406093:	22 00                	and    al,BYTE PTR [eax]
  406095:	00 00                	add    BYTE PTR [eax],al
  406097:	02 00                	add    al,BYTE PTR [eax]
  406099:	b8 04 00 00 e2       	mov    eax,0xe2000004
  40609e:	00 00                	add    BYTE PTR [eax],al
  4060a0:	00 82 00 00 00 63    	add    BYTE PTR [edx+0x63000000],al
  4060a6:	79 67                	jns    40610f <.debug_pubnames+0x30>
  4060a8:	77 69                	ja     406113 <.debug_pubnames+0x34>
  4060aa:	6e                   	outs   dx,BYTE PTR ds:[esi]
  4060ab:	5f                   	pop    edi
  4060ac:	70 72                	jo     406120 <.debug_pubnames+0x41>
  4060ae:	65                   	gs
  4060af:	6d                   	ins    DWORD PTR es:[edi],dx
  4060b0:	61                   	popa   
  4060b1:	69 6e 32 00 00 00 00 	imul   ebp,DWORD PTR [esi+0x32],0x0
	...

004060b9 <.debug_pubnames>:
  4060b9:	22 00                	and    al,BYTE PTR [eax]
  4060bb:	00 00                	add    BYTE PTR [eax],al
  4060bd:	02 00                	add    al,BYTE PTR [eax]
  4060bf:	9a 05 00 00 e2 00 00 	call   0x0:0xe2000005
  4060c6:	00 82 00 00 00 63    	add    BYTE PTR [edx+0x63000000],al
  4060cc:	79 67                	jns    406135 <.debug_pubnames+0x56>
  4060ce:	77 69                	ja     406139 <.debug_pubnames+0x1>
  4060d0:	6e                   	outs   dx,BYTE PTR ds:[esi]
  4060d1:	5f                   	pop    edi
  4060d2:	70 72                	jo     406146 <.debug_pubnames+0xe>
  4060d4:	65                   	gs
  4060d5:	6d                   	ins    DWORD PTR es:[edi],dx
  4060d6:	61                   	popa   
  4060d7:	69 6e 33 00 00 00 00 	imul   ebp,DWORD PTR [esi+0x33],0x0
	...

004060df <.debug_pubnames>:
  4060df:	55                   	push   ebp
  4060e0:	00 00                	add    BYTE PTR [eax],al
  4060e2:	00 02                	add    BYTE PTR [edx],al
  4060e4:	00 7c 06 00          	add    BYTE PTR [esi+eax*1+0x0],bh
  4060e8:	00 3f                	add    BYTE PTR [edi],bh
  4060ea:	1e                   	push   ds
  4060eb:	00 00                	add    BYTE PTR [eax],al
  4060ed:	b3 1b                	mov    bl,0x1b
  4060ef:	00 00                	add    BYTE PTR [eax],al
  4060f1:	5f                   	pop    edi
  4060f2:	63 79 67             	arpl   WORD PTR [ecx+0x67],di
  4060f5:	77 69                	ja     406160 <.debug_pubnames+0x28>
  4060f7:	6e                   	outs   dx,BYTE PTR ds:[esi]
  4060f8:	5f                   	pop    edi
  4060f9:	63 72 74             	arpl   WORD PTR [edx+0x74],si
  4060fc:	30 5f 63             	xor    BYTE PTR [edi+0x63],bl
  4060ff:	6f                   	outs   dx,DWORD PTR ds:[esi]
  406100:	6d                   	ins    DWORD PTR es:[edi],dx
  406101:	6d                   	ins    DWORD PTR es:[edi],dx
  406102:	6f                   	outs   dx,DWORD PTR ds:[esi]
  406103:	6e                   	outs   dx,BYTE PTR ds:[esi]
  406104:	00 88 1d 00 00 65    	add    BYTE PTR [eax+0x6500001d],cl
  40610a:	6e                   	outs   dx,BYTE PTR ds:[esi]
  40610b:	76 69                	jbe    406176 <.debug_pubnames+0x3e>
  40610d:	72 6f                	jb     40617e <.debug_pubnames+0x46>
  40610f:	6e                   	outs   dx,BYTE PTR ds:[esi]
  406110:	00 9e 1d 00 00 5f    	add    BYTE PTR [esi+0x5f00001d],bl
  406116:	66 6d                	ins    WORD PTR es:[edi],dx
  406118:	6f                   	outs   dx,DWORD PTR ds:[esi]
  406119:	64 65 00 1c 1e       	fs add BYTE PTR fs:gs:[esi+ebx*1],bl
  40611e:	00 00                	add    BYTE PTR [eax],al
  406120:	5f                   	pop    edi
  406121:	5f                   	pop    edi
  406122:	63 79 67             	arpl   WORD PTR [ecx+0x67],di
  406125:	77 69                	ja     406190 <.debug_pubnames+0x58>
  406127:	6e                   	outs   dx,BYTE PTR ds:[esi]
  406128:	5f                   	pop    edi
  406129:	63 78 78             	arpl   WORD PTR [eax+0x78],di
  40612c:	5f                   	pop    edi
  40612d:	6d                   	ins    DWORD PTR es:[edi],dx
  40612e:	61                   	popa   
  40612f:	6c                   	ins    BYTE PTR es:[edi],dx
  406130:	6c                   	ins    BYTE PTR es:[edi],dx
  406131:	6f                   	outs   dx,DWORD PTR ds:[esi]
  406132:	63 00                	arpl   WORD PTR [eax],ax
  406134:	00 00                	add    BYTE PTR [eax],al
	...

00406138 <.debug_pubnames>:
  406138:	5d                   	pop    ebp
  406139:	00 00                	add    BYTE PTR [eax],al
  40613b:	00 02                	add    BYTE PTR [edx],al
  40613d:	00 bb 24 00 00 da    	add    BYTE PTR [ebx-0x25ffffdc],bh
  406143:	05 00 00 5d 04       	add    eax,0x45d0000
  406148:	00 00                	add    BYTE PTR [eax],al
  40614a:	5f                   	pop    edi
  40614b:	63 79 67             	arpl   WORD PTR [ecx+0x67],di
  40614e:	77 69                	ja     4061b9 <.debug_pubnames+0x20>
  406150:	6e                   	outs   dx,BYTE PTR ds:[esi]
  406151:	5f                   	pop    edi
  406152:	64                   	fs
  406153:	6c                   	ins    BYTE PTR es:[edi],dx
  406154:	6c                   	ins    BYTE PTR es:[edi],dx
  406155:	5f                   	pop    edi
  406156:	65 6e                	outs   dx,BYTE PTR gs:[esi]
  406158:	74 72                	je     4061cc <.debug_pubnames+0x3>
  40615a:	79 00                	jns    40615c <.debug_pubnames+0x24>
  40615c:	d8 04 00             	fadd   DWORD PTR [eax+eax*1]
  40615f:	00 5f 63             	add    BYTE PTR [edi+0x63],bl
  406162:	79 67                	jns    4061cb <.debug_pubnames+0x2>
  406164:	77 69                	ja     4061cf <.debug_pubnames+0x6>
  406166:	6e                   	outs   dx,BYTE PTR ds:[esi]
  406167:	5f                   	pop    edi
  406168:	6e                   	outs   dx,BYTE PTR ds:[esi]
  406169:	6f                   	outs   dx,DWORD PTR ds:[esi]
  40616a:	6e                   	outs   dx,BYTE PTR ds:[esi]
  40616b:	63 79 67             	arpl   WORD PTR [ecx+0x67],di
  40616e:	77 69                	ja     4061d9 <.debug_pubnames+0x10>
  406170:	6e                   	outs   dx,BYTE PTR ds:[esi]
  406171:	5f                   	pop    edi
  406172:	64                   	fs
  406173:	6c                   	ins    BYTE PTR es:[edi],dx
  406174:	6c                   	ins    BYTE PTR es:[edi],dx
  406175:	5f                   	pop    edi
  406176:	65 6e                	outs   dx,BYTE PTR gs:[esi]
  406178:	74 72                	je     4061ec <.debug_pubnames+0x5>
  40617a:	79 00                	jns    40617c <.debug_pubnames+0x44>
  40617c:	c7 05 00 00 5f 5f 64 	mov    DWORD PTR ds:0x5f5f0000,0x616e7964
  406183:	79 6e 61 
  406186:	6d                   	ins    DWORD PTR es:[edi],dx
  406187:	69 63 61 6c 6c 79 5f 	imul   esp,DWORD PTR [ebx+0x61],0x5f796c6c
  40618e:	6c                   	ins    BYTE PTR es:[edi],dx
  40618f:	6f                   	outs   dx,DWORD PTR ds:[esi]
  406190:	61                   	popa   
  406191:	64 65 64 00 00       	fs gs add BYTE PTR fs:gs:[eax],al
  406196:	00 00                	add    BYTE PTR [eax],al
	...

00406199 <.debug_pubnames>:
  406199:	2c 00                	sub    al,0x0
  40619b:	00 00                	add    BYTE PTR [eax],al
  40619d:	02 00                	add    al,BYTE PTR [eax]
  40619f:	95                   	xchg   ebp,eax
  4061a0:	2a 00                	sub    al,BYTE PTR [eax]
  4061a2:	00 b7 00 00 00 8c    	add    BYTE PTR [edi-0x74000000],dh
  4061a8:	00 00                	add    BYTE PTR [eax],al
  4061aa:	00 5f 70             	add    BYTE PTR [edi+0x70],bl
  4061ad:	65 69 33 38 36 5f 72 	imul   esi,DWORD PTR gs:[ebx],0x725f3638
  4061b4:	75 6e                	jne    406224 <.debug_pubnames+0x3d>
  4061b6:	74 69                	je     406221 <.debug_pubnames+0x3a>
  4061b8:	6d                   	ins    DWORD PTR es:[edi],dx
  4061b9:	65                   	gs
  4061ba:	5f                   	pop    edi
  4061bb:	72 65                	jb     406222 <.debug_pubnames+0x3b>
  4061bd:	6c                   	ins    BYTE PTR es:[edi],dx
  4061be:	6f                   	outs   dx,DWORD PTR ds:[esi]
  4061bf:	63 61 74             	arpl   WORD PTR [ecx+0x74],sp
  4061c2:	6f                   	outs   dx,DWORD PTR ds:[esi]
  4061c3:	72 00                	jb     4061c5 <.debug_pubnames+0x2c>
  4061c5:	00 00                	add    BYTE PTR [eax],al
	...

004061c9 <.debug_pubnames>:
  4061c9:	1a 00                	sbb    al,BYTE PTR [eax]
  4061cb:	00 00                	add    BYTE PTR [eax],al
  4061cd:	02 00                	add    al,BYTE PTR [eax]
  4061cf:	4c                   	dec    esp
  4061d0:	2b 00                	sub    eax,DWORD PTR [eax]
  4061d2:	00 17                	add    BYTE PTR [edi],dl
  4061d4:	02 00                	add    al,BYTE PTR [eax]
  4061d6:	00 ba 01 00 00 44    	add    BYTE PTR [edx+0x44000001],bh
  4061dc:	6c                   	ins    BYTE PTR es:[edi],dx
  4061dd:	6c                   	ins    BYTE PTR es:[edi],dx
  4061de:	4d                   	dec    ebp
  4061df:	61                   	popa   
  4061e0:	69 6e 00 00 00 00 00 	imul   ebp,DWORD PTR [esi+0x0],0x0

004061e7 <.debug_pubnames>:
  4061e7:	24 00                	and    al,0x0
  4061e9:	00 00                	add    BYTE PTR [eax],al
  4061eb:	02 00                	add    al,BYTE PTR [eax]
  4061ed:	63 2d 00 00 e2 10    	arpl   WORD PTR ds:0x10e20000,bp
  4061f3:	00 00                	add    BYTE PTR [eax],al
  4061f5:	92                   	xchg   edx,eax
  4061f6:	10 00                	adc    BYTE PTR [eax],al
  4061f8:	00 63 79             	add    BYTE PTR [ebx+0x79],ah
  4061fb:	67 77 69             	addr16 ja 406267 <.debug_pubnames+0x80>
  4061fe:	6e                   	outs   dx,BYTE PTR ds:[esi]
  4061ff:	5f                   	pop    edi
  406200:	61                   	popa   
  406201:	74 74                	je     406277 <.debug_pubnames+0x90>
  406203:	61                   	popa   
  406204:	63 68 5f             	arpl   WORD PTR [eax+0x5f],bp
  406207:	64                   	fs
  406208:	6c                   	ins    BYTE PTR es:[edi],dx
  406209:	6c                   	ins    BYTE PTR es:[edi],dx
  40620a:	00 00                	add    BYTE PTR [eax],al
  40620c:	00 00                	add    BYTE PTR [eax],al
	...

Disassembly of section .debug_pubtypes:

00407000 <.debug_pubtypes>:
  407000:	0e                   	push   cs
  407001:	00 00                	add    BYTE PTR [eax],al
  407003:	00 02                	add    BYTE PTR [edx],al
  407005:	00 00                	add    BYTE PTR [eax],al
  407007:	00 00                	add    BYTE PTR [eax],al
  407009:	00 51 01             	add    BYTE PTR [ecx+0x1],dl
  40700c:	00 00                	add    BYTE PTR [eax],al
  40700e:	00 00                	add    BYTE PTR [eax],al
	...

00407012 <.debug_pubtypes>:
  407012:	1b 00                	sbb    eax,DWORD PTR [eax]
  407014:	00 00                	add    BYTE PTR [eax],al
  407016:	02 00                	add    al,BYTE PTR [eax]
  407018:	51                   	push   ecx
  407019:	01 00                	add    DWORD PTR [eax],eax
  40701b:	00 a3 01 00 00 42    	add    BYTE PTR [ebx+0x42000001],ah
  407021:	01 00                	add    DWORD PTR [eax],eax
  407023:	00 4d 61             	add    BYTE PTR [ebp+0x61],cl
  407026:	69 6e 46 75 6e 63 00 	imul   ebp,DWORD PTR [esi+0x46],0x636e75
  40702d:	00 00                	add    BYTE PTR [eax],al
	...

00407031 <.debug_pubtypes>:
  407031:	20 02                	and    BYTE PTR [edx],al
  407033:	00 00                	add    BYTE PTR [eax],al
  407035:	02 00                	add    al,BYTE PTR [eax]
  407037:	7c 06                	jl     40703f <.debug_pubtypes+0xe>
  407039:	00 00                	add    BYTE PTR [eax],al
  40703b:	3f                   	aas    
  40703c:	1e                   	push   ds
  40703d:	00 00                	add    BYTE PTR [eax],al
  40703f:	51                   	push   ecx
  407040:	01 00                	add    DWORD PTR [eax],eax
  407042:	00 5f 4c             	add    BYTE PTR [edi+0x4c],bl
  407045:	4f                   	dec    edi
  407046:	43                   	inc    ebx
  407047:	4b                   	dec    ebx
  407048:	5f                   	pop    edi
  407049:	54                   	push   esp
  40704a:	00 6e 01             	add    BYTE PTR [esi+0x1],ch
  40704d:	00 00                	add    BYTE PTR [eax],al
  40704f:	5f                   	pop    edi
  407050:	6f                   	outs   dx,DWORD PTR ds:[esi]
  407051:	66                   	data16
  407052:	66                   	data16
  407053:	36                   	ss
  407054:	34 5f                	xor    al,0x5f
  407056:	74 00                	je     407058 <.debug_pubtypes+0x27>
  407058:	7e 01                	jle    40705b <.debug_pubtypes+0x2a>
  40705a:	00 00                	add    BYTE PTR [eax],al
  40705c:	5f                   	pop    edi
  40705d:	66                   	data16
  40705e:	70 6f                	jo     4070cf <.debug_pubtypes+0x9e>
  407060:	73 5f                	jae    4070c1 <.debug_pubtypes+0x90>
  407062:	74 00                	je     407064 <.debug_pubtypes+0x33>
  407064:	8d 01                	lea    eax,[ecx]
  407066:	00 00                	add    BYTE PTR [eax],al
  407068:	5f                   	pop    edi
  407069:	66                   	data16
  40706a:	70 6f                	jo     4070db <.debug_pubtypes+0xaa>
  40706c:	73 36                	jae    4070a4 <.debug_pubtypes+0x73>
  40706e:	34 5f                	xor    al,0x5f
  407070:	74 00                	je     407072 <.debug_pubtypes+0x41>
  407072:	9e                   	sahf   
  407073:	01 00                	add    DWORD PTR [eax],eax
  407075:	00 5f 73             	add    BYTE PTR [edi+0x73],bl
  407078:	73 69                	jae    4070e3 <.debug_pubtypes+0xb2>
  40707a:	7a 65                	jp     4070e1 <.debug_pubtypes+0xb0>
  40707c:	5f                   	pop    edi
  40707d:	74 00                	je     40707f <.debug_pubtypes+0x4e>
  40707f:	ae                   	scas   al,BYTE PTR es:[edi]
  407080:	01 00                	add    DWORD PTR [eax],eax
  407082:	00 77 69             	add    BYTE PTR [edi+0x69],dh
  407085:	6e                   	outs   dx,BYTE PTR ds:[esi]
  407086:	74 5f                	je     4070e7 <.debug_pubtypes+0xb6>
  407088:	74 00                	je     40708a <.debug_pubtypes+0x59>
  40708a:	29 02                	sub    DWORD PTR [edx],eax
  40708c:	00 00                	add    BYTE PTR [eax],al
  40708e:	5f                   	pop    edi
  40708f:	66                   	data16
  407090:	6c                   	ins    BYTE PTR es:[edi],dx
  407091:	6f                   	outs   dx,DWORD PTR ds:[esi]
  407092:	63 6b 5f             	arpl   WORD PTR [ebx+0x5f],bp
  407095:	74 00                	je     407097 <.debug_pubtypes+0x66>
  407097:	39 02                	cmp    DWORD PTR [edx],eax
  407099:	00 00                	add    BYTE PTR [eax],al
  40709b:	70 74                	jo     407111 <.debug_pubtypes+0xe0>
  40709d:	72 64                	jb     407103 <.debug_pubtypes+0xd2>
  40709f:	69 66 66 5f 74 00 4a 	imul   esp,DWORD PTR [esi+0x66],0x4a00745f
  4070a6:	02 00                	add    al,BYTE PTR [eax]
  4070a8:	00 73 69             	add    BYTE PTR [ebx+0x69],dh
  4070ab:	7a 65                	jp     407112 <.debug_pubtypes+0xe1>
  4070ad:	5f                   	pop    edi
  4070ae:	74 00                	je     4070b0 <.debug_pubtypes+0x7f>
  4070b0:	7b 02                	jnp    4070b4 <.debug_pubtypes+0x83>
  4070b2:	00 00                	add    BYTE PTR [eax],al
  4070b4:	5f                   	pop    edi
  4070b5:	5f                   	pop    edi
  4070b6:	67 6e                	outs   dx,BYTE PTR ds:[si]
  4070b8:	75 63                	jne    40711d <.debug_pubtypes+0xec>
  4070ba:	5f                   	pop    edi
  4070bb:	76 61                	jbe    40711e <.debug_pubtypes+0xed>
  4070bd:	5f                   	pop    edi
  4070be:	6c                   	ins    BYTE PTR es:[edi],dx
  4070bf:	69 73 74 00 a9 02 00 	imul   esi,DWORD PTR [ebx+0x74],0x2a900
  4070c6:	00 76 61             	add    BYTE PTR [esi+0x61],dh
  4070c9:	5f                   	pop    edi
  4070ca:	6c                   	ins    BYTE PTR es:[edi],dx
  4070cb:	69 73 74 00 b8 02 00 	imul   esi,DWORD PTR [ebx+0x74],0x2b800
  4070d2:	00 73 74             	add    BYTE PTR [ebx+0x74],dh
  4070d5:	72 61                	jb     407138 <.debug_pubtypes+0x107>
  4070d7:	63 65 00             	arpl   WORD PTR [ebp+0x0],sp
  4070da:	0e                   	push   cs
  4070db:	06                   	push   es
  4070dc:	00 00                	add    BYTE PTR [eax],al
  4070de:	44                   	inc    esp
  4070df:	57                   	push   edi
  4070e0:	4f                   	dec    edi
  4070e1:	52                   	push   edx
  4070e2:	44                   	inc    esp
  4070e3:	00 1b                	add    BYTE PTR [ebx],bl
  4070e5:	06                   	push   es
  4070e6:	00 00                	add    BYTE PTR [eax],al
  4070e8:	57                   	push   edi
  4070e9:	49                   	dec    ecx
  4070ea:	4e                   	dec    esi
  4070eb:	42                   	inc    edx
  4070ec:	4f                   	dec    edi
  4070ed:	4f                   	dec    edi
  4070ee:	4c                   	dec    esp
  4070ef:	00 30                	add    BYTE PTR [eax],dh
  4070f1:	06                   	push   es
  4070f2:	00 00                	add    BYTE PTR [eax],al
  4070f4:	42                   	inc    edx
  4070f5:	4f                   	dec    edi
  4070f6:	4f                   	dec    edi
  4070f7:	4c                   	dec    esp
  4070f8:	00 45 06             	add    BYTE PTR [ebp+0x6],al
  4070fb:	00 00                	add    BYTE PTR [eax],al
  4070fd:	5f                   	pop    edi
  4070fe:	5f                   	pop    edi
  4070ff:	55                   	push   ebp
  407100:	4c                   	dec    esp
  407101:	6f                   	outs   dx,DWORD PTR ds:[esi]
  407102:	6e                   	outs   dx,BYTE PTR ds:[esi]
  407103:	67 00 54 06          	add    BYTE PTR [si+0x6],dl
  407107:	00 00                	add    BYTE PTR [eax],al
  407109:	5f                   	pop    edi
  40710a:	42                   	inc    edx
  40710b:	69 67 69 6e 74 00 d6 	imul   esp,DWORD PTR [edi+0x69],0xd600746e
  407112:	06                   	push   es
  407113:	00 00                	add    BYTE PTR [eax],al
  407115:	5f                   	pop    edi
  407116:	5f                   	pop    edi
  407117:	74 6d                	je     407186 <.debug_pubtypes+0x155>
  407119:	00 96 07 00 00 5f    	add    BYTE PTR [esi+0x5f000007],dl
  40711f:	6f                   	outs   dx,DWORD PTR ds:[esi]
  407120:	6e                   	outs   dx,BYTE PTR ds:[esi]
  407121:	5f                   	pop    edi
  407122:	65                   	gs
  407123:	78 69                	js     40718e <.debug_pubtypes+0x15d>
  407125:	74 5f                	je     407186 <.debug_pubtypes+0x155>
  407127:	61                   	popa   
  407128:	72 67                	jb     407191 <.debug_pubtypes+0x160>
  40712a:	73 00                	jae    40712c <.debug_pubtypes+0xfb>
  40712c:	04 08                	add    al,0x8
  40712e:	00 00                	add    BYTE PTR [eax],al
  407130:	5f                   	pop    edi
  407131:	61                   	popa   
  407132:	74 65                	je     407199 <.debug_pubtypes+0x168>
  407134:	78 69                	js     40719f <.debug_pubtypes+0x16e>
  407136:	74 00                	je     407138 <.debug_pubtypes+0x107>
  407138:	70 08                	jo     407142 <.debug_pubtypes+0x111>
  40713a:	00 00                	add    BYTE PTR [eax],al
  40713c:	5f                   	pop    edi
  40713d:	5f                   	pop    edi
  40713e:	73 62                	jae    4071a2 <.debug_pubtypes+0x171>
  407140:	75 66                	jne    4071a8 <.debug_pubtypes+0x177>
  407142:	00 53 0d             	add    BYTE PTR [ebx+0xd],dl
  407145:	00 00                	add    BYTE PTR [eax],al
  407147:	5f                   	pop    edi
  407148:	5f                   	pop    edi
  407149:	73 46                	jae    407191 <.debug_pubtypes+0x160>
  40714b:	49                   	dec    ecx
  40714c:	4c                   	dec    esp
  40714d:	45                   	inc    ebp
  40714e:	36                   	ss
  40714f:	34 00                	xor    al,0x0
  407151:	22 0f                	and    cl,BYTE PTR [edi]
  407153:	00 00                	add    BYTE PTR [eax],al
  407155:	5f                   	pop    edi
  407156:	5f                   	pop    edi
  407157:	46                   	inc    esi
  407158:	49                   	dec    ecx
  407159:	4c                   	dec    esp
  40715a:	45                   	inc    ebp
  40715b:	00 31                	add    BYTE PTR [ecx],dh
  40715d:	0f 00 00             	sldt   WORD PTR [eax]
  407160:	5f                   	pop    edi
  407161:	67 6c                	ins    BYTE PTR es:[di],dx
  407163:	75 65                	jne    4071ca <.debug_pubtypes+0x199>
  407165:	00 81 0f 00 00 5f    	add    BYTE PTR [ecx+0x5f00000f],al
  40716b:	72 61                	jb     4071ce <.debug_pubtypes+0x19d>
  40716d:	6e                   	outs   dx,BYTE PTR ds:[esi]
  40716e:	64                   	fs
  40716f:	34 38                	xor    al,0x38
  407171:	00 ca                	add    dl,cl
  407173:	08 00                	or     BYTE PTR [eax],al
  407175:	00 5f 72             	add    BYTE PTR [edi+0x72],bl
  407178:	65 65 6e             	gs outs dx,BYTE PTR gs:[esi]
  40717b:	74 00                	je     40717d <.debug_pubtypes+0x14c>
  40717d:	85 10                	test   DWORD PTR [eax],edx
  40717f:	00 00                	add    BYTE PTR [eax],al
  407181:	4c                   	dec    esp
  407182:	50                   	push   eax
  407183:	56                   	push   esi
  407184:	4f                   	dec    edi
  407185:	49                   	dec    ecx
  407186:	44                   	inc    esp
  407187:	00 9e 10 00 00 48    	add    BYTE PTR [esi+0x48000010],bl
  40718d:	41                   	inc    ecx
  40718e:	4e                   	dec    esi
  40718f:	44                   	inc    esp
  407190:	4c                   	dec    esp
  407191:	45                   	inc    ebp
  407192:	00 ac 10 00 00 5f 53 	add    BYTE PTR [eax+edx*1+0x535f0000],ch
  407199:	45                   	inc    ebp
  40719a:	43                   	inc    ebx
  40719b:	55                   	push   ebp
  40719c:	52                   	push   edx
  40719d:	49                   	dec    ecx
  40719e:	54                   	push   esp
  40719f:	59                   	pop    ecx
  4071a0:	5f                   	pop    edi
  4071a1:	41                   	inc    ecx
  4071a2:	54                   	push   esp
  4071a3:	54                   	push   esp
  4071a4:	52                   	push   edx
  4071a5:	49                   	dec    ecx
  4071a6:	42                   	inc    edx
  4071a7:	55                   	push   ebp
  4071a8:	54                   	push   esp
  4071a9:	45                   	inc    ebp
  4071aa:	53                   	push   ebx
  4071ab:	00 18                	add    BYTE PTR [eax],bl
  4071ad:	11 00                	adc    DWORD PTR [eax],eax
  4071af:	00 53 45             	add    BYTE PTR [ebx+0x45],dl
  4071b2:	43                   	inc    ebx
  4071b3:	55                   	push   ebp
  4071b4:	52                   	push   edx
  4071b5:	49                   	dec    ecx
  4071b6:	54                   	push   esp
  4071b7:	59                   	pop    ecx
  4071b8:	5f                   	pop    edi
  4071b9:	41                   	inc    ecx
  4071ba:	54                   	push   esp
  4071bb:	54                   	push   esp
  4071bc:	52                   	push   edx
  4071bd:	49                   	dec    ecx
  4071be:	42                   	inc    edx
  4071bf:	55                   	push   ebp
  4071c0:	54                   	push   esp
  4071c1:	45                   	inc    ebp
  4071c2:	53                   	push   ebx
  4071c3:	00 44 11 00          	add    BYTE PTR [ecx+edx*1+0x0],al
  4071c7:	00 48 49             	add    BYTE PTR [eax+0x49],cl
  4071ca:	4e                   	dec    esi
  4071cb:	53                   	push   ebx
  4071cc:	54                   	push   esp
  4071cd:	41                   	inc    ecx
  4071ce:	4e                   	dec    esi
  4071cf:	43                   	inc    ebx
  4071d0:	45                   	inc    ebp
  4071d1:	5f                   	pop    edi
  4071d2:	5f                   	pop    edi
  4071d3:	00 67 11             	add    BYTE PTR [edi+0x11],ah
  4071d6:	00 00                	add    BYTE PTR [eax],al
  4071d8:	48                   	dec    eax
  4071d9:	49                   	dec    ecx
  4071da:	4e                   	dec    esi
  4071db:	53                   	push   ebx
  4071dc:	54                   	push   esp
  4071dd:	41                   	inc    ecx
  4071de:	4e                   	dec    esi
  4071df:	43                   	inc    ebx
  4071e0:	45                   	inc    ebp
  4071e1:	00 7f 11             	add    BYTE PTR [edi+0x11],bh
  4071e4:	00 00                	add    BYTE PTR [eax],al
  4071e6:	48                   	dec    eax
  4071e7:	4d                   	dec    ebp
  4071e8:	4f                   	dec    edi
  4071e9:	44                   	inc    esp
  4071ea:	55                   	push   ebp
  4071eb:	4c                   	dec    esp
  4071ec:	45                   	inc    ebp
  4071ed:	00 5e 15             	add    BYTE PTR [esi+0x15],bl
  4071f0:	00 00                	add    BYTE PTR [eax],al
  4071f2:	70 65                	jo     407259 <.debug_pubtypes+0x4>
  4071f4:	72 5f                	jb     407255 <.debug_pubtypes>
  4071f6:	70 72                	jo     40726a <.debug_pubtypes+0x15>
  4071f8:	6f                   	outs   dx,DWORD PTR ds:[esi]
  4071f9:	63 65 73             	arpl   WORD PTR [ebp+0x73],sp
  4071fc:	73 00                	jae    4071fe <.debug_pubtypes+0x1cd>
  4071fe:	fd                   	std    
  4071ff:	1a 00                	sbb    al,BYTE PTR [eax]
  407201:	00 63 61             	add    BYTE PTR [ebx+0x61],ah
  407204:	6c                   	ins    BYTE PTR es:[edi],dx
  407205:	6c                   	ins    BYTE PTR es:[edi],dx
  407206:	62 61 63             	bound  esp,QWORD PTR [ecx+0x63]
  407209:	6b 00 ab             	imul   eax,DWORD PTR [eax],0xffffffab
  40720c:	19 00                	sbb    DWORD PTR [eax],eax
  40720e:	00 4d 54             	add    BYTE PTR [ebp+0x54],cl
  407211:	69 6e 74 65 72 66 61 	imul   ebp,DWORD PTR [esi+0x74],0x61667265
  407218:	63 65 00             	arpl   WORD PTR [ebp+0x0],sp
  40721b:	3a 1b                	cmp    bl,BYTE PTR [ebx]
  40721d:	00 00                	add    BYTE PTR [eax],al
  40721f:	4d                   	dec    ebp
  407220:	61                   	popa   
  407221:	69 6e 46 75 6e 63 00 	imul   ebp,DWORD PTR [esi+0x46],0x636e75
  407228:	70 1b                	jo     407245 <.debug_pubtypes+0x214>
  40722a:	00 00                	add    BYTE PTR [eax],al
  40722c:	6e                   	outs   dx,BYTE PTR ds:[esi]
  40722d:	6f                   	outs   dx,DWORD PTR ds:[esi]
  40722e:	74 68                	je     407298 <.debug_pubtypes+0x43>
  407230:	72 6f                	jb     4072a1 <.debug_pubtypes+0x6>
  407232:	77 5f                	ja     407293 <.debug_pubtypes+0x3e>
  407234:	74 00                	je     407236 <.debug_pubtypes+0x205>
  407236:	cd 18                	int    0x18
  407238:	00 00                	add    BYTE PTR [eax],al
  40723a:	70 65                	jo     4072a1 <.debug_pubtypes+0x6>
  40723c:	72 5f                	jb     40729d <.debug_pubtypes+0x2>
  40723e:	70 72                	jo     4072b2 <.debug_pubtypes+0x17>
  407240:	6f                   	outs   dx,DWORD PTR ds:[esi]
  407241:	63 65 73             	arpl   WORD PTR [ebp+0x73],sp
  407244:	73 5f                	jae    4072a5 <.debug_pubtypes+0xa>
  407246:	63 78 78             	arpl   WORD PTR [eax+0x78],di
  407249:	5f                   	pop    edi
  40724a:	6d                   	ins    DWORD PTR es:[edi],dx
  40724b:	61                   	popa   
  40724c:	6c                   	ins    BYTE PTR es:[edi],dx
  40724d:	6c                   	ins    BYTE PTR es:[edi],dx
  40724e:	6f                   	outs   dx,DWORD PTR ds:[esi]
  40724f:	63 00                	arpl   WORD PTR [eax],ax
  407251:	00 00                	add    BYTE PTR [eax],al
	...

00407255 <.debug_pubtypes>:
  407255:	42                   	inc    edx
  407256:	00 00                	add    BYTE PTR [eax],al
  407258:	00 02                	add    BYTE PTR [edx],al
  40725a:	00 bb 24 00 00 da    	add    BYTE PTR [ebx-0x25ffffdc],bh
  407260:	05 00 00 8b 00       	add    eax,0x8b0000
  407265:	00 00                	add    BYTE PTR [eax],al
  407267:	44                   	inc    esp
  407268:	57                   	push   edi
  407269:	4f                   	dec    edi
  40726a:	52                   	push   edx
  40726b:	44                   	inc    esp
  40726c:	00 4f 01             	add    BYTE PTR [edi+0x1],cl
  40726f:	00 00                	add    BYTE PTR [eax],al
  407271:	48                   	dec    eax
  407272:	49                   	dec    ecx
  407273:	4e                   	dec    esi
  407274:	53                   	push   ebx
  407275:	54                   	push   esp
  407276:	41                   	inc    ecx
  407277:	4e                   	dec    esi
  407278:	43                   	inc    ebx
  407279:	45                   	inc    ebp
  40727a:	5f                   	pop    edi
  40727b:	5f                   	pop    edi
  40727c:	00 72 01             	add    BYTE PTR [edx+0x1],dh
  40727f:	00 00                	add    BYTE PTR [eax],al
  407281:	48                   	dec    eax
  407282:	49                   	dec    ecx
  407283:	4e                   	dec    esi
  407284:	53                   	push   ebx
  407285:	54                   	push   esp
  407286:	41                   	inc    ecx
  407287:	4e                   	dec    esi
  407288:	43                   	inc    ebx
  407289:	45                   	inc    ebp
  40728a:	00 94 01 00 00 56 41 	add    BYTE PTR [ecx+eax*1+0x41560000],dl
  407291:	52                   	push   edx
  407292:	45                   	inc    ebp
  407293:	4e                   	dec    esi
  407294:	55                   	push   ebp
  407295:	4d                   	dec    ebp
  407296:	00 00                	add    BYTE PTR [eax],al
  407298:	00 00                	add    BYTE PTR [eax],al
	...

0040729b <.debug_pubtypes>:
  40729b:	56                   	push   esi
  40729c:	00 00                	add    BYTE PTR [eax],al
  40729e:	00 02                	add    BYTE PTR [edx],al
  4072a0:	00 4c 2b 00          	add    BYTE PTR [ebx+ebp*1+0x0],cl
  4072a4:	00 17                	add    BYTE PTR [edi],dl
  4072a6:	02 00                	add    al,BYTE PTR [eax]
  4072a8:	00 8d 00 00 00 44    	add    BYTE PTR [ebp+0x44000000],cl
  4072ae:	57                   	push   edi
  4072af:	4f                   	dec    edi
  4072b0:	52                   	push   edx
  4072b1:	44                   	inc    esp
  4072b2:	00 af 00 00 00 57    	add    BYTE PTR [edi+0x57000000],ch
  4072b8:	49                   	dec    ecx
  4072b9:	4e                   	dec    esi
  4072ba:	42                   	inc    edx
  4072bb:	4f                   	dec    edi
  4072bc:	4f                   	dec    edi
  4072bd:	4c                   	dec    esp
  4072be:	00 c5                	add    ch,al
  4072c0:	00 00                	add    BYTE PTR [eax],al
  4072c2:	00 42 4f             	add    BYTE PTR [edx+0x4f],al
  4072c5:	4f                   	dec    edi
  4072c6:	4c                   	dec    esp
  4072c7:	00 66 01             	add    BYTE PTR [esi+0x1],ah
  4072ca:	00 00                	add    BYTE PTR [eax],al
  4072cc:	4c                   	dec    esp
  4072cd:	50                   	push   eax
  4072ce:	56                   	push   esi
  4072cf:	4f                   	dec    edi
  4072d0:	49                   	dec    ecx
  4072d1:	44                   	inc    esp
  4072d2:	00 7f 01             	add    BYTE PTR [edi+0x1],bh
  4072d5:	00 00                	add    BYTE PTR [eax],al
  4072d7:	48                   	dec    eax
  4072d8:	49                   	dec    ecx
  4072d9:	4e                   	dec    esi
  4072da:	53                   	push   ebx
  4072db:	54                   	push   esp
  4072dc:	41                   	inc    ecx
  4072dd:	4e                   	dec    esi
  4072de:	43                   	inc    ebx
  4072df:	45                   	inc    ebp
  4072e0:	5f                   	pop    edi
  4072e1:	5f                   	pop    edi
  4072e2:	00 a2 01 00 00 48    	add    BYTE PTR [edx+0x48000001],ah
  4072e8:	49                   	dec    ecx
  4072e9:	4e                   	dec    esi
  4072ea:	53                   	push   ebx
  4072eb:	54                   	push   esp
  4072ec:	41                   	inc    ecx
  4072ed:	4e                   	dec    esi
  4072ee:	43                   	inc    ebx
  4072ef:	45                   	inc    ebp
  4072f0:	00 00                	add    BYTE PTR [eax],al
  4072f2:	00 00                	add    BYTE PTR [eax],al
	...

004072f5 <.debug_pubtypes>:
  4072f5:	55                   	push   ebp
  4072f6:	01 00                	add    DWORD PTR [eax],eax
  4072f8:	00 02                	add    BYTE PTR [edx],al
  4072fa:	00 63 2d             	add    BYTE PTR [ebx+0x2d],ah
  4072fd:	00 00                	add    BYTE PTR [eax],al
  4072ff:	e2 10                	loop   407311 <.debug_pubtypes+0x1c>
  407301:	00 00                	add    BYTE PTR [eax],al
  407303:	93                   	xchg   ebx,eax
  407304:	00 00                	add    BYTE PTR [eax],al
  407306:	00 44 57 4f          	add    BYTE PTR [edi+edx*2+0x4f],al
  40730a:	52                   	push   edx
  40730b:	44                   	inc    esp
  40730c:	00 55 01             	add    BYTE PTR [ebp+0x1],dl
  40730f:	00 00                	add    BYTE PTR [eax],al
  407311:	5f                   	pop    edi
  407312:	4c                   	dec    esp
  407313:	4f                   	dec    edi
  407314:	43                   	inc    ebx
  407315:	4b                   	dec    ebx
  407316:	5f                   	pop    edi
  407317:	54                   	push   esp
  407318:	00 66 01             	add    BYTE PTR [esi+0x1],ah
  40731b:	00 00                	add    BYTE PTR [eax],al
  40731d:	5f                   	pop    edi
  40731e:	6f                   	outs   dx,DWORD PTR ds:[esi]
  40731f:	66                   	data16
  407320:	66                   	data16
  407321:	36                   	ss
  407322:	34 5f                	xor    al,0x5f
  407324:	74 00                	je     407326 <.debug_pubtypes+0x31>
  407326:	76 01                	jbe    407329 <.debug_pubtypes+0x34>
  407328:	00 00                	add    BYTE PTR [eax],al
  40732a:	5f                   	pop    edi
  40732b:	66                   	data16
  40732c:	70 6f                	jo     40739d <.debug_pubtypes+0xa8>
  40732e:	73 5f                	jae    40738f <.debug_pubtypes+0x9a>
  407330:	74 00                	je     407332 <.debug_pubtypes+0x3d>
  407332:	85 01                	test   DWORD PTR [ecx],eax
  407334:	00 00                	add    BYTE PTR [eax],al
  407336:	5f                   	pop    edi
  407337:	66                   	data16
  407338:	70 6f                	jo     4073a9 <.debug_pubtypes+0xb4>
  40733a:	73 36                	jae    407372 <.debug_pubtypes+0x7d>
  40733c:	34 5f                	xor    al,0x5f
  40733e:	74 00                	je     407340 <.debug_pubtypes+0x4b>
  407340:	96                   	xchg   esi,eax
  407341:	01 00                	add    DWORD PTR [eax],eax
  407343:	00 5f 73             	add    BYTE PTR [edi+0x73],bl
  407346:	73 69                	jae    4073b1 <.debug_pubtypes+0xbc>
  407348:	7a 65                	jp     4073af <.debug_pubtypes+0xba>
  40734a:	5f                   	pop    edi
  40734b:	74 00                	je     40734d <.debug_pubtypes+0x58>
  40734d:	a6                   	cmps   BYTE PTR ds:[esi],BYTE PTR es:[edi]
  40734e:	01 00                	add    DWORD PTR [eax],eax
  407350:	00 77 69             	add    BYTE PTR [edi+0x69],dh
  407353:	6e                   	outs   dx,BYTE PTR ds:[esi]
  407354:	74 5f                	je     4073b5 <.debug_pubtypes+0xc0>
  407356:	74 00                	je     407358 <.debug_pubtypes+0x63>
  407358:	16                   	push   ss
  407359:	02 00                	add    al,BYTE PTR [eax]
  40735b:	00 5f 6d             	add    BYTE PTR [edi+0x6d],bl
  40735e:	62 73 74             	bound  esi,QWORD PTR [ebx+0x74]
  407361:	61                   	popa   
  407362:	74 65                	je     4073c9 <.debug_pubtypes+0xd4>
  407364:	5f                   	pop    edi
  407365:	74 00                	je     407367 <.debug_pubtypes+0x72>
  407367:	28 02                	sub    BYTE PTR [edx],al
  407369:	00 00                	add    BYTE PTR [eax],al
  40736b:	5f                   	pop    edi
  40736c:	66                   	data16
  40736d:	6c                   	ins    BYTE PTR es:[edi],dx
  40736e:	6f                   	outs   dx,DWORD PTR ds:[esi]
  40736f:	63 6b 5f             	arpl   WORD PTR [ebx+0x5f],bp
  407372:	74 00                	je     407374 <.debug_pubtypes+0x7f>
  407374:	38 02                	cmp    BYTE PTR [edx],al
  407376:	00 00                	add    BYTE PTR [eax],al
  407378:	5f                   	pop    edi
  407379:	5f                   	pop    edi
  40737a:	55                   	push   ebp
  40737b:	4c                   	dec    esp
  40737c:	6f                   	outs   dx,DWORD PTR ds:[esi]
  40737d:	6e                   	outs   dx,BYTE PTR ds:[esi]
  40737e:	67 00 47 02          	add    BYTE PTR [bx+0x2],al
  407382:	00 00                	add    BYTE PTR [eax],al
  407384:	5f                   	pop    edi
  407385:	42                   	inc    edx
  407386:	69 67 69 6e 74 00 c9 	imul   esp,DWORD PTR [edi+0x69],0xc900746e
  40738d:	02 00                	add    al,BYTE PTR [eax]
  40738f:	00 5f 5f             	add    BYTE PTR [edi+0x5f],bl
  407392:	74 6d                	je     407401 <.debug_pubtypes+0x10c>
  407394:	00 89 03 00 00 5f    	add    BYTE PTR [ecx+0x5f000003],cl
  40739a:	6f                   	outs   dx,DWORD PTR ds:[esi]
  40739b:	6e                   	outs   dx,BYTE PTR ds:[esi]
  40739c:	5f                   	pop    edi
  40739d:	65                   	gs
  40739e:	78 69                	js     407409 <.debug_pubtypes+0x114>
  4073a0:	74 5f                	je     407401 <.debug_pubtypes+0x10c>
  4073a2:	61                   	popa   
  4073a3:	72 67                	jb     40740c <.debug_pubtypes+0x117>
  4073a5:	73 00                	jae    4073a7 <.debug_pubtypes+0xb2>
  4073a7:	f7 03 00 00 5f 61    	test   DWORD PTR [ebx],0x615f0000
  4073ad:	74 65                	je     407414 <.debug_pubtypes+0x11f>
  4073af:	78 69                	js     40741a <.debug_pubtypes+0x125>
  4073b1:	74 00                	je     4073b3 <.debug_pubtypes+0xbe>
  4073b3:	64                   	fs
  4073b4:	04 00                	add    al,0x0
  4073b6:	00 5f 5f             	add    BYTE PTR [edi+0x5f],bl
  4073b9:	73 62                	jae    40741d <.debug_pubtypes+0x128>
  4073bb:	75 66                	jne    407423 <.debug_pubtypes+0x12e>
  4073bd:	00 27                	add    BYTE PTR [edi],ah
  4073bf:	07                   	pop    es
  4073c0:	00 00                	add    BYTE PTR [eax],al
  4073c2:	5f                   	pop    edi
  4073c3:	5f                   	pop    edi
  4073c4:	73 46                	jae    40740c <.debug_pubtypes+0x117>
  4073c6:	49                   	dec    ecx
  4073c7:	4c                   	dec    esp
  4073c8:	45                   	inc    ebp
  4073c9:	36                   	ss
  4073ca:	34 00                	xor    al,0x0
  4073cc:	f7                   	(bad)  
  4073cd:	08 00                	or     BYTE PTR [eax],al
  4073cf:	00 5f 5f             	add    BYTE PTR [edi+0x5f],bl
  4073d2:	46                   	inc    esi
  4073d3:	49                   	dec    ecx
  4073d4:	4c                   	dec    esp
  4073d5:	45                   	inc    ebp
  4073d6:	00 06                	add    BYTE PTR [esi],al
  4073d8:	09 00                	or     DWORD PTR [eax],eax
  4073da:	00 5f 67             	add    BYTE PTR [edi+0x67],bl
  4073dd:	6c                   	ins    BYTE PTR es:[edi],dx
  4073de:	75 65                	jne    407445 <.debug_pubtypes+0x150>
  4073e0:	00 56 09             	add    BYTE PTR [esi+0x9],dl
  4073e3:	00 00                	add    BYTE PTR [eax],al
  4073e5:	5f                   	pop    edi
  4073e6:	72 61                	jb     407449 <.debug_pubtypes+0x154>
  4073e8:	6e                   	outs   dx,BYTE PTR ds:[esi]
  4073e9:	64                   	fs
  4073ea:	34 38                	xor    al,0x38
  4073ec:	00 bf 04 00 00 5f    	add    BYTE PTR [edi+0x5f000004],bh
  4073f2:	72 65                	jb     407459 <.debug_pubtypes+0x164>
  4073f4:	65 6e                	outs   dx,BYTE PTR gs:[esi]
  4073f6:	74 00                	je     4073f8 <.debug_pubtypes+0x103>
  4073f8:	7f 0c                	jg     407406 <.debug_pubtypes+0x111>
  4073fa:	00 00                	add    BYTE PTR [eax],al
  4073fc:	73 69                	jae    407467 <.debug_pubtypes+0x172>
  4073fe:	7a 65                	jp     407465 <.debug_pubtypes+0x170>
  407400:	5f                   	pop    edi
  407401:	74 00                	je     407403 <.debug_pubtypes+0x10e>
  407403:	8d 0c 00             	lea    ecx,[eax+eax*1]
  407406:	00 48 49             	add    BYTE PTR [eax+0x49],cl
  407409:	4e                   	dec    esi
  40740a:	53                   	push   ebx
  40740b:	54                   	push   esp
  40740c:	41                   	inc    ecx
  40740d:	4e                   	dec    esi
  40740e:	43                   	inc    ebx
  40740f:	45                   	inc    ebp
  407410:	5f                   	pop    edi
  407411:	5f                   	pop    edi
  407412:	00 b0 0c 00 00 48    	add    BYTE PTR [eax+0x4800000c],dh
  407418:	49                   	dec    ecx
  407419:	4e                   	dec    esi
  40741a:	53                   	push   ebx
  40741b:	54                   	push   esp
  40741c:	41                   	inc    ecx
  40741d:	4e                   	dec    esi
  40741e:	43                   	inc    ebx
  40741f:	45                   	inc    ebp
  407420:	00 c8                	add    al,cl
  407422:	0c 00                	or     al,0x0
  407424:	00 48 4d             	add    BYTE PTR [eax+0x4d],cl
  407427:	4f                   	dec    edi
  407428:	44                   	inc    esp
  407429:	55                   	push   ebp
  40742a:	4c                   	dec    esp
  40742b:	45                   	inc    ebp
  40742c:	00 e8                	add    al,ch
  40742e:	0c 00                	or     al,0x0
  407430:	00 70 65             	add    BYTE PTR [eax+0x65],dh
  407433:	72 5f                	jb     407494 <.debug_pubtypes+0x19f>
  407435:	70 72                	jo     4074a9 <.debug_pubtypes+0x1b4>
  407437:	6f                   	outs   dx,DWORD PTR ds:[esi]
  407438:	63 65 73             	arpl   WORD PTR [ebp+0x73],sp
  40743b:	73 00                	jae    40743d <.debug_pubtypes+0x148>
  40743d:	82                   	(bad)  
  40743e:	10 00                	adc    BYTE PTR [eax],al
  407440:	00 4d 61             	add    BYTE PTR [ebp+0x61],cl
  407443:	69 6e 46 75 6e 63 00 	imul   ebp,DWORD PTR [esi+0x46],0x636e75
  40744a:	00 00                	add    BYTE PTR [eax],al
	...

Disassembly of section .debug_info:

00408000 <.debug_info>:
  408000:	4d                   	dec    ebp
  408001:	01 00                	add    DWORD PTR [eax],eax
  408003:	00 02                	add    BYTE PTR [edx],al
  408005:	00 00                	add    BYTE PTR [eax],al
  408007:	00 00                	add    BYTE PTR [eax],al
  408009:	00 04 01             	add    BYTE PTR [ecx+eax*1],al
  40800c:	47                   	inc    edi
  40800d:	4e                   	dec    esi
  40800e:	55                   	push   ebp
  40800f:	20 43 20             	and    BYTE PTR [ebx+0x20],al
  408012:	34 2e                	xor    al,0x2e
  408014:	35 2e 33 20 32       	xor    eax,0x3220332e
  408019:	30 31                	xor    BYTE PTR [ecx],dh
  40801b:	31 30                	xor    DWORD PTR [eax],esi
  40801d:	34 32                	xor    al,0x32
  40801f:	38 20                	cmp    BYTE PTR [eax],ah
  408021:	28 46 65             	sub    BYTE PTR [esi+0x65],al
  408024:	64 6f                	outs   dx,DWORD PTR fs:[esi]
  408026:	72 61                	jb     408089 <.debug_info+0x89>
  408028:	20 43 79             	and    BYTE PTR [ebx+0x79],al
  40802b:	67 77 69             	addr16 ja 408097 <.debug_info+0x97>
  40802e:	6e                   	outs   dx,BYTE PTR ds:[esi]
  40802f:	20 34 2e             	and    BYTE PTR [esi+ebp*1],dh
  408032:	35 2e 33 2d 34       	xor    eax,0x342d332e
  408037:	29 00                	sub    DWORD PTR [eax],eax
  408039:	01 2f                	add    DWORD PTR [edi],ebp
  40803b:	75 73                	jne    4080b0 <.debug_info+0xb0>
  40803d:	72 2f                	jb     40806e <.debug_info+0x6e>
  40803f:	73 72                	jae    4080b3 <.debug_info+0xb3>
  408041:	63 2f                	arpl   WORD PTR [edi],bp
  408043:	64 65 62 75 67       	fs bound esi,QWORD PTR fs:gs:[ebp+0x67]
  408048:	2f                   	das    
  408049:	63 79 67             	arpl   WORD PTR [ecx+0x67],di
  40804c:	77 69                	ja     4080b7 <.debug_info+0xb7>
  40804e:	6e                   	outs   dx,BYTE PTR ds:[esi]
  40804f:	2d 31 2e 37 2e       	sub    eax,0x2e372e31
  408054:	31 37                	xor    DWORD PTR [edi],esi
  408056:	2d 31 2f 77 69       	sub    eax,0x69772f31
  40805b:	6e                   	outs   dx,BYTE PTR ds:[esi]
  40805c:	73 75                	jae    4080d3 <.debug_info+0xd3>
  40805e:	70 2f                	jo     40808f <.debug_info+0x8f>
  408060:	63 79 67             	arpl   WORD PTR [ecx+0x67],di
  408063:	77 69                	ja     4080ce <.debug_info+0xce>
  408065:	6e                   	outs   dx,BYTE PTR ds:[esi]
  408066:	2f                   	das    
  408067:	63 72 74             	arpl   WORD PTR [edx+0x74],si
  40806a:	30 2e                	xor    BYTE PTR [esi],ch
  40806c:	63 00                	arpl   WORD PTR [eax],ax
  40806e:	00 10                	add    BYTE PTR [eax],dl
  408070:	40                   	inc    eax
  408071:	00 87 10 40 00 00    	add    BYTE PTR [edi+0x4010],al
  408077:	00 00                	add    BYTE PTR [eax],al
  408079:	00 02                	add    BYTE PTR [edx],al
  40807b:	01 06                	add    DWORD PTR [esi],eax
  40807d:	63 68 61             	arpl   WORD PTR [eax+0x61],bp
  408080:	72 00                	jb     408082 <.debug_info+0x82>
  408082:	02 04 07             	add    al,BYTE PTR [edi+eax*1]
  408085:	6c                   	ins    BYTE PTR es:[edi],dx
  408086:	6f                   	outs   dx,DWORD PTR ds:[esi]
  408087:	6e                   	outs   dx,BYTE PTR ds:[esi]
  408088:	67 20 75 6e          	and    BYTE PTR [di+0x6e],dh
  40808c:	73 69                	jae    4080f7 <.debug_info+0xf7>
  40808e:	67 6e                	outs   dx,BYTE PTR ds:[si]
  408090:	65 64 20 69 6e       	gs and BYTE PTR fs:gs:[ecx+0x6e],ch
  408095:	74 00                	je     408097 <.debug_info+0x97>
  408097:	02 04 05 69 6e 74 00 	add    al,BYTE PTR [eax*1+0x746e69]
  40809e:	02 01                	add    al,BYTE PTR [ecx]
  4080a0:	08 75 6e             	or     BYTE PTR [ebp+0x6e],dh
  4080a3:	73 69                	jae    40810e <.debug_info+0x10e>
  4080a5:	67 6e                	outs   dx,BYTE PTR ds:[si]
  4080a7:	65 64 20 63 68       	gs and BYTE PTR fs:gs:[ebx+0x68],ah
  4080ac:	61                   	popa   
  4080ad:	72 00                	jb     4080af <.debug_info+0xaf>
  4080af:	02 02                	add    al,BYTE PTR [edx]
  4080b1:	07                   	pop    es
  4080b2:	73 68                	jae    40811c <.debug_info+0x11c>
  4080b4:	6f                   	outs   dx,DWORD PTR ds:[esi]
  4080b5:	72 74                	jb     40812b <.debug_info+0x12b>
  4080b7:	20 75 6e             	and    BYTE PTR [ebp+0x6e],dh
  4080ba:	73 69                	jae    408125 <.debug_info+0x125>
  4080bc:	67 6e                	outs   dx,BYTE PTR ds:[si]
  4080be:	65 64 20 69 6e       	gs and BYTE PTR fs:gs:[ecx+0x6e],ch
  4080c3:	74 00                	je     4080c5 <.debug_info+0xc5>
  4080c5:	02 04 04             	add    al,BYTE PTR [esp+eax*1]
  4080c8:	66                   	data16
  4080c9:	6c                   	ins    BYTE PTR es:[edi],dx
  4080ca:	6f                   	outs   dx,DWORD PTR ds:[esi]
  4080cb:	61                   	popa   
  4080cc:	74 00                	je     4080ce <.debug_info+0xce>
  4080ce:	02 04 05 6c 6f 6e 67 	add    al,BYTE PTR [eax*1+0x676e6f6c]
  4080d5:	20 69 6e             	and    BYTE PTR [ecx+0x6e],ch
  4080d8:	74 00                	je     4080da <.debug_info+0xda>
  4080da:	02 04 07             	add    al,BYTE PTR [edi+eax*1]
  4080dd:	75 6e                	jne    40814d <.debug_info+0x14d>
  4080df:	73 69                	jae    40814a <.debug_info+0x14a>
  4080e1:	67 6e                	outs   dx,BYTE PTR ds:[si]
  4080e3:	65 64 20 69 6e       	gs and BYTE PTR fs:gs:[ecx+0x6e],ch
  4080e8:	74 00                	je     4080ea <.debug_info+0xea>
  4080ea:	02 01                	add    al,BYTE PTR [ecx]
  4080ec:	06                   	push   es
  4080ed:	73 69                	jae    408158 <.debug_info+0x7>
  4080ef:	67 6e                	outs   dx,BYTE PTR ds:[si]
  4080f1:	65 64 20 63 68       	gs and BYTE PTR fs:gs:[ebx+0x68],ah
  4080f6:	61                   	popa   
  4080f7:	72 00                	jb     4080f9 <.debug_info+0xf9>
  4080f9:	02 02                	add    al,BYTE PTR [edx]
  4080fb:	05 73 68 6f 72       	add    eax,0x726f6873
  408100:	74 20                	je     408122 <.debug_info+0x122>
  408102:	69 6e 74 00 02 08 05 	imul   ebp,DWORD PTR [esi+0x74],0x5080200
  408109:	6c                   	ins    BYTE PTR es:[edi],dx
  40810a:	6f                   	outs   dx,DWORD PTR ds:[esi]
  40810b:	6e                   	outs   dx,BYTE PTR ds:[esi]
  40810c:	67 20 6c 6f          	and    BYTE PTR [si+0x6f],ch
  408110:	6e                   	outs   dx,BYTE PTR ds:[esi]
  408111:	67 20 69 6e          	and    BYTE PTR [bx+di+0x6e],ch
  408115:	74 00                	je     408117 <.debug_info+0x117>
  408117:	02 08                	add    cl,BYTE PTR [eax]
  408119:	07                   	pop    es
  40811a:	6c                   	ins    BYTE PTR es:[edi],dx
  40811b:	6f                   	outs   dx,DWORD PTR ds:[esi]
  40811c:	6e                   	outs   dx,BYTE PTR ds:[esi]
  40811d:	67 20 6c 6f          	and    BYTE PTR [si+0x6f],ch
  408121:	6e                   	outs   dx,BYTE PTR ds:[esi]
  408122:	67 20 75 6e          	and    BYTE PTR [di+0x6e],dh
  408126:	73 69                	jae    408191 <.debug_info+0x40>
  408128:	67 6e                	outs   dx,BYTE PTR ds:[si]
  40812a:	65 64 20 69 6e       	gs and BYTE PTR fs:gs:[ecx+0x6e],ch
  40812f:	74 00                	je     408131 <.debug_info+0x131>
  408131:	03 01                	add    eax,DWORD PTR [ecx]
  408133:	6d                   	ins    DWORD PTR es:[edi],dx
  408134:	61                   	popa   
  408135:	69 6e 43 52 54 53 74 	imul   ebp,DWORD PTR [esi+0x43],0x74535452
  40813c:	61                   	popa   
  40813d:	72 74                	jb     4081b3 <.debug_info+0x62>
  40813f:	75 70                	jne    4081b1 <.debug_info+0x60>
  408141:	00 01                	add    BYTE PTR [ecx],al
  408143:	16                   	push   ss
  408144:	00 10                	add    BYTE PTR [eax],dl
  408146:	40                   	inc    eax
  408147:	00 87 10 40 00 00    	add    BYTE PTR [edi+0x4010],al
  40814d:	00 00                	add    BYTE PTR [eax],al
	...

00408151 <.debug_info>:
  408151:	9f                   	lahf   
  408152:	01 00                	add    DWORD PTR [eax],eax
  408154:	00 02                	add    BYTE PTR [edx],al
  408156:	00 30                	add    BYTE PTR [eax],dh
  408158:	00 00                	add    BYTE PTR [eax],al
  40815a:	00 04 01             	add    BYTE PTR [ecx+eax*1],al
  40815d:	47                   	inc    edi
  40815e:	4e                   	dec    esi
  40815f:	55                   	push   ebp
  408160:	20 43 20             	and    BYTE PTR [ebx+0x20],al
  408163:	34 2e                	xor    al,0x2e
  408165:	35 2e 33 20 32       	xor    eax,0x3220332e
  40816a:	30 31                	xor    BYTE PTR [ecx],dh
  40816c:	31 30                	xor    DWORD PTR [eax],esi
  40816e:	34 32                	xor    al,0x32
  408170:	38 20                	cmp    BYTE PTR [eax],ah
  408172:	28 46 65             	sub    BYTE PTR [esi+0x65],al
  408175:	64 6f                	outs   dx,DWORD PTR fs:[esi]
  408177:	72 61                	jb     4081da <.debug_info+0x89>
  408179:	20 43 79             	and    BYTE PTR [ebx+0x79],al
  40817c:	67 77 69             	addr16 ja 4081e8 <.debug_info+0x97>
  40817f:	6e                   	outs   dx,BYTE PTR ds:[esi]
  408180:	20 34 2e             	and    BYTE PTR [esi+ebp*1],dh
  408183:	35 2e 33 2d 34       	xor    eax,0x342d332e
  408188:	29 00                	sub    DWORD PTR [eax],eax
  40818a:	01 2f                	add    DWORD PTR [edi],ebp
  40818c:	75 73                	jne    408201 <.debug_info+0xb0>
  40818e:	72 2f                	jb     4081bf <.debug_info+0x6e>
  408190:	73 72                	jae    408204 <.debug_info+0xb3>
  408192:	63 2f                	arpl   WORD PTR [edi],bp
  408194:	64 65 62 75 67       	fs bound esi,QWORD PTR fs:gs:[ebp+0x67]
  408199:	2f                   	das    
  40819a:	63 79 67             	arpl   WORD PTR [ecx+0x67],di
  40819d:	77 69                	ja     408208 <.debug_info+0xb7>
  40819f:	6e                   	outs   dx,BYTE PTR ds:[esi]
  4081a0:	2d 31 2e 37 2e       	sub    eax,0x2e372e31
  4081a5:	31 37                	xor    DWORD PTR [edi],esi
  4081a7:	2d 31 2f 77 69       	sub    eax,0x69772f31
  4081ac:	6e                   	outs   dx,BYTE PTR ds:[esi]
  4081ad:	73 75                	jae    408224 <.debug_info+0xd3>
  4081af:	70 2f                	jo     4081e0 <.debug_info+0x8f>
  4081b1:	63 79 67             	arpl   WORD PTR [ecx+0x67],di
  4081b4:	77 69                	ja     40821f <.debug_info+0xce>
  4081b6:	6e                   	outs   dx,BYTE PTR ds:[esi]
  4081b7:	2f                   	das    
  4081b8:	6c                   	ins    BYTE PTR es:[edi],dx
  4081b9:	69 62 2f 63 79 67 77 	imul   esp,DWORD PTR [edx+0x2f],0x77677963
  4081c0:	69 6e 5f 63 72 74 30 	imul   ebp,DWORD PTR [esi+0x5f],0x30747263
  4081c7:	2e 63 00             	arpl   WORD PTR cs:[eax],ax
  4081ca:	20 12                	and    BYTE PTR [edx],dl
  4081cc:	40                   	inc    eax
  4081cd:	00 42 12             	add    BYTE PTR [edx+0x12],al
  4081d0:	40                   	inc    eax
  4081d1:	00 6e 00             	add    BYTE PTR [esi+0x0],ch
  4081d4:	00 00                	add    BYTE PTR [eax],al
  4081d6:	02 01                	add    al,BYTE PTR [ecx]
  4081d8:	06                   	push   es
  4081d9:	63 68 61             	arpl   WORD PTR [eax+0x61],bp
  4081dc:	72 00                	jb     4081de <.debug_info+0x8d>
  4081de:	02 04 07             	add    al,BYTE PTR [edi+eax*1]
  4081e1:	6c                   	ins    BYTE PTR es:[edi],dx
  4081e2:	6f                   	outs   dx,DWORD PTR ds:[esi]
  4081e3:	6e                   	outs   dx,BYTE PTR ds:[esi]
  4081e4:	67 20 75 6e          	and    BYTE PTR [di+0x6e],dh
  4081e8:	73 69                	jae    408253 <.debug_info+0x102>
  4081ea:	67 6e                	outs   dx,BYTE PTR ds:[si]
  4081ec:	65 64 20 69 6e       	gs and BYTE PTR fs:gs:[ecx+0x6e],ch
  4081f1:	74 00                	je     4081f3 <.debug_info+0xa2>
  4081f3:	02 04 05 69 6e 74 00 	add    al,BYTE PTR [eax*1+0x746e69]
  4081fa:	02 01                	add    al,BYTE PTR [ecx]
  4081fc:	08 75 6e             	or     BYTE PTR [ebp+0x6e],dh
  4081ff:	73 69                	jae    40826a <.debug_info+0x119>
  408201:	67 6e                	outs   dx,BYTE PTR ds:[si]
  408203:	65 64 20 63 68       	gs and BYTE PTR fs:gs:[ebx+0x68],ah
  408208:	61                   	popa   
  408209:	72 00                	jb     40820b <.debug_info+0xba>
  40820b:	02 02                	add    al,BYTE PTR [edx]
  40820d:	07                   	pop    es
  40820e:	73 68                	jae    408278 <.debug_info+0x127>
  408210:	6f                   	outs   dx,DWORD PTR ds:[esi]
  408211:	72 74                	jb     408287 <.debug_info+0x136>
  408213:	20 75 6e             	and    BYTE PTR [ebp+0x6e],dh
  408216:	73 69                	jae    408281 <.debug_info+0x130>
  408218:	67 6e                	outs   dx,BYTE PTR ds:[si]
  40821a:	65 64 20 69 6e       	gs and BYTE PTR fs:gs:[ecx+0x6e],ch
  40821f:	74 00                	je     408221 <.debug_info+0xd0>
  408221:	02 04 04             	add    al,BYTE PTR [esp+eax*1]
  408224:	66                   	data16
  408225:	6c                   	ins    BYTE PTR es:[edi],dx
  408226:	6f                   	outs   dx,DWORD PTR ds:[esi]
  408227:	61                   	popa   
  408228:	74 00                	je     40822a <.debug_info+0xd9>
  40822a:	02 04 05 6c 6f 6e 67 	add    al,BYTE PTR [eax*1+0x676e6f6c]
  408231:	20 69 6e             	and    BYTE PTR [ecx+0x6e],ch
  408234:	74 00                	je     408236 <.debug_info+0xe5>
  408236:	02 04 07             	add    al,BYTE PTR [edi+eax*1]
  408239:	75 6e                	jne    4082a9 <.debug_info+0x158>
  40823b:	73 69                	jae    4082a6 <.debug_info+0x155>
  40823d:	67 6e                	outs   dx,BYTE PTR ds:[si]
  40823f:	65 64 20 69 6e       	gs and BYTE PTR fs:gs:[ecx+0x6e],ch
  408244:	74 00                	je     408246 <.debug_info+0xf5>
  408246:	02 01                	add    al,BYTE PTR [ecx]
  408248:	06                   	push   es
  408249:	73 69                	jae    4082b4 <.debug_info+0x163>
  40824b:	67 6e                	outs   dx,BYTE PTR ds:[si]
  40824d:	65 64 20 63 68       	gs and BYTE PTR fs:gs:[ebx+0x68],ah
  408252:	61                   	popa   
  408253:	72 00                	jb     408255 <.debug_info+0x104>
  408255:	02 02                	add    al,BYTE PTR [edx]
  408257:	05 73 68 6f 72       	add    eax,0x726f6873
  40825c:	74 20                	je     40827e <.debug_info+0x12d>
  40825e:	69 6e 74 00 02 08 05 	imul   ebp,DWORD PTR [esi+0x74],0x5080200
  408265:	6c                   	ins    BYTE PTR es:[edi],dx
  408266:	6f                   	outs   dx,DWORD PTR ds:[esi]
  408267:	6e                   	outs   dx,BYTE PTR ds:[esi]
  408268:	67 20 6c 6f          	and    BYTE PTR [si+0x6f],ch
  40826c:	6e                   	outs   dx,BYTE PTR ds:[esi]
  40826d:	67 20 69 6e          	and    BYTE PTR [bx+di+0x6e],ch
  408271:	74 00                	je     408273 <.debug_info+0x122>
  408273:	02 08                	add    cl,BYTE PTR [eax]
  408275:	07                   	pop    es
  408276:	6c                   	ins    BYTE PTR es:[edi],dx
  408277:	6f                   	outs   dx,DWORD PTR ds:[esi]
  408278:	6e                   	outs   dx,BYTE PTR ds:[esi]
  408279:	67 20 6c 6f          	and    BYTE PTR [si+0x6f],ch
  40827d:	6e                   	outs   dx,BYTE PTR ds:[esi]
  40827e:	67 20 75 6e          	and    BYTE PTR [di+0x6e],dh
  408282:	73 69                	jae    4082ed <.debug_info+0x19c>
  408284:	67 6e                	outs   dx,BYTE PTR ds:[si]
  408286:	65 64 20 69 6e       	gs and BYTE PTR fs:gs:[ecx+0x6e],ch
  40828b:	74 00                	je     40828d <.debug_info+0x13c>
  40828d:	03 04 85 00 00 00 04 	add    eax,DWORD PTR [eax*4+0x4000000]
  408294:	4d                   	dec    ebp
  408295:	61                   	popa   
  408296:	69 6e 46 75 6e 63 00 	imul   ebp,DWORD PTR [esi+0x46],0x636e75
  40829d:	02 11                	add    dl,BYTE PTR [ecx]
  40829f:	52                   	push   edx
  4082a0:	01 00                	add    DWORD PTR [eax],eax
  4082a2:	00 03                	add    BYTE PTR [ebx],al
  4082a4:	04 58                	add    al,0x58
  4082a6:	01 00                	add    DWORD PTR [eax],eax
  4082a8:	00 05 01 a2 00 00    	add    BYTE PTR ds:0xa201,al
  4082ae:	00 72 01             	add    BYTE PTR [edx+0x1],dh
  4082b1:	00 00                	add    BYTE PTR [eax],al
  4082b3:	06                   	push   es
  4082b4:	a2 00 00 00 06       	mov    ds:0x6000000,al
  4082b9:	72 01                	jb     4082bc <.debug_info+0x16b>
  4082bb:	00 00                	add    BYTE PTR [eax],al
  4082bd:	06                   	push   es
  4082be:	72 01                	jb     4082c1 <.debug_info+0x170>
  4082c0:	00 00                	add    BYTE PTR [eax],al
  4082c2:	00 03                	add    BYTE PTR [ebx],al
  4082c4:	04 3c                	add    al,0x3c
  4082c6:	01 00                	add    DWORD PTR [eax],eax
  4082c8:	00 07                	add    BYTE PTR [edi],al
  4082ca:	01 63 79             	add    DWORD PTR [ebx+0x79],esp
  4082cd:	67 77 69             	addr16 ja 408339 <.debug_info+0x45>
  4082d0:	6e                   	outs   dx,BYTE PTR ds:[esi]
  4082d1:	5f                   	pop    edi
  4082d2:	63 72 74             	arpl   WORD PTR [edx+0x74],si
  4082d5:	30 00                	xor    BYTE PTR [eax],al
  4082d7:	01 13                	add    DWORD PTR [ebx],edx
  4082d9:	01 20                	add    DWORD PTR [eax],esp
  4082db:	12 40 00             	adc    al,BYTE PTR [eax+0x0]
  4082de:	42                   	inc    edx
  4082df:	12 40 00             	adc    al,BYTE PTR [eax+0x0]
  4082e2:	38 00                	cmp    BYTE PTR [eax],al
  4082e4:	00 00                	add    BYTE PTR [eax],al
  4082e6:	08 66 00             	or     BYTE PTR [esi+0x0],ah
  4082e9:	01 13                	add    DWORD PTR [ebx],edx
  4082eb:	42                   	inc    edx
  4082ec:	01 00                	add    DWORD PTR [eax],eax
  4082ee:	00 02                	add    BYTE PTR [edx],al
  4082f0:	91                   	xchg   ecx,eax
  4082f1:	00 00                	add    BYTE PTR [eax],al
	...

004082f4 <.debug_info>:
  4082f4:	de 00                	fiadd  WORD PTR [eax]
  4082f6:	00 00                	add    BYTE PTR [eax],al
  4082f8:	02 00                	add    al,BYTE PTR [eax]
  4082fa:	99                   	cdq    
  4082fb:	00 00                	add    BYTE PTR [eax],al
  4082fd:	00 04 01             	add    BYTE PTR [ecx+eax*1],al
  408300:	47                   	inc    edi
  408301:	4e                   	dec    esi
  408302:	55                   	push   ebp
  408303:	20 43 20             	and    BYTE PTR [ebx+0x20],al
  408306:	34 2e                	xor    al,0x2e
  408308:	35 2e 33 20 32       	xor    eax,0x3220332e
  40830d:	30 31                	xor    BYTE PTR [ecx],dh
  40830f:	31 30                	xor    DWORD PTR [eax],esi
  408311:	34 32                	xor    al,0x32
  408313:	38 20                	cmp    BYTE PTR [eax],ah
  408315:	28 46 65             	sub    BYTE PTR [esi+0x65],al
  408318:	64 6f                	outs   dx,DWORD PTR fs:[esi]
  40831a:	72 61                	jb     40837d <.debug_info+0x89>
  40831c:	20 43 79             	and    BYTE PTR [ebx+0x79],al
  40831f:	67 77 69             	addr16 ja 40838b <.debug_info+0x97>
  408322:	6e                   	outs   dx,BYTE PTR ds:[esi]
  408323:	20 34 2e             	and    BYTE PTR [esi+ebp*1],dh
  408326:	35 2e 33 2d 34       	xor    eax,0x342d332e
  40832b:	29 00                	sub    DWORD PTR [eax],eax
  40832d:	01 2f                	add    DWORD PTR [edi],ebp
  40832f:	75 73                	jne    4083a4 <.debug_info+0xb0>
  408331:	72 2f                	jb     408362 <.debug_info+0x6e>
  408333:	73 72                	jae    4083a7 <.debug_info+0xb3>
  408335:	63 2f                	arpl   WORD PTR [edi],bp
  408337:	64 65 62 75 67       	fs bound esi,QWORD PTR fs:gs:[ebp+0x67]
  40833c:	2f                   	das    
  40833d:	63 79 67             	arpl   WORD PTR [ecx+0x67],di
  408340:	77 69                	ja     4083ab <.debug_info+0xb7>
  408342:	6e                   	outs   dx,BYTE PTR ds:[esi]
  408343:	2d 31 2e 37 2e       	sub    eax,0x2e372e31
  408348:	31 37                	xor    DWORD PTR [edi],esi
  40834a:	2d 31 2f 77 69       	sub    eax,0x69772f31
  40834f:	6e                   	outs   dx,BYTE PTR ds:[esi]
  408350:	73 75                	jae    4083c7 <.debug_info+0xd3>
  408352:	70 2f                	jo     408383 <.debug_info+0x8f>
  408354:	63 79 67             	arpl   WORD PTR [ecx+0x67],di
  408357:	77 69                	ja     4083c2 <.debug_info+0xce>
  408359:	6e                   	outs   dx,BYTE PTR ds:[esi]
  40835a:	2f                   	das    
  40835b:	6c                   	ins    BYTE PTR es:[edi],dx
  40835c:	69 62 2f 70 72 65 6d 	imul   esp,DWORD PTR [edx+0x2f],0x6d657270
  408363:	61                   	popa   
  408364:	69 6e 30 2e 63 00 50 	imul   ebp,DWORD PTR [esi+0x30],0x5000632e
  40836b:	12 40 00             	adc    al,BYTE PTR [eax+0x0]
  40836e:	55                   	push   ebp
  40836f:	12 40 00             	adc    al,BYTE PTR [eax+0x0]
  408372:	e9 00 00 00 02       	jmp    2408377 <.debug_ranges+0x1ff7377>
  408377:	01 63 79             	add    DWORD PTR [ebx+0x79],esp
  40837a:	67 77 69             	addr16 ja 4083e6 <.debug_info+0x10>
  40837d:	6e                   	outs   dx,BYTE PTR ds:[esi]
  40837e:	5f                   	pop    edi
  40837f:	70 72                	jo     4083f3 <.debug_info+0x1d>
  408381:	65                   	gs
  408382:	6d                   	ins    DWORD PTR es:[edi],dx
  408383:	61                   	popa   
  408384:	69 6e 30 00 01 0c 01 	imul   ebp,DWORD PTR [esi+0x30],0x10c0100
  40838b:	50                   	push   eax
  40838c:	12 40 00             	adc    al,BYTE PTR [eax+0x0]
  40838f:	55                   	push   ebp
  408390:	12 40 00             	adc    al,BYTE PTR [eax+0x0]
  408393:	64 00 00             	add    BYTE PTR fs:[eax],al
  408396:	00 c6                	add    dh,al
  408398:	00 00                	add    BYTE PTR [eax],al
  40839a:	00 03                	add    BYTE PTR [ebx],al
  40839c:	61                   	popa   
  40839d:	72 67                	jb     408406 <.debug_info+0x30>
  40839f:	63 00                	arpl   WORD PTR [eax],ax
  4083a1:	01 0c c6             	add    DWORD PTR [esi+eax*8],ecx
  4083a4:	00 00                	add    BYTE PTR [eax],al
  4083a6:	00 02                	add    BYTE PTR [edx],al
  4083a8:	91                   	xchg   ecx,eax
  4083a9:	00 03                	add    BYTE PTR [ebx],al
  4083ab:	61                   	popa   
  4083ac:	72 67                	jb     408415 <.debug_info+0x3f>
  4083ae:	76 00                	jbe    4083b0 <.debug_info+0xbc>
  4083b0:	01 0c cd 00 00 00 02 	add    DWORD PTR [ecx*8+0x2000000],ecx
  4083b7:	91                   	xchg   ecx,eax
  4083b8:	04 00                	add    al,0x0
  4083ba:	04 04                	add    al,0x4
  4083bc:	05 69 6e 74 00       	add    eax,0x746e69
  4083c1:	05 04 d3 00 00       	add    eax,0xd304
  4083c6:	00 05 04 d9 00 00    	add    BYTE PTR ds:0xd904,al
  4083cc:	00 04 01             	add    BYTE PTR [ecx+eax*1],al
  4083cf:	06                   	push   es
  4083d0:	63 68 61             	arpl   WORD PTR [eax+0x61],bp
  4083d3:	72 00                	jb     4083d5 <.debug_info+0xe1>
	...

004083d6 <.debug_info>:
  4083d6:	de 00                	fiadd  WORD PTR [eax]
  4083d8:	00 00                	add    BYTE PTR [eax],al
  4083da:	02 00                	add    al,BYTE PTR [eax]
  4083dc:	e5 00                	in     eax,0x0
  4083de:	00 00                	add    BYTE PTR [eax],al
  4083e0:	04 01                	add    al,0x1
  4083e2:	47                   	inc    edi
  4083e3:	4e                   	dec    esi
  4083e4:	55                   	push   ebp
  4083e5:	20 43 20             	and    BYTE PTR [ebx+0x20],al
  4083e8:	34 2e                	xor    al,0x2e
  4083ea:	35 2e 33 20 32       	xor    eax,0x3220332e
  4083ef:	30 31                	xor    BYTE PTR [ecx],dh
  4083f1:	31 30                	xor    DWORD PTR [eax],esi
  4083f3:	34 32                	xor    al,0x32
  4083f5:	38 20                	cmp    BYTE PTR [eax],ah
  4083f7:	28 46 65             	sub    BYTE PTR [esi+0x65],al
  4083fa:	64 6f                	outs   dx,DWORD PTR fs:[esi]
  4083fc:	72 61                	jb     40845f <.debug_info+0x89>
  4083fe:	20 43 79             	and    BYTE PTR [ebx+0x79],al
  408401:	67 77 69             	addr16 ja 40846d <.debug_info+0x97>
  408404:	6e                   	outs   dx,BYTE PTR ds:[esi]
  408405:	20 34 2e             	and    BYTE PTR [esi+ebp*1],dh
  408408:	35 2e 33 2d 34       	xor    eax,0x342d332e
  40840d:	29 00                	sub    DWORD PTR [eax],eax
  40840f:	01 2f                	add    DWORD PTR [edi],ebp
  408411:	75 73                	jne    408486 <.debug_info+0xb0>
  408413:	72 2f                	jb     408444 <.debug_info+0x6e>
  408415:	73 72                	jae    408489 <.debug_info+0xb3>
  408417:	63 2f                	arpl   WORD PTR [edi],bp
  408419:	64 65 62 75 67       	fs bound esi,QWORD PTR fs:gs:[ebp+0x67]
  40841e:	2f                   	das    
  40841f:	63 79 67             	arpl   WORD PTR [ecx+0x67],di
  408422:	77 69                	ja     40848d <.debug_info+0xb7>
  408424:	6e                   	outs   dx,BYTE PTR ds:[esi]
  408425:	2d 31 2e 37 2e       	sub    eax,0x2e372e31
  40842a:	31 37                	xor    DWORD PTR [edi],esi
  40842c:	2d 31 2f 77 69       	sub    eax,0x69772f31
  408431:	6e                   	outs   dx,BYTE PTR ds:[esi]
  408432:	73 75                	jae    4084a9 <.debug_info+0xd3>
  408434:	70 2f                	jo     408465 <.debug_info+0x8f>
  408436:	63 79 67             	arpl   WORD PTR [ecx+0x67],di
  408439:	77 69                	ja     4084a4 <.debug_info+0xce>
  40843b:	6e                   	outs   dx,BYTE PTR ds:[esi]
  40843c:	2f                   	das    
  40843d:	6c                   	ins    BYTE PTR es:[edi],dx
  40843e:	69 62 2f 70 72 65 6d 	imul   esp,DWORD PTR [edx+0x2f],0x6d657270
  408445:	61                   	popa   
  408446:	69 6e 31 2e 63 00 60 	imul   ebp,DWORD PTR [esi+0x31],0x6000632e
  40844d:	12 40 00             	adc    al,BYTE PTR [eax+0x0]
  408450:	65 12 40 00          	adc    al,BYTE PTR gs:[eax+0x0]
  408454:	55                   	push   ebp
  408455:	01 00                	add    DWORD PTR [eax],eax
  408457:	00 02                	add    BYTE PTR [edx],al
  408459:	01 63 79             	add    DWORD PTR [ebx+0x79],esp
  40845c:	67 77 69             	addr16 ja 4084c8 <.debug_info+0x10>
  40845f:	6e                   	outs   dx,BYTE PTR ds:[esi]
  408460:	5f                   	pop    edi
  408461:	70 72                	jo     4084d5 <.debug_info+0x1d>
  408463:	65                   	gs
  408464:	6d                   	ins    DWORD PTR es:[edi],dx
  408465:	61                   	popa   
  408466:	69 6e 31 00 01 0c 01 	imul   ebp,DWORD PTR [esi+0x31],0x10c0100
  40846d:	60                   	pusha  
  40846e:	12 40 00             	adc    al,BYTE PTR [eax+0x0]
  408471:	65 12 40 00          	adc    al,BYTE PTR gs:[eax+0x0]
  408475:	9c                   	pushf  
  408476:	00 00                	add    BYTE PTR [eax],al
  408478:	00 c6                	add    dh,al
  40847a:	00 00                	add    BYTE PTR [eax],al
  40847c:	00 03                	add    BYTE PTR [ebx],al
  40847e:	61                   	popa   
  40847f:	72 67                	jb     4084e8 <.debug_info+0x30>
  408481:	63 00                	arpl   WORD PTR [eax],ax
  408483:	01 0c c6             	add    DWORD PTR [esi+eax*8],ecx
  408486:	00 00                	add    BYTE PTR [eax],al
  408488:	00 02                	add    BYTE PTR [edx],al
  40848a:	91                   	xchg   ecx,eax
  40848b:	00 03                	add    BYTE PTR [ebx],al
  40848d:	61                   	popa   
  40848e:	72 67                	jb     4084f7 <.debug_info+0x3f>
  408490:	76 00                	jbe    408492 <.debug_info+0xbc>
  408492:	01 0c cd 00 00 00 02 	add    DWORD PTR [ecx*8+0x2000000],ecx
  408499:	91                   	xchg   ecx,eax
  40849a:	04 00                	add    al,0x0
  40849c:	04 04                	add    al,0x4
  40849e:	05 69 6e 74 00       	add    eax,0x746e69
  4084a3:	05 04 d3 00 00       	add    eax,0xd304
  4084a8:	00 05 04 d9 00 00    	add    BYTE PTR ds:0xd904,al
  4084ae:	00 04 01             	add    BYTE PTR [ecx+eax*1],al
  4084b1:	06                   	push   es
  4084b2:	63 68 61             	arpl   WORD PTR [eax+0x61],bp
  4084b5:	72 00                	jb     4084b7 <.debug_info+0xe1>
	...

004084b8 <.debug_info>:
  4084b8:	de 00                	fiadd  WORD PTR [eax]
  4084ba:	00 00                	add    BYTE PTR [eax],al
  4084bc:	02 00                	add    al,BYTE PTR [eax]
  4084be:	31 01                	xor    DWORD PTR [ecx],eax
  4084c0:	00 00                	add    BYTE PTR [eax],al
  4084c2:	04 01                	add    al,0x1
  4084c4:	47                   	inc    edi
  4084c5:	4e                   	dec    esi
  4084c6:	55                   	push   ebp
  4084c7:	20 43 20             	and    BYTE PTR [ebx+0x20],al
  4084ca:	34 2e                	xor    al,0x2e
  4084cc:	35 2e 33 20 32       	xor    eax,0x3220332e
  4084d1:	30 31                	xor    BYTE PTR [ecx],dh
  4084d3:	31 30                	xor    DWORD PTR [eax],esi
  4084d5:	34 32                	xor    al,0x32
  4084d7:	38 20                	cmp    BYTE PTR [eax],ah
  4084d9:	28 46 65             	sub    BYTE PTR [esi+0x65],al
  4084dc:	64 6f                	outs   dx,DWORD PTR fs:[esi]
  4084de:	72 61                	jb     408541 <.debug_info+0x89>
  4084e0:	20 43 79             	and    BYTE PTR [ebx+0x79],al
  4084e3:	67 77 69             	addr16 ja 40854f <.debug_info+0x97>
  4084e6:	6e                   	outs   dx,BYTE PTR ds:[esi]
  4084e7:	20 34 2e             	and    BYTE PTR [esi+ebp*1],dh
  4084ea:	35 2e 33 2d 34       	xor    eax,0x342d332e
  4084ef:	29 00                	sub    DWORD PTR [eax],eax
  4084f1:	01 2f                	add    DWORD PTR [edi],ebp
  4084f3:	75 73                	jne    408568 <.debug_info+0xb0>
  4084f5:	72 2f                	jb     408526 <.debug_info+0x6e>
  4084f7:	73 72                	jae    40856b <.debug_info+0xb3>
  4084f9:	63 2f                	arpl   WORD PTR [edi],bp
  4084fb:	64 65 62 75 67       	fs bound esi,QWORD PTR fs:gs:[ebp+0x67]
  408500:	2f                   	das    
  408501:	63 79 67             	arpl   WORD PTR [ecx+0x67],di
  408504:	77 69                	ja     40856f <.debug_info+0xb7>
  408506:	6e                   	outs   dx,BYTE PTR ds:[esi]
  408507:	2d 31 2e 37 2e       	sub    eax,0x2e372e31
  40850c:	31 37                	xor    DWORD PTR [edi],esi
  40850e:	2d 31 2f 77 69       	sub    eax,0x69772f31
  408513:	6e                   	outs   dx,BYTE PTR ds:[esi]
  408514:	73 75                	jae    40858b <.debug_info+0xd3>
  408516:	70 2f                	jo     408547 <.debug_info+0x8f>
  408518:	63 79 67             	arpl   WORD PTR [ecx+0x67],di
  40851b:	77 69                	ja     408586 <.debug_info+0xce>
  40851d:	6e                   	outs   dx,BYTE PTR ds:[esi]
  40851e:	2f                   	das    
  40851f:	6c                   	ins    BYTE PTR es:[edi],dx
  408520:	69 62 2f 70 72 65 6d 	imul   esp,DWORD PTR [edx+0x2f],0x6d657270
  408527:	61                   	popa   
  408528:	69 6e 32 2e 63 00 70 	imul   ebp,DWORD PTR [esi+0x32],0x7000632e
  40852f:	12 40 00             	adc    al,BYTE PTR [eax+0x0]
  408532:	75 12                	jne    408546 <.debug_info+0x8e>
  408534:	40                   	inc    eax
  408535:	00 c1                	add    cl,al
  408537:	01 00                	add    DWORD PTR [eax],eax
  408539:	00 02                	add    BYTE PTR [edx],al
  40853b:	01 63 79             	add    DWORD PTR [ebx+0x79],esp
  40853e:	67 77 69             	addr16 ja 4085aa <.debug_info+0x10>
  408541:	6e                   	outs   dx,BYTE PTR ds:[esi]
  408542:	5f                   	pop    edi
  408543:	70 72                	jo     4085b7 <.debug_info+0x1d>
  408545:	65                   	gs
  408546:	6d                   	ins    DWORD PTR es:[edi],dx
  408547:	61                   	popa   
  408548:	69 6e 32 00 01 0c 01 	imul   ebp,DWORD PTR [esi+0x32],0x10c0100
  40854f:	70 12                	jo     408563 <.debug_info+0xab>
  408551:	40                   	inc    eax
  408552:	00 75 12             	add    BYTE PTR [ebp+0x12],dh
  408555:	40                   	inc    eax
  408556:	00 d4                	add    ah,dl
  408558:	00 00                	add    BYTE PTR [eax],al
  40855a:	00 c6                	add    dh,al
  40855c:	00 00                	add    BYTE PTR [eax],al
  40855e:	00 03                	add    BYTE PTR [ebx],al
  408560:	61                   	popa   
  408561:	72 67                	jb     4085ca <.debug_info+0x30>
  408563:	63 00                	arpl   WORD PTR [eax],ax
  408565:	01 0c c6             	add    DWORD PTR [esi+eax*8],ecx
  408568:	00 00                	add    BYTE PTR [eax],al
  40856a:	00 02                	add    BYTE PTR [edx],al
  40856c:	91                   	xchg   ecx,eax
  40856d:	00 03                	add    BYTE PTR [ebx],al
  40856f:	61                   	popa   
  408570:	72 67                	jb     4085d9 <.debug_info+0x3f>
  408572:	76 00                	jbe    408574 <.debug_info+0xbc>
  408574:	01 0c cd 00 00 00 02 	add    DWORD PTR [ecx*8+0x2000000],ecx
  40857b:	91                   	xchg   ecx,eax
  40857c:	04 00                	add    al,0x0
  40857e:	04 04                	add    al,0x4
  408580:	05 69 6e 74 00       	add    eax,0x746e69
  408585:	05 04 d3 00 00       	add    eax,0xd304
  40858a:	00 05 04 d9 00 00    	add    BYTE PTR ds:0xd904,al
  408590:	00 04 01             	add    BYTE PTR [ecx+eax*1],al
  408593:	06                   	push   es
  408594:	63 68 61             	arpl   WORD PTR [eax+0x61],bp
  408597:	72 00                	jb     408599 <.debug_info+0xe1>
	...

0040859a <.debug_info>:
  40859a:	de 00                	fiadd  WORD PTR [eax]
  40859c:	00 00                	add    BYTE PTR [eax],al
  40859e:	02 00                	add    al,BYTE PTR [eax]
  4085a0:	7d 01                	jge    4085a3 <.debug_info+0x9>
  4085a2:	00 00                	add    BYTE PTR [eax],al
  4085a4:	04 01                	add    al,0x1
  4085a6:	47                   	inc    edi
  4085a7:	4e                   	dec    esi
  4085a8:	55                   	push   ebp
  4085a9:	20 43 20             	and    BYTE PTR [ebx+0x20],al
  4085ac:	34 2e                	xor    al,0x2e
  4085ae:	35 2e 33 20 32       	xor    eax,0x3220332e
  4085b3:	30 31                	xor    BYTE PTR [ecx],dh
  4085b5:	31 30                	xor    DWORD PTR [eax],esi
  4085b7:	34 32                	xor    al,0x32
  4085b9:	38 20                	cmp    BYTE PTR [eax],ah
  4085bb:	28 46 65             	sub    BYTE PTR [esi+0x65],al
  4085be:	64 6f                	outs   dx,DWORD PTR fs:[esi]
  4085c0:	72 61                	jb     408623 <.debug_info+0x89>
  4085c2:	20 43 79             	and    BYTE PTR [ebx+0x79],al
  4085c5:	67 77 69             	addr16 ja 408631 <.debug_info+0x97>
  4085c8:	6e                   	outs   dx,BYTE PTR ds:[esi]
  4085c9:	20 34 2e             	and    BYTE PTR [esi+ebp*1],dh
  4085cc:	35 2e 33 2d 34       	xor    eax,0x342d332e
  4085d1:	29 00                	sub    DWORD PTR [eax],eax
  4085d3:	01 2f                	add    DWORD PTR [edi],ebp
  4085d5:	75 73                	jne    40864a <.debug_info+0xb0>
  4085d7:	72 2f                	jb     408608 <.debug_info+0x6e>
  4085d9:	73 72                	jae    40864d <.debug_info+0xb3>
  4085db:	63 2f                	arpl   WORD PTR [edi],bp
  4085dd:	64 65 62 75 67       	fs bound esi,QWORD PTR fs:gs:[ebp+0x67]
  4085e2:	2f                   	das    
  4085e3:	63 79 67             	arpl   WORD PTR [ecx+0x67],di
  4085e6:	77 69                	ja     408651 <.debug_info+0xb7>
  4085e8:	6e                   	outs   dx,BYTE PTR ds:[esi]
  4085e9:	2d 31 2e 37 2e       	sub    eax,0x2e372e31
  4085ee:	31 37                	xor    DWORD PTR [edi],esi
  4085f0:	2d 31 2f 77 69       	sub    eax,0x69772f31
  4085f5:	6e                   	outs   dx,BYTE PTR ds:[esi]
  4085f6:	73 75                	jae    40866d <.debug_info+0xd3>
  4085f8:	70 2f                	jo     408629 <.debug_info+0x8f>
  4085fa:	63 79 67             	arpl   WORD PTR [ecx+0x67],di
  4085fd:	77 69                	ja     408668 <.debug_info+0xce>
  4085ff:	6e                   	outs   dx,BYTE PTR ds:[esi]
  408600:	2f                   	das    
  408601:	6c                   	ins    BYTE PTR es:[edi],dx
  408602:	69 62 2f 70 72 65 6d 	imul   esp,DWORD PTR [edx+0x2f],0x6d657270
  408609:	61                   	popa   
  40860a:	69 6e 33 2e 63 00 80 	imul   ebp,DWORD PTR [esi+0x33],0x8000632e
  408611:	12 40 00             	adc    al,BYTE PTR [eax+0x0]
  408614:	85 12                	test   DWORD PTR [edx],edx
  408616:	40                   	inc    eax
  408617:	00 2d 02 00 00 02    	add    BYTE PTR ds:0x2000002,ch
  40861d:	01 63 79             	add    DWORD PTR [ebx+0x79],esp
  408620:	67 77 69             	addr16 ja 40868c <.debug_info+0x10>
  408623:	6e                   	outs   dx,BYTE PTR ds:[esi]
  408624:	5f                   	pop    edi
  408625:	70 72                	jo     408699 <.debug_info+0x1d>
  408627:	65                   	gs
  408628:	6d                   	ins    DWORD PTR es:[edi],dx
  408629:	61                   	popa   
  40862a:	69 6e 33 00 01 0c 01 	imul   ebp,DWORD PTR [esi+0x33],0x10c0100
  408631:	80 12 40             	adc    BYTE PTR [edx],0x40
  408634:	00 85 12 40 00 0c    	add    BYTE PTR [ebp+0xc004012],al
  40863a:	01 00                	add    DWORD PTR [eax],eax
  40863c:	00 c6                	add    dh,al
  40863e:	00 00                	add    BYTE PTR [eax],al
  408640:	00 03                	add    BYTE PTR [ebx],al
  408642:	61                   	popa   
  408643:	72 67                	jb     4086ac <.debug_info+0x30>
  408645:	63 00                	arpl   WORD PTR [eax],ax
  408647:	01 0c c6             	add    DWORD PTR [esi+eax*8],ecx
  40864a:	00 00                	add    BYTE PTR [eax],al
  40864c:	00 02                	add    BYTE PTR [edx],al
  40864e:	91                   	xchg   ecx,eax
  40864f:	00 03                	add    BYTE PTR [ebx],al
  408651:	61                   	popa   
  408652:	72 67                	jb     4086bb <.debug_info+0x3f>
  408654:	76 00                	jbe    408656 <.debug_info+0xbc>
  408656:	01 0c cd 00 00 00 02 	add    DWORD PTR [ecx*8+0x2000000],ecx
  40865d:	91                   	xchg   ecx,eax
  40865e:	04 00                	add    al,0x0
  408660:	04 04                	add    al,0x4
  408662:	05 69 6e 74 00       	add    eax,0x746e69
  408667:	05 04 d3 00 00       	add    eax,0xd304
  40866c:	00 05 04 d9 00 00    	add    BYTE PTR ds:0xd904,al
  408672:	00 04 01             	add    BYTE PTR [ecx+eax*1],al
  408675:	06                   	push   es
  408676:	63 68 61             	arpl   WORD PTR [eax+0x61],bp
  408679:	72 00                	jb     40867b <.debug_info+0xe1>
	...

0040867c <.debug_info>:
  40867c:	3b 1e                	cmp    ebx,DWORD PTR [esi]
  40867e:	00 00                	add    BYTE PTR [eax],al
  408680:	02 00                	add    al,BYTE PTR [eax]
  408682:	c9                   	leave  
  408683:	01 00                	add    DWORD PTR [eax],eax
  408685:	00 04 01             	add    BYTE PTR [ecx+eax*1],al
  408688:	47                   	inc    edi
  408689:	4e                   	dec    esi
  40868a:	55                   	push   ebp
  40868b:	20 43 2b             	and    BYTE PTR [ebx+0x2b],al
  40868e:	2b 20                	sub    esp,DWORD PTR [eax]
  408690:	34 2e                	xor    al,0x2e
  408692:	35 2e 33 20 32       	xor    eax,0x3220332e
  408697:	30 31                	xor    BYTE PTR [ecx],dh
  408699:	31 30                	xor    DWORD PTR [eax],esi
  40869b:	34 32                	xor    al,0x32
  40869d:	38 20                	cmp    BYTE PTR [eax],ah
  40869f:	28 46 65             	sub    BYTE PTR [esi+0x65],al
  4086a2:	64 6f                	outs   dx,DWORD PTR fs:[esi]
  4086a4:	72 61                	jb     408707 <.debug_info+0x8b>
  4086a6:	20 43 79             	and    BYTE PTR [ebx+0x79],al
  4086a9:	67 77 69             	addr16 ja 408715 <.debug_info+0x99>
  4086ac:	6e                   	outs   dx,BYTE PTR ds:[esi]
  4086ad:	20 34 2e             	and    BYTE PTR [esi+ebp*1],dh
  4086b0:	35 2e 33 2d 34       	xor    eax,0x342d332e
  4086b5:	29 00                	sub    DWORD PTR [eax],eax
  4086b7:	04 2f                	add    al,0x2f
  4086b9:	75 73                	jne    40872e <.debug_info+0xb2>
  4086bb:	72 2f                	jb     4086ec <.debug_info+0x70>
  4086bd:	73 72                	jae    408731 <.debug_info+0xb5>
  4086bf:	63 2f                	arpl   WORD PTR [edi],bp
  4086c1:	64 65 62 75 67       	fs bound esi,QWORD PTR fs:gs:[ebp+0x67]
  4086c6:	2f                   	das    
  4086c7:	63 79 67             	arpl   WORD PTR [ecx+0x67],di
  4086ca:	77 69                	ja     408735 <.debug_info+0xb9>
  4086cc:	6e                   	outs   dx,BYTE PTR ds:[esi]
  4086cd:	2d 31 2e 37 2e       	sub    eax,0x2e372e31
  4086d2:	31 37                	xor    DWORD PTR [edi],esi
  4086d4:	2d 31 2f 77 69       	sub    eax,0x69772f31
  4086d9:	6e                   	outs   dx,BYTE PTR ds:[esi]
  4086da:	73 75                	jae    408751 <.debug_info+0xd5>
  4086dc:	70 2f                	jo     40870d <.debug_info+0x91>
  4086de:	63 79 67             	arpl   WORD PTR [ecx+0x67],di
  4086e1:	77 69                	ja     40874c <.debug_info+0xd0>
  4086e3:	6e                   	outs   dx,BYTE PTR ds:[esi]
  4086e4:	2f                   	das    
  4086e5:	6c                   	ins    BYTE PTR es:[edi],dx
  4086e6:	69 62 2f 5f 63 79 67 	imul   esp,DWORD PTR [edx+0x2f],0x6779635f
  4086ed:	77 69                	ja     408758 <.debug_info+0xdc>
  4086ef:	6e                   	outs   dx,BYTE PTR ds:[esi]
  4086f0:	5f                   	pop    edi
  4086f1:	63 72 74             	arpl   WORD PTR [edx+0x74],si
  4086f4:	30 5f 63             	xor    BYTE PTR [edi+0x63],bl
  4086f7:	6f                   	outs   dx,DWORD PTR ds:[esi]
  4086f8:	6d                   	ins    DWORD PTR es:[edi],dx
  4086f9:	6d                   	ins    DWORD PTR es:[edi],dx
  4086fa:	6f                   	outs   dx,DWORD PTR ds:[esi]
  4086fb:	6e                   	outs   dx,BYTE PTR ds:[esi]
  4086fc:	2e 63 63 00          	arpl   WORD PTR cs:[ebx+0x0],sp
  408700:	2f                   	das    
  408701:	75 73                	jne    408776 <.debug_info+0xfa>
  408703:	72 2f                	jb     408734 <.debug_info+0xb8>
  408705:	73 72                	jae    408779 <.debug_info+0xfd>
  408707:	63 2f                	arpl   WORD PTR [edi],bp
  408709:	64 65 62 75 67       	fs bound esi,QWORD PTR fs:gs:[ebp+0x67]
  40870e:	2f                   	das    
  40870f:	63 79 67             	arpl   WORD PTR [ecx+0x67],di
  408712:	77 69                	ja     40877d <.debug_info+0x101>
  408714:	6e                   	outs   dx,BYTE PTR ds:[esi]
  408715:	2d 31 2e 37 2e       	sub    eax,0x2e372e31
  40871a:	31 37                	xor    DWORD PTR [edi],esi
  40871c:	2d 31 2f 69 36       	sub    eax,0x36692f31
  408721:	38 36                	cmp    BYTE PTR [esi],dh
  408723:	2d 70 63 2d 63       	sub    eax,0x632d6370
  408728:	79 67                	jns    408791 <.debug_info+0x115>
  40872a:	77 69                	ja     408795 <.debug_info+0x119>
  40872c:	6e                   	outs   dx,BYTE PTR ds:[esi]
  40872d:	2f                   	das    
  40872e:	77 69                	ja     408799 <.debug_info+0x11d>
  408730:	6e                   	outs   dx,BYTE PTR ds:[esi]
  408731:	73 75                	jae    4087a8 <.debug_info+0x12c>
  408733:	70 2f                	jo     408764 <.debug_info+0xe8>
  408735:	63 79 67             	arpl   WORD PTR [ecx+0x67],di
  408738:	77 69                	ja     4087a3 <.debug_info+0x127>
  40873a:	6e                   	outs   dx,BYTE PTR ds:[esi]
  40873b:	00 b0 12 40 00 bc    	add    BYTE PTR [eax-0x43ffbfee],dh
  408741:	15 40 00 99 02       	adc    eax,0x2990040
  408746:	00 00                	add    BYTE PTR [eax],al
  408748:	02 01                	add    al,BYTE PTR [ecx]
  40874a:	06                   	push   es
  40874b:	73 69                	jae    4087b6 <.debug_info+0x13a>
  40874d:	67 6e                	outs   dx,BYTE PTR ds:[si]
  40874f:	65 64 20 63 68       	gs and BYTE PTR fs:gs:[ebx+0x68],ah
  408754:	61                   	popa   
  408755:	72 00                	jb     408757 <.debug_info+0xdb>
  408757:	02 01                	add    al,BYTE PTR [ecx]
  408759:	08 75 6e             	or     BYTE PTR [ebp+0x6e],dh
  40875c:	73 69                	jae    4087c7 <.debug_info+0x14b>
  40875e:	67 6e                	outs   dx,BYTE PTR ds:[si]
  408760:	65 64 20 63 68       	gs and BYTE PTR fs:gs:[ebx+0x68],ah
  408765:	61                   	popa   
  408766:	72 00                	jb     408768 <.debug_info+0xec>
  408768:	02 02                	add    al,BYTE PTR [edx]
  40876a:	05 73 68 6f 72       	add    eax,0x726f6873
  40876f:	74 20                	je     408791 <.debug_info+0x115>
  408771:	69 6e 74 00 02 02 07 	imul   ebp,DWORD PTR [esi+0x74],0x7020200
  408778:	73 68                	jae    4087e2 <.debug_info+0x166>
  40877a:	6f                   	outs   dx,DWORD PTR ds:[esi]
  40877b:	72 74                	jb     4087f1 <.debug_info+0x175>
  40877d:	20 75 6e             	and    BYTE PTR [ebp+0x6e],dh
  408780:	73 69                	jae    4087eb <.debug_info+0x16f>
  408782:	67 6e                	outs   dx,BYTE PTR ds:[si]
  408784:	65 64 20 69 6e       	gs and BYTE PTR fs:gs:[ecx+0x6e],ch
  408789:	74 00                	je     40878b <.debug_info+0x10f>
  40878b:	02 04 05 69 6e 74 00 	add    al,BYTE PTR [eax*1+0x746e69]
  408792:	02 04 07             	add    al,BYTE PTR [edi+eax*1]
  408795:	75 6e                	jne    408805 <.debug_info+0x189>
  408797:	73 69                	jae    408802 <.debug_info+0x186>
  408799:	67 6e                	outs   dx,BYTE PTR ds:[si]
  40879b:	65 64 20 69 6e       	gs and BYTE PTR fs:gs:[ecx+0x6e],ch
  4087a0:	74 00                	je     4087a2 <.debug_info+0x126>
  4087a2:	02 08                	add    cl,BYTE PTR [eax]
  4087a4:	05 6c 6f 6e 67       	add    eax,0x676e6f6c
  4087a9:	20 6c 6f 6e          	and    BYTE PTR [edi+ebp*2+0x6e],ch
  4087ad:	67 20 69 6e          	and    BYTE PTR [bx+di+0x6e],ch
  4087b1:	74 00                	je     4087b3 <.debug_info+0x137>
  4087b3:	02 08                	add    cl,BYTE PTR [eax]
  4087b5:	07                   	pop    es
  4087b6:	6c                   	ins    BYTE PTR es:[edi],dx
  4087b7:	6f                   	outs   dx,DWORD PTR ds:[esi]
  4087b8:	6e                   	outs   dx,BYTE PTR ds:[esi]
  4087b9:	67 20 6c 6f          	and    BYTE PTR [si+0x6f],ch
  4087bd:	6e                   	outs   dx,BYTE PTR ds:[esi]
  4087be:	67 20 75 6e          	and    BYTE PTR [di+0x6e],dh
  4087c2:	73 69                	jae    40882d <.debug_info+0x1b1>
  4087c4:	67 6e                	outs   dx,BYTE PTR ds:[si]
  4087c6:	65 64 20 69 6e       	gs and BYTE PTR fs:gs:[ecx+0x6e],ch
  4087cb:	74 00                	je     4087cd <.debug_info+0x151>
  4087cd:	03 5f 4c             	add    ebx,DWORD PTR [edi+0x4c]
  4087d0:	4f                   	dec    edi
  4087d1:	43                   	inc    ebx
  4087d2:	4b                   	dec    ebx
  4087d3:	5f                   	pop    edi
  4087d4:	54                   	push   esp
  4087d5:	00 02                	add    BYTE PTR [edx],al
  4087d7:	0e                   	push   cs
  4087d8:	60                   	pusha  
  4087d9:	01 00                	add    DWORD PTR [eax],eax
  4087db:	00 04 04             	add    BYTE PTR [esp+eax*1],al
  4087de:	02 04 05 6c 6f 6e 67 	add    al,BYTE PTR [eax*1+0x676e6f6c]
  4087e5:	20 69 6e             	and    BYTE PTR [ecx+0x6e],ch
  4087e8:	74 00                	je     4087ea <.debug_info+0x16e>
  4087ea:	03 5f 6f             	add    ebx,DWORD PTR [edi+0x6f]
  4087ed:	66                   	data16
  4087ee:	66                   	data16
  4087ef:	36                   	ss
  4087f0:	34 5f                	xor    al,0x5f
  4087f2:	74 00                	je     4087f4 <.debug_info+0x178>
  4087f4:	03 24 26             	add    esp,DWORD PTR [esi+eiz*1]
  4087f7:	01 00                	add    DWORD PTR [eax],eax
  4087f9:	00 03                	add    BYTE PTR [ebx],al
  4087fb:	5f                   	pop    edi
  4087fc:	66                   	data16
  4087fd:	70 6f                	jo     40886e <.debug_info+0x1f2>
  4087ff:	73 5f                	jae    408860 <.debug_info+0x1e4>
  408801:	74 00                	je     408803 <.debug_info+0x187>
  408803:	03 2c 62             	add    ebp,DWORD PTR [edx+eiz*2]
  408806:	01 00                	add    DWORD PTR [eax],eax
  408808:	00 03                	add    BYTE PTR [ebx],al
  40880a:	5f                   	pop    edi
  40880b:	66                   	data16
  40880c:	70 6f                	jo     40887d <.debug_info+0x201>
  40880e:	73 36                	jae    408846 <.debug_info+0x1ca>
  408810:	34 5f                	xor    al,0x5f
  408812:	74 00                	je     408814 <.debug_info+0x198>
  408814:	03 32                	add    esi,DWORD PTR [edx]
  408816:	6e                   	outs   dx,BYTE PTR ds:[esi]
  408817:	01 00                	add    DWORD PTR [eax],eax
  408819:	00 03                	add    BYTE PTR [ebx],al
  40881b:	5f                   	pop    edi
  40881c:	73 73                	jae    408891 <.debug_info+0x215>
  40881e:	69 7a 65 5f 74 00 03 	imul   edi,DWORD PTR [edx+0x65],0x300745f
  408825:	38 0f                	cmp    BYTE PTR [edi],cl
  408827:	01 00                	add    DWORD PTR [eax],eax
  408829:	00 05 77 69 6e 74    	add    BYTE PTR ds:0x746e6977,al
  40882f:	5f                   	pop    edi
  408830:	74 00                	je     408832 <.debug_info+0x1b6>
  408832:	04 60                	add    al,0x60
  408834:	01 16                	add    DWORD PTR [esi],edx
  408836:	01 00                	add    DWORD PTR [eax],eax
  408838:	00 06                	add    BYTE PTR [esi],al
  40883a:	08 03                	or     BYTE PTR [ebx],al
  40883c:	44                   	inc    esp
  40883d:	5f                   	pop    edi
  40883e:	6d                   	ins    DWORD PTR es:[edi],dx
  40883f:	62 73 74             	bound  esi,QWORD PTR [ebx+0x74]
  408842:	61                   	popa   
  408843:	74 65                	je     4088aa <.debug_info+0x22e>
  408845:	5f                   	pop    edi
  408846:	74 00                	je     408848 <.debug_info+0x1cc>
  408848:	19 02                	sbb    DWORD PTR [edx],eax
  40884a:	00 00                	add    BYTE PTR [eax],al
  40884c:	07                   	pop    es
  40884d:	04 03                	add    al,0x3
  40884f:	47                   	inc    edi
  408850:	f4                   	hlt    
  408851:	01 00                	add    DWORD PTR [eax],eax
  408853:	00 08                	add    BYTE PTR [eax],cl
  408855:	5f                   	pop    edi
  408856:	5f                   	pop    edi
  408857:	77 63                	ja     4088bc <.debug_info+0x240>
  408859:	68 00 03 48 ae       	push   0xae480300
  40885e:	01 00                	add    DWORD PTR [eax],eax
  408860:	00 08                	add    BYTE PTR [eax],cl
  408862:	5f                   	pop    edi
  408863:	5f                   	pop    edi
  408864:	77 63                	ja     4088c9 <.debug_info+0x24d>
  408866:	68 62 00 03 49       	push   0x49030062
  40886b:	19 02                	sbb    DWORD PTR [edx],eax
  40886d:	00 00                	add    BYTE PTR [eax],al
  40886f:	00 09                	add    BYTE PTR [ecx],cl
  408871:	5f                   	pop    edi
  408872:	5f                   	pop    edi
  408873:	63 6f 75             	arpl   WORD PTR [edi+0x75],bp
  408876:	6e                   	outs   dx,BYTE PTR ds:[esi]
  408877:	74 00                	je     408879 <.debug_info+0x1fd>
  408879:	03 45 0f             	add    eax,DWORD PTR [ebp+0xf]
  40887c:	01 00                	add    DWORD PTR [eax],eax
  40887e:	00 02                	add    BYTE PTR [edx],al
  408880:	23 00                	and    eax,DWORD PTR [eax]
  408882:	09 5f 5f             	or     DWORD PTR [edi+0x5f],ebx
  408885:	76 61                	jbe    4088e8 <.debug_info+0x26c>
  408887:	6c                   	ins    BYTE PTR es:[edi],dx
  408888:	75 65                	jne    4088ef <.debug_info+0x273>
  40888a:	00 03                	add    BYTE PTR [ebx],al
  40888c:	4a                   	dec    edx
  40888d:	d0 01                	rol    BYTE PTR [ecx],1
  40888f:	00 00                	add    BYTE PTR [eax],al
  408891:	02 23                	add    ah,BYTE PTR [ebx]
  408893:	04 00                	add    al,0x0
  408895:	0a db                	or     bl,bl
  408897:	00 00                	add    BYTE PTR [eax],al
  408899:	00 29                	add    BYTE PTR [ecx],ch
  40889b:	02 00                	add    al,BYTE PTR [eax]
  40889d:	00 0b                	add    BYTE PTR [ebx],cl
  40889f:	16                   	push   ss
  4088a0:	01 00                	add    DWORD PTR [eax],eax
  4088a2:	00 03                	add    BYTE PTR [ebx],al
  4088a4:	00 03                	add    BYTE PTR [ebx],al
  4088a6:	5f                   	pop    edi
  4088a7:	66                   	data16
  4088a8:	6c                   	ins    BYTE PTR es:[edi],dx
  4088a9:	6f                   	outs   dx,DWORD PTR ds:[esi]
  4088aa:	63 6b 5f             	arpl   WORD PTR [ebx+0x5f],bp
  4088ad:	74 00                	je     4088af <.debug_info+0x233>
  4088af:	03 4f 51             	add    ecx,DWORD PTR [edi+0x51]
  4088b2:	01 00                	add    DWORD PTR [eax],eax
  4088b4:	00 03                	add    BYTE PTR [ebx],al
  4088b6:	70 74                	jo     40892c <.debug_info+0x2b0>
  4088b8:	72 64                	jb     40891e <.debug_info+0x2a2>
  4088ba:	69 66 66 5f 74 00 04 	imul   esp,DWORD PTR [esi+0x66],0x400745f
  4088c1:	95                   	xchg   ebp,eax
  4088c2:	0f 01 00             	sgdtd  [eax]
  4088c5:	00 03                	add    BYTE PTR [ebx],al
  4088c7:	73 69                	jae    408932 <.debug_info+0x2b6>
  4088c9:	7a 65                	jp     408930 <.debug_info+0x2b4>
  4088cb:	5f                   	pop    edi
  4088cc:	74 00                	je     4088ce <.debug_info+0x252>
  4088ce:	04 d3                	add    al,0xd3
  4088d0:	16                   	push   ss
  4088d1:	01 00                	add    DWORD PTR [eax],eax
  4088d3:	00 02                	add    BYTE PTR [edx],al
  4088d5:	04 07                	add    al,0x7
  4088d7:	6c                   	ins    BYTE PTR es:[edi],dx
  4088d8:	6f                   	outs   dx,DWORD PTR ds:[esi]
  4088d9:	6e                   	outs   dx,BYTE PTR ds:[esi]
  4088da:	67 20 75 6e          	and    BYTE PTR [di+0x6e],dh
  4088de:	73 69                	jae    408949 <.debug_info+0x2cd>
  4088e0:	67 6e                	outs   dx,BYTE PTR ds:[si]
  4088e2:	65 64 20 69 6e       	gs and BYTE PTR fs:gs:[ecx+0x6e],ch
  4088e7:	74 00                	je     4088e9 <.debug_info+0x26d>
  4088e9:	0c 04                	or     al,0x4
  4088eb:	73 02                	jae    4088ef <.debug_info+0x273>
  4088ed:	00 00                	add    BYTE PTR [eax],al
  4088ef:	02 01                	add    al,BYTE PTR [ecx]
  4088f1:	06                   	push   es
  4088f2:	63 68 61             	arpl   WORD PTR [eax+0x61],bp
  4088f5:	72 00                	jb     4088f7 <.debug_info+0x27b>
  4088f7:	03 5f 5f             	add    ebx,DWORD PTR [edi+0x5f]
  4088fa:	67 6e                	outs   dx,BYTE PTR ds:[si]
  4088fc:	75 63                	jne    408961 <.debug_info+0x2e5>
  4088fe:	5f                   	pop    edi
  4088ff:	76 61                	jbe    408962 <.debug_info+0x2e6>
  408901:	5f                   	pop    edi
  408902:	6c                   	ins    BYTE PTR es:[edi],dx
  408903:	69 73 74 00 05 28 91 	imul   esi,DWORD PTR [ebx+0x74],0x91280500
  40890a:	02 00                	add    al,BYTE PTR [eax]
  40890c:	00 0d 04 5f 5f 62    	add    BYTE PTR ds:0x625f5f04,cl
  408912:	75 69                	jne    40897d <.debug_info+0x301>
  408914:	6c                   	ins    BYTE PTR es:[edi],dx
  408915:	74 69                	je     408980 <.debug_info+0x304>
  408917:	6e                   	outs   dx,BYTE PTR ds:[esi]
  408918:	5f                   	pop    edi
  408919:	76 61                	jbe    40897c <.debug_info+0x300>
  40891b:	5f                   	pop    edi
  40891c:	6c                   	ins    BYTE PTR es:[edi],dx
  40891d:	69 73 74 00 73 02 00 	imul   esi,DWORD PTR [ebx+0x74],0x27300
  408924:	00 03                	add    BYTE PTR [ebx],al
  408926:	76 61                	jbe    408989 <.debug_info+0x30d>
  408928:	5f                   	pop    edi
  408929:	6c                   	ins    BYTE PTR es:[edi],dx
  40892a:	69 73 74 00 05 66 7b 	imul   esi,DWORD PTR [ebx+0x74],0x7b660500
  408931:	02 00                	add    al,BYTE PTR [eax]
  408933:	00 0e                	add    BYTE PTR [esi],cl
  408935:	00 00                	add    BYTE PTR [eax],al
  408937:	00 00                	add    BYTE PTR [eax],al
  408939:	10 06                	adc    BYTE PTR [esi],al
  40893b:	25 e4 05 00 00       	and    eax,0x5e4
  408940:	0f 5f 61 63          	maxps  xmm4,XMMWORD PTR [ecx+0x63]
  408944:	74 69                	je     4089af <.debug_info+0x333>
  408946:	76 65                	jbe    4089ad <.debug_info+0x331>
  408948:	00 06                	add    BYTE PTR [esi],al
  40894a:	28 db                	sub    bl,bl
  40894c:	00 00                	add    BYTE PTR [eax],al
  40894e:	00 02                	add    BYTE PTR [edx],al
  408950:	23 00                	and    eax,DWORD PTR [eax]
  408952:	03 09                	add    ecx,DWORD PTR [ecx]
  408954:	76 65                	jbe    4089bb <.debug_info+0x33f>
  408956:	72 73                	jb     4089cb <.debug_info+0x34f>
  408958:	69 6f 6e 00 06 2d 0f 	imul   ebp,DWORD PTR [edi+0x6e],0xf2d0600
  40895f:	01 00                	add    DWORD PTR [eax],eax
  408961:	00 02                	add    BYTE PTR [edx],al
  408963:	23 04 09             	and    eax,DWORD PTR [ecx+ecx*1]
  408966:	6c                   	ins    BYTE PTR es:[edi],dx
  408967:	6d                   	ins    DWORD PTR es:[edi],dx
  408968:	69 63 72 6f 73 65 63 	imul   esp,DWORD PTR [ebx+0x72],0x6365736f
  40896f:	00 06                	add    BYTE PTR [esi],al
  408971:	2e 0f 01 00          	sgdtd  cs:[eax]
  408975:	00 02                	add    BYTE PTR [edx],al
  408977:	23 08                	and    ecx,DWORD PTR [eax]
  408979:	09 65 78             	or     DWORD PTR [ebp+0x78],esp
  40897c:	65 63 69 6e          	arpl   WORD PTR gs:[ecx+0x6e],bp
  408980:	67 00 06 2f e4       	add    BYTE PTR ds:0xe42f,al
  408985:	05 00 00 02 23       	add    eax,0x23020000
  40898a:	0c 10                	or     al,0x10
  40898c:	01 76 73             	add    DWORD PTR [esi+0x73],esi
  40898f:	70 72                	jo     408a03 <.debug_info+0x387>
  408991:	6e                   	outs   dx,BYTE PTR ds:[esi]
  408992:	74 66                	je     4089fa <.debug_info+0x37e>
  408994:	00 06                	add    BYTE PTR [esi],al
  408996:	26                   	es
  408997:	5f                   	pop    edi
  408998:	5a                   	pop    edx
  408999:	4e                   	dec    esi
  40899a:	36                   	ss
  40899b:	73 74                	jae    408a11 <.debug_info+0x395>
  40899d:	72 61                	jb     408a00 <.debug_info+0x384>
  40899f:	63 65 37             	arpl   WORD PTR [ebp+0x37],sp
  4089a2:	76 73                	jbe    408a17 <.debug_info+0x39b>
  4089a4:	70 72                	jo     408a18 <.debug_info+0x39c>
  4089a6:	6e                   	outs   dx,BYTE PTR ds:[esi]
  4089a7:	74 66                	je     408a0f <.debug_info+0x393>
  4089a9:	45                   	inc    ebp
  4089aa:	50                   	push   eax
  4089ab:	63 50 4b             	arpl   WORD PTR [eax+0x4b],dx
  4089ae:	63 53 32             	arpl   WORD PTR [ebx+0x32],dx
  4089b1:	5f                   	pop    edi
  4089b2:	53                   	push   ebx
  4089b3:	30 5f 00             	xor    BYTE PTR [edi+0x0],bl
  4089b6:	0f 01 00             	sgdtd  [eax]
  4089b9:	00 03                	add    BYTE PTR [ebx],al
  4089bb:	01 5f 03             	add    DWORD PTR [edi+0x3],ebx
  4089be:	00 00                	add    BYTE PTR [eax],al
  4089c0:	11 ec                	adc    esp,ebp
  4089c2:	05 00 00 01 12       	add    eax,0x12010000
  4089c7:	6d                   	ins    DWORD PTR es:[edi],dx
  4089c8:	02 00                	add    al,BYTE PTR [eax]
  4089ca:	00 12                	add    BYTE PTR [edx],dl
  4089cc:	f2 05 00 00 12 f2    	repnz add eax,0xf2120000
  4089d2:	05 00 00 12 a9       	add    eax,0xa9120000
  4089d7:	02 00                	add    al,BYTE PTR [eax]
  4089d9:	00 00                	add    BYTE PTR [eax],al
  4089db:	13 01                	adc    eax,DWORD PTR [ecx]
  4089dd:	77 72                	ja     408a51 <.debug_info+0x3d5>
  4089df:	69 74 65 00 06 27 5f 	imul   esi,DWORD PTR [ebp+eiz*2+0x0],0x5a5f2706
  4089e6:	5a 
  4089e7:	4e                   	dec    esi
  4089e8:	36                   	ss
  4089e9:	73 74                	jae    408a5f <.debug_info+0x3e3>
  4089eb:	72 61                	jb     408a4e <.debug_info+0x3d2>
  4089ed:	63 65 35             	arpl   WORD PTR [ebp+0x35],sp
  4089f0:	77 72                	ja     408a64 <.debug_info+0x3e8>
  4089f2:	69 74 65 45 6a 50 4b 	imul   esi,DWORD PTR [ebp+eiz*2+0x45],0x634b506a
  4089f9:	63 
  4089fa:	69 00 03 01 9c 03    	imul   eax,DWORD PTR [eax],0x39c0103
  408a00:	00 00                	add    BYTE PTR [eax],al
  408a02:	11 ec                	adc    esp,ebp
  408a04:	05 00 00 01 12       	add    eax,0x12010000
  408a09:	16                   	push   ss
  408a0a:	01 00                	add    DWORD PTR [eax],eax
  408a0c:	00 12                	add    BYTE PTR [edx],dl
  408a0e:	f2 05 00 00 12 0f    	repnz add eax,0xf120000
  408a14:	01 00                	add    DWORD PTR [eax],eax
  408a16:	00 00                	add    BYTE PTR [eax],al
  408a18:	14 01                	adc    al,0x1
  408a1a:	61                   	popa   
  408a1b:	63 74 69 76          	arpl   WORD PTR [ecx+ebp*2+0x76],si
  408a1f:	61                   	popa   
  408a20:	74 65                	je     408a87 <.debug_info+0x40b>
  408a22:	00 06                	add    BYTE PTR [esi],al
  408a24:	2a 5f 5a             	sub    bl,BYTE PTR [edi+0x5a]
  408a27:	4e                   	dec    esi
  408a28:	36                   	ss
  408a29:	73 74                	jae    408a9f <.debug_info+0x423>
  408a2b:	72 61                	jb     408a8e <.debug_info+0x412>
  408a2d:	63 65 38             	arpl   WORD PTR [ebp+0x38],sp
  408a30:	61                   	popa   
  408a31:	63 74 69 76          	arpl   WORD PTR [ecx+ebp*2+0x76],si
  408a35:	61                   	popa   
  408a36:	74 65                	je     408a9d <.debug_info+0x421>
  408a38:	45                   	inc    ebp
  408a39:	62 00                	bound  eax,QWORD PTR [eax]
  408a3b:	01 d0                	add    eax,edx
  408a3d:	03 00                	add    eax,DWORD PTR [eax]
  408a3f:	00 11                	add    BYTE PTR [ecx],dl
  408a41:	ec                   	in     al,dx
  408a42:	05 00 00 01 12       	add    eax,0x12010000
  408a47:	e4 05                	in     al,0x5
  408a49:	00 00                	add    BYTE PTR [eax],al
  408a4b:	00 15 01 00 00 00    	add    BYTE PTR ds:0x1,dl
  408a51:	00 06                	add    BYTE PTR [esi],al
  408a53:	2b 01                	sub    eax,DWORD PTR [ecx]
  408a55:	e4 03                	in     al,0x3
  408a57:	00 00                	add    BYTE PTR [eax],al
  408a59:	11 ec                	adc    esp,ebp
  408a5b:	05 00 00 01 00       	add    eax,0x10000
  408a60:	16                   	push   ss
  408a61:	01 6d 69             	add    DWORD PTR [ebp+0x69],ebp
  408a64:	63 72 6f             	arpl   WORD PTR [edx+0x6f],si
  408a67:	73 65                	jae    408ace <.debug_info+0x452>
  408a69:	63 6f 6e             	arpl   WORD PTR [edi+0x6e],bp
  408a6c:	64                   	fs
  408a6d:	73 00                	jae    408a6f <.debug_info+0x3f3>
  408a6f:	06                   	push   es
  408a70:	2c 5f                	sub    al,0x5f
  408a72:	5a                   	pop    edx
  408a73:	4e                   	dec    esi
  408a74:	36                   	ss
  408a75:	73 74                	jae    408aeb <.debug_info+0x46f>
  408a77:	72 61                	jb     408ada <.debug_info+0x45e>
  408a79:	63 65 31             	arpl   WORD PTR [ebp+0x31],sp
  408a7c:	32 6d 69             	xor    ch,BYTE PTR [ebp+0x69]
  408a7f:	63 72 6f             	arpl   WORD PTR [edx+0x6f],si
  408a82:	73 65                	jae    408ae9 <.debug_info+0x46d>
  408a84:	63 6f 6e             	arpl   WORD PTR [edi+0x6e],bp
  408a87:	64                   	fs
  408a88:	73 45                	jae    408acf <.debug_info+0x453>
  408a8a:	76 00                	jbe    408a8c <.debug_info+0x410>
  408a8c:	0f 01 00             	sgdtd  [eax]
  408a8f:	00 01                	add    BYTE PTR [ecx],al
  408a91:	20 04 00             	and    BYTE PTR [eax+eax*1],al
  408a94:	00 11                	add    BYTE PTR [ecx],dl
  408a96:	ec                   	in     al,dx
  408a97:	05 00 00 01 00       	add    eax,0x10000
  408a9c:	14 01                	adc    al,0x1
  408a9e:	64                   	fs
  408a9f:	6c                   	ins    BYTE PTR es:[edi],dx
  408aa0:	6c                   	ins    BYTE PTR es:[edi],dx
  408aa1:	5f                   	pop    edi
  408aa2:	69 6e 66 6f 00 06 30 	imul   ebp,DWORD PTR [esi+0x66],0x3006006f
  408aa9:	5f                   	pop    edi
  408aaa:	5a                   	pop    edx
  408aab:	4e                   	dec    esi
  408aac:	36                   	ss
  408aad:	73 74                	jae    408b23 <.debug_info+0x4a7>
  408aaf:	72 61                	jb     408b12 <.debug_info+0x496>
  408ab1:	63 65 38             	arpl   WORD PTR [ebp+0x38],sp
  408ab4:	64                   	fs
  408ab5:	6c                   	ins    BYTE PTR es:[edi],dx
  408ab6:	6c                   	ins    BYTE PTR es:[edi],dx
  408ab7:	5f                   	pop    edi
  408ab8:	69 6e 66 6f 45 76 00 	imul   ebp,DWORD PTR [esi+0x66],0x76456f
  408abf:	01 4f 04             	add    DWORD PTR [edi+0x4],ecx
  408ac2:	00 00                	add    BYTE PTR [eax],al
  408ac4:	11 ec                	adc    esp,ebp
  408ac6:	05 00 00 01 00       	add    eax,0x10000
  408acb:	14 01                	adc    al,0x1
  408acd:	70 72                	jo     408b41 <.debug_info+0x4c5>
  408acf:	6e                   	outs   dx,BYTE PTR ds:[esi]
  408ad0:	74 66                	je     408b38 <.debug_info+0x4bc>
  408ad2:	00 06                	add    BYTE PTR [esi],al
  408ad4:	31 5f 5a             	xor    DWORD PTR [edi+0x5a],ebx
  408ad7:	4e                   	dec    esi
  408ad8:	36                   	ss
  408ad9:	73 74                	jae    408b4f <.debug_info+0x4d3>
  408adb:	72 61                	jb     408b3e <.debug_info+0x4c2>
  408add:	63 65 35             	arpl   WORD PTR [ebp+0x35],sp
  408ae0:	70 72                	jo     408b54 <.debug_info+0x4d8>
  408ae2:	6e                   	outs   dx,BYTE PTR ds:[esi]
  408ae3:	74 66                	je     408b4b <.debug_info+0x4cf>
  408ae5:	45                   	inc    ebp
  408ae6:	6a 50                	push   0x50
  408ae8:	4b                   	dec    ebx
  408ae9:	63 53 31             	arpl   WORD PTR [ebx+0x31],dx
  408aec:	5f                   	pop    edi
  408aed:	7a 00                	jp     408aef <.debug_info+0x473>
  408aef:	01 8f 04 00 00 11    	add    DWORD PTR [edi+0x11000004],ecx
  408af5:	ec                   	in     al,dx
  408af6:	05 00 00 01 12       	add    eax,0x12010000
  408afb:	16                   	push   ss
  408afc:	01 00                	add    DWORD PTR [eax],eax
  408afe:	00 12                	add    BYTE PTR [edx],dl
  408b00:	f2 05 00 00 12 f2    	repnz add eax,0xf2120000
  408b06:	05 00 00 17 00       	add    eax,0x170000
  408b0b:	14 01                	adc    al,0x1
  408b0d:	76 70                	jbe    408b7f <.debug_info+0x503>
  408b0f:	72 6e                	jb     408b7f <.debug_info+0x503>
  408b11:	74 66                	je     408b79 <.debug_info+0x4fd>
  408b13:	00 06                	add    BYTE PTR [esi],al
  408b15:	32 5f 5a             	xor    bl,BYTE PTR [edi+0x5a]
  408b18:	4e                   	dec    esi
  408b19:	36                   	ss
  408b1a:	73 74                	jae    408b90 <.debug_info+0x514>
  408b1c:	72 61                	jb     408b7f <.debug_info+0x503>
  408b1e:	63 65 36             	arpl   WORD PTR [ebp+0x36],sp
  408b21:	76 70                	jbe    408b93 <.debug_info+0x517>
  408b23:	72 6e                	jb     408b93 <.debug_info+0x517>
  408b25:	74 66                	je     408b8d <.debug_info+0x511>
  408b27:	45                   	inc    ebp
  408b28:	6a 50                	push   0x50
  408b2a:	4b                   	dec    ebx
  408b2b:	63 53 31             	arpl   WORD PTR [ebx+0x31],dx
  408b2e:	5f                   	pop    edi
  408b2f:	50                   	push   eax
  408b30:	63 00                	arpl   WORD PTR [eax],ax
  408b32:	01 d6                	add    esi,edx
  408b34:	04 00                	add    al,0x0
  408b36:	00 11                	add    BYTE PTR [ecx],dl
  408b38:	ec                   	in     al,dx
  408b39:	05 00 00 01 12       	add    eax,0x12010000
  408b3e:	16                   	push   ss
  408b3f:	01 00                	add    DWORD PTR [eax],eax
  408b41:	00 12                	add    BYTE PTR [edx],dl
  408b43:	f2 05 00 00 12 f2    	repnz add eax,0xf2120000
  408b49:	05 00 00 12 a9       	add    eax,0xa9120000
  408b4e:	02 00                	add    al,BYTE PTR [eax]
  408b50:	00 00                	add    BYTE PTR [eax],al
  408b52:	14 01                	adc    al,0x1
  408b54:	77 6d                	ja     408bc3 <.debug_info+0x547>
  408b56:	00 06                	add    BYTE PTR [esi],al
  408b58:	33 5f 5a             	xor    ebx,DWORD PTR [edi+0x5a]
  408b5b:	4e                   	dec    esi
  408b5c:	36                   	ss
  408b5d:	73 74                	jae    408bd3 <.debug_info+0x557>
  408b5f:	72 61                	jb     408bc2 <.debug_info+0x546>
  408b61:	63 65 32             	arpl   WORD PTR [ebp+0x32],sp
  408b64:	77 6d                	ja     408bd3 <.debug_info+0x557>
  408b66:	45                   	inc    ebp
  408b67:	69 69 69 00 01 0a 05 	imul   ebp,DWORD PTR [ecx+0x69],0x50a0100
  408b6e:	00 00                	add    BYTE PTR [eax],al
  408b70:	11 ec                	adc    esp,ebp
  408b72:	05 00 00 01 12       	add    eax,0x12010000
  408b77:	0f 01 00             	sgdtd  [eax]
  408b7a:	00 12                	add    BYTE PTR [edx],dl
  408b7c:	0f 01 00             	sgdtd  [eax]
  408b7f:	00 12                	add    BYTE PTR [edx],dl
  408b81:	0f 01 00             	sgdtd  [eax]
  408b84:	00 00                	add    BYTE PTR [eax],al
  408b86:	14 01                	adc    al,0x1
  408b88:	77 72                	ja     408bfc <.debug_info+0x580>
  408b8a:	69 74 65 5f 63 68 69 	imul   esi,DWORD PTR [ebp+eiz*2+0x5f],0x6c696863
  408b91:	6c 
  408b92:	64                   	fs
  408b93:	70 69                	jo     408bfe <.debug_info+0x582>
  408b95:	64 00 06             	add    BYTE PTR fs:[esi],al
  408b98:	34 5f                	xor    al,0x5f
  408b9a:	5a                   	pop    edx
  408b9b:	4e                   	dec    esi
  408b9c:	36                   	ss
  408b9d:	73 74                	jae    408c13 <.debug_info+0x597>
  408b9f:	72 61                	jb     408c02 <.debug_info+0x586>
  408ba1:	63 65 31             	arpl   WORD PTR [ebp+0x31],sp
  408ba4:	34 77                	xor    al,0x77
  408ba6:	72 69                	jb     408c11 <.debug_info+0x595>
  408ba8:	74 65                	je     408c0f <.debug_info+0x593>
  408baa:	5f                   	pop    edi
  408bab:	63 68 69             	arpl   WORD PTR [eax+0x69],bp
  408bae:	6c                   	ins    BYTE PTR es:[edi],dx
  408baf:	64                   	fs
  408bb0:	70 69                	jo     408c1b <.debug_info+0x59f>
  408bb2:	64                   	fs
  408bb3:	45                   	inc    ebp
  408bb4:	6d                   	ins    DWORD PTR es:[edi],dx
  408bb5:	00 01                	add    BYTE PTR [ecx],al
  408bb7:	4b                   	dec    ebx
  408bb8:	05 00 00 11 ec       	add    eax,0xec110000
  408bbd:	05 00 00 01 12       	add    eax,0x12010000
  408bc2:	58                   	pop    eax
  408bc3:	02 00                	add    al,BYTE PTR [eax]
  408bc5:	00 00                	add    BYTE PTR [eax],al
  408bc7:	16                   	push   ss
  408bc8:	01 61 74             	add    DWORD PTR [ecx+0x74],esp
  408bcb:	74 61                	je     408c2e <.debug_info+0x5b2>
  408bcd:	63 68 65             	arpl   WORD PTR [eax+0x65],bp
  408bd0:	64 00 06             	add    BYTE PTR fs:[esi],al
  408bd3:	35 5f 5a 4e 4b       	xor    eax,0x4b4e5a5f
  408bd8:	36                   	ss
  408bd9:	73 74                	jae    408c4f <.debug_info+0x5d3>
  408bdb:	72 61                	jb     408c3e <.debug_info+0x5c2>
  408bdd:	63 65 38             	arpl   WORD PTR [ebp+0x38],sp
  408be0:	61                   	popa   
  408be1:	74 74                	je     408c57 <.debug_info+0x5db>
  408be3:	61                   	popa   
  408be4:	63 68 65             	arpl   WORD PTR [eax+0x65],bp
  408be7:	64                   	fs
  408be8:	45                   	inc    ebp
  408be9:	76 00                	jbe    408beb <.debug_info+0x56f>
  408beb:	e4 05                	in     al,0x5
  408bed:	00 00                	add    BYTE PTR [eax],al
  408bef:	01 7f 05             	add    DWORD PTR [edi+0x5],edi
  408bf2:	00 00                	add    BYTE PTR [eax],al
  408bf4:	11 fd                	adc    ebp,edi
  408bf6:	05 00 00 01 00       	add    eax,0x10000
  408bfb:	16                   	push   ss
  408bfc:	01 61 63             	add    DWORD PTR [ecx+0x63],esp
  408bff:	74 69                	je     408c6a <.debug_info+0x5ee>
  408c01:	76 65                	jbe    408c68 <.debug_info+0x5ec>
  408c03:	00 06                	add    BYTE PTR [esi],al
  408c05:	36                   	ss
  408c06:	5f                   	pop    edi
  408c07:	5a                   	pop    edx
  408c08:	4e                   	dec    esi
  408c09:	4b                   	dec    ebx
  408c0a:	36                   	ss
  408c0b:	73 74                	jae    408c81 <.debug_info+0x605>
  408c0d:	72 61                	jb     408c70 <.debug_info+0x5f4>
  408c0f:	63 65 36             	arpl   WORD PTR [ebp+0x36],sp
  408c12:	61                   	popa   
  408c13:	63 74 69 76          	arpl   WORD PTR [ecx+ebp*2+0x76],si
  408c17:	65                   	gs
  408c18:	45                   	inc    ebp
  408c19:	76 00                	jbe    408c1b <.debug_info+0x59f>
  408c1b:	e4 05                	in     al,0x5
  408c1d:	00 00                	add    BYTE PTR [eax],al
  408c1f:	01 af 05 00 00 11    	add    DWORD PTR [edi+0x11000005],ebp
  408c25:	fd                   	std    
  408c26:	05 00 00 01 00       	add    eax,0x10000
  408c2b:	18 01                	sbb    BYTE PTR [ecx],al
  408c2d:	61                   	popa   
  408c2e:	63 74 69 76          	arpl   WORD PTR [ecx+ebp*2+0x76],si
  408c32:	65                   	gs
  408c33:	5f                   	pop    edi
  408c34:	76 61                	jbe    408c97 <.debug_info+0x61b>
  408c36:	6c                   	ins    BYTE PTR es:[edi],dx
  408c37:	00 06                	add    BYTE PTR [esi],al
  408c39:	37                   	aaa    
  408c3a:	5f                   	pop    edi
  408c3b:	5a                   	pop    edx
  408c3c:	4e                   	dec    esi
  408c3d:	36                   	ss
  408c3e:	73 74                	jae    408cb4 <.debug_info+0x638>
  408c40:	72 61                	jb     408ca3 <.debug_info+0x627>
  408c42:	63 65 31             	arpl   WORD PTR [ebp+0x31],sp
  408c45:	30 61 63             	xor    BYTE PTR [ecx+0x63],ah
  408c48:	74 69                	je     408cb3 <.debug_info+0x637>
  408c4a:	76 65                	jbe    408cb1 <.debug_info+0x635>
  408c4c:	5f                   	pop    edi
  408c4d:	76 61                	jbe    408cb0 <.debug_info+0x634>
  408c4f:	6c                   	ins    BYTE PTR es:[edi],dx
  408c50:	45                   	inc    ebp
  408c51:	76 00                	jbe    408c53 <.debug_info+0x5d7>
  408c53:	08 06                	or     BYTE PTR [esi],al
  408c55:	00 00                	add    BYTE PTR [eax],al
  408c57:	01 11                	add    DWORD PTR [ecx],edx
  408c59:	ec                   	in     al,dx
  408c5a:	05 00 00 01 00       	add    eax,0x10000
  408c5f:	00 02                	add    BYTE PTR [edx],al
  408c61:	01 02                	add    DWORD PTR [edx],eax
  408c63:	62 6f 6f             	bound  ebp,QWORD PTR [edi+0x6f]
  408c66:	6c                   	ins    BYTE PTR es:[edi],dx
  408c67:	00 0c 04             	add    BYTE PTR [esp+eax*1],cl
  408c6a:	b8 02 00 00 0c       	mov    eax,0xc000002
  408c6f:	04 f8                	add    al,0xf8
  408c71:	05 00 00 19 73       	add    eax,0x73190000
  408c76:	02 00                	add    al,BYTE PTR [eax]
  408c78:	00 0c 04             	add    BYTE PTR [esp+eax*1],cl
  408c7b:	03 06                	add    eax,DWORD PTR [esi]
  408c7d:	00 00                	add    BYTE PTR [eax],al
  408c7f:	19 b8 02 00 00 1a    	sbb    DWORD PTR [eax+0x1a000002],edi
  408c85:	04 db                	add    al,0xdb
  408c87:	00 00                	add    BYTE PTR [eax],al
  408c89:	00 03                	add    BYTE PTR [ebx],al
  408c8b:	44                   	inc    esp
  408c8c:	57                   	push   edi
  408c8d:	4f                   	dec    edi
  408c8e:	52                   	push   edx
  408c8f:	44                   	inc    esp
  408c90:	00 07                	add    BYTE PTR [edi],al
  408c92:	e1 58                	loope  408cec <.debug_info+0x670>
  408c94:	02 00                	add    al,BYTE PTR [eax]
  408c96:	00 03                	add    BYTE PTR [ebx],al
  408c98:	57                   	push   edi
  408c99:	49                   	dec    ecx
  408c9a:	4e                   	dec    esi
  408c9b:	42                   	inc    edx
  408c9c:	4f                   	dec    edi
  408c9d:	4f                   	dec    edi
  408c9e:	4c                   	dec    esp
  408c9f:	00 07                	add    BYTE PTR [edi],al
  408ca1:	e2 0f                	loop   408cb2 <.debug_info+0x636>
  408ca3:	01 00                	add    DWORD PTR [eax],eax
  408ca5:	00 0c 04             	add    BYTE PTR [esp+eax*1],cl
  408ca8:	0f 01 00             	sgdtd  [eax]
  408cab:	00 03                	add    BYTE PTR [ebx],al
  408cad:	42                   	inc    edx
  408cae:	4f                   	dec    edi
  408caf:	4f                   	dec    edi
  408cb0:	4c                   	dec    esp
  408cb1:	00 07                	add    BYTE PTR [edi],al
  408cb3:	e6 1b                	out    0x1b,al
  408cb5:	06                   	push   es
  408cb6:	00 00                	add    BYTE PTR [eax],al
  408cb8:	02 04 04             	add    al,BYTE PTR [esp+eax*1]
  408cbb:	66                   	data16
  408cbc:	6c                   	ins    BYTE PTR es:[edi],dx
  408cbd:	6f                   	outs   dx,DWORD PTR ds:[esi]
  408cbe:	61                   	popa   
  408cbf:	74 00                	je     408cc1 <.debug_info+0x645>
  408cc1:	03 5f 5f             	add    ebx,DWORD PTR [edi+0x5f]
  408cc4:	55                   	push   ebp
  408cc5:	4c                   	dec    esp
  408cc6:	6f                   	outs   dx,DWORD PTR ds:[esi]
  408cc7:	6e                   	outs   dx,BYTE PTR ds:[esi]
  408cc8:	67 00 08             	add    BYTE PTR [bx+si],cl
  408ccb:	15 58 02 00 00       	adc    eax,0x258
  408cd0:	1b 5f 42             	sbb    ebx,DWORD PTR [edi+0x42]
  408cd3:	69 67 69 6e 74 00 18 	imul   esp,DWORD PTR [edi+0x69],0x1800746e
  408cda:	08 2d c0 06 00 00    	or     BYTE PTR ds:0x6c0,ch
  408ce0:	09 5f 6e             	or     DWORD PTR [edi+0x6e],ebx
  408ce3:	65                   	gs
  408ce4:	78 74                	js     408d5a <.debug_info+0x6de>
  408ce6:	00 08                	add    BYTE PTR [eax],cl
  408ce8:	2e c0 06 00          	rol    BYTE PTR cs:[esi],0x0
  408cec:	00 02                	add    BYTE PTR [edx],al
  408cee:	23 00                	and    eax,DWORD PTR [eax]
  408cf0:	09 5f 6b             	or     DWORD PTR [edi+0x6b],ebx
  408cf3:	00 08                	add    BYTE PTR [eax],cl
  408cf5:	2f                   	das    
  408cf6:	0f 01 00             	sgdtd  [eax]
  408cf9:	00 02                	add    BYTE PTR [edx],al
  408cfb:	23 04 09             	and    eax,DWORD PTR [ecx+ecx*1]
  408cfe:	5f                   	pop    edi
  408cff:	6d                   	ins    DWORD PTR es:[edi],dx
  408d00:	61                   	popa   
  408d01:	78 77                	js     408d7a <.debug_info+0x6fe>
  408d03:	64                   	fs
  408d04:	73 00                	jae    408d06 <.debug_info+0x68a>
  408d06:	08 2f                	or     BYTE PTR [edi],ch
  408d08:	0f 01 00             	sgdtd  [eax]
  408d0b:	00 02                	add    BYTE PTR [edx],al
  408d0d:	23 08                	and    ecx,DWORD PTR [eax]
  408d0f:	09 5f 73             	or     DWORD PTR [edi+0x73],ebx
  408d12:	69 67 6e 00 08 2f 0f 	imul   esp,DWORD PTR [edi+0x6e],0xf2f0800
  408d19:	01 00                	add    DWORD PTR [eax],eax
  408d1b:	00 02                	add    BYTE PTR [edx],al
  408d1d:	23 0c 09             	and    ecx,DWORD PTR [ecx+ecx*1]
  408d20:	5f                   	pop    edi
  408d21:	77 64                	ja     408d87 <.debug_info+0x70b>
  408d23:	73 00                	jae    408d25 <.debug_info+0x6a9>
  408d25:	08 2f                	or     BYTE PTR [edi],ch
  408d27:	0f 01 00             	sgdtd  [eax]
  408d2a:	00 02                	add    BYTE PTR [edx],al
  408d2c:	23 10                	and    edx,DWORD PTR [eax]
  408d2e:	09 5f 78             	or     DWORD PTR [edi+0x78],ebx
  408d31:	00 08                	add    BYTE PTR [eax],cl
  408d33:	30 c6                	xor    dh,al
  408d35:	06                   	push   es
  408d36:	00 00                	add    BYTE PTR [eax],al
  408d38:	02 23                	add    ah,BYTE PTR [ebx]
  408d3a:	14 00                	adc    al,0x0
  408d3c:	0c 04                	or     al,0x4
  408d3e:	54                   	push   esp
  408d3f:	06                   	push   es
  408d40:	00 00                	add    BYTE PTR [eax],al
  408d42:	0a 58 02             	or     bl,BYTE PTR [eax+0x2]
  408d45:	00 00                	add    BYTE PTR [eax],al
  408d47:	d6                   	(bad)  
  408d48:	06                   	push   es
  408d49:	00 00                	add    BYTE PTR [eax],al
  408d4b:	0b 16                	or     edx,DWORD PTR [esi]
  408d4d:	01 00                	add    DWORD PTR [eax],eax
  408d4f:	00 00                	add    BYTE PTR [eax],al
  408d51:	00 1b                	add    BYTE PTR [ebx],bl
  408d53:	5f                   	pop    edi
  408d54:	5f                   	pop    edi
  408d55:	74 6d                	je     408dc4 <.debug_info+0x748>
  408d57:	00 24 08             	add    BYTE PTR [eax+ecx*1],ah
  408d5a:	35 96 07 00 00       	xor    eax,0x796
  408d5f:	09 5f 5f             	or     DWORD PTR [edi+0x5f],ebx
  408d62:	74 6d                	je     408dd1 <.debug_info+0x755>
  408d64:	5f                   	pop    edi
  408d65:	73 65                	jae    408dcc <.debug_info+0x750>
  408d67:	63 00                	arpl   WORD PTR [eax],ax
  408d69:	08 36                	or     BYTE PTR [esi],dh
  408d6b:	0f 01 00             	sgdtd  [eax]
  408d6e:	00 02                	add    BYTE PTR [edx],al
  408d70:	23 00                	and    eax,DWORD PTR [eax]
  408d72:	09 5f 5f             	or     DWORD PTR [edi+0x5f],ebx
  408d75:	74 6d                	je     408de4 <.debug_info+0x768>
  408d77:	5f                   	pop    edi
  408d78:	6d                   	ins    DWORD PTR es:[edi],dx
  408d79:	69 6e 00 08 37 0f 01 	imul   ebp,DWORD PTR [esi+0x0],0x10f3708
  408d80:	00 00                	add    BYTE PTR [eax],al
  408d82:	02 23                	add    ah,BYTE PTR [ebx]
  408d84:	04 09                	add    al,0x9
  408d86:	5f                   	pop    edi
  408d87:	5f                   	pop    edi
  408d88:	74 6d                	je     408df7 <.debug_info+0x77b>
  408d8a:	5f                   	pop    edi
  408d8b:	68 6f 75 72 00       	push   0x72756f
  408d90:	08 38                	or     BYTE PTR [eax],bh
  408d92:	0f 01 00             	sgdtd  [eax]
  408d95:	00 02                	add    BYTE PTR [edx],al
  408d97:	23 08                	and    ecx,DWORD PTR [eax]
  408d99:	09 5f 5f             	or     DWORD PTR [edi+0x5f],ebx
  408d9c:	74 6d                	je     408e0b <.debug_info+0x78f>
  408d9e:	5f                   	pop    edi
  408d9f:	6d                   	ins    DWORD PTR es:[edi],dx
  408da0:	64                   	fs
  408da1:	61                   	popa   
  408da2:	79 00                	jns    408da4 <.debug_info+0x728>
  408da4:	08 39                	or     BYTE PTR [ecx],bh
  408da6:	0f 01 00             	sgdtd  [eax]
  408da9:	00 02                	add    BYTE PTR [edx],al
  408dab:	23 0c 09             	and    ecx,DWORD PTR [ecx+ecx*1]
  408dae:	5f                   	pop    edi
  408daf:	5f                   	pop    edi
  408db0:	74 6d                	je     408e1f <.debug_info+0x7a3>
  408db2:	5f                   	pop    edi
  408db3:	6d                   	ins    DWORD PTR es:[edi],dx
  408db4:	6f                   	outs   dx,DWORD PTR ds:[esi]
  408db5:	6e                   	outs   dx,BYTE PTR ds:[esi]
  408db6:	00 08                	add    BYTE PTR [eax],cl
  408db8:	3a 0f                	cmp    cl,BYTE PTR [edi]
  408dba:	01 00                	add    DWORD PTR [eax],eax
  408dbc:	00 02                	add    BYTE PTR [edx],al
  408dbe:	23 10                	and    edx,DWORD PTR [eax]
  408dc0:	09 5f 5f             	or     DWORD PTR [edi+0x5f],ebx
  408dc3:	74 6d                	je     408e32 <.debug_info+0x7b6>
  408dc5:	5f                   	pop    edi
  408dc6:	79 65                	jns    408e2d <.debug_info+0x7b1>
  408dc8:	61                   	popa   
  408dc9:	72 00                	jb     408dcb <.debug_info+0x74f>
  408dcb:	08 3b                	or     BYTE PTR [ebx],bh
  408dcd:	0f 01 00             	sgdtd  [eax]
  408dd0:	00 02                	add    BYTE PTR [edx],al
  408dd2:	23 14 09             	and    edx,DWORD PTR [ecx+ecx*1]
  408dd5:	5f                   	pop    edi
  408dd6:	5f                   	pop    edi
  408dd7:	74 6d                	je     408e46 <.debug_info+0x7ca>
  408dd9:	5f                   	pop    edi
  408dda:	77 64                	ja     408e40 <.debug_info+0x7c4>
  408ddc:	61                   	popa   
  408ddd:	79 00                	jns    408ddf <.debug_info+0x763>
  408ddf:	08 3c 0f             	or     BYTE PTR [edi+ecx*1],bh
  408de2:	01 00                	add    DWORD PTR [eax],eax
  408de4:	00 02                	add    BYTE PTR [edx],al
  408de6:	23 18                	and    ebx,DWORD PTR [eax]
  408de8:	09 5f 5f             	or     DWORD PTR [edi+0x5f],ebx
  408deb:	74 6d                	je     408e5a <.debug_info+0x7de>
  408ded:	5f                   	pop    edi
  408dee:	79 64                	jns    408e54 <.debug_info+0x7d8>
  408df0:	61                   	popa   
  408df1:	79 00                	jns    408df3 <.debug_info+0x777>
  408df3:	08 3d 0f 01 00 00    	or     BYTE PTR ds:0x10f,bh
  408df9:	02 23                	add    ah,BYTE PTR [ebx]
  408dfb:	1c 09                	sbb    al,0x9
  408dfd:	5f                   	pop    edi
  408dfe:	5f                   	pop    edi
  408dff:	74 6d                	je     408e6e <.debug_info+0x7f2>
  408e01:	5f                   	pop    edi
  408e02:	69 73 64 73 74 00 08 	imul   esi,DWORD PTR [ebx+0x64],0x8007473
  408e09:	3e 0f 01 00          	sgdtd  ds:[eax]
  408e0d:	00 02                	add    BYTE PTR [edx],al
  408e0f:	23 20                	and    esp,DWORD PTR [eax]
  408e11:	00 1c 07             	add    BYTE PTR [edi+eax*1],bl
  408e14:	00 00                	add    BYTE PTR [eax],al
  408e16:	00 08                	add    BYTE PTR [eax],cl
  408e18:	01 08                	add    DWORD PTR [eax],ecx
  408e1a:	47                   	inc    edi
  408e1b:	f4                   	hlt    
  408e1c:	07                   	pop    es
  408e1d:	00 00                	add    BYTE PTR [eax],al
  408e1f:	09 5f 66             	or     DWORD PTR [edi+0x66],ebx
  408e22:	6e                   	outs   dx,BYTE PTR ds:[esi]
  408e23:	61                   	popa   
  408e24:	72 67                	jb     408e8d <.debug_info+0x811>
  408e26:	73 00                	jae    408e28 <.debug_info+0x7ac>
  408e28:	08 48 f4             	or     BYTE PTR [eax-0xc],cl
  408e2b:	07                   	pop    es
  408e2c:	00 00                	add    BYTE PTR [eax],al
  408e2e:	02 23                	add    ah,BYTE PTR [ebx]
  408e30:	00 09                	add    BYTE PTR [ecx],cl
  408e32:	5f                   	pop    edi
  408e33:	64                   	fs
  408e34:	73 6f                	jae    408ea5 <.debug_info+0x829>
  408e36:	5f                   	pop    edi
  408e37:	68 61 6e 64 6c       	push   0x6c646e61
  408e3c:	65 00 08             	add    BYTE PTR gs:[eax],cl
  408e3f:	49                   	dec    ecx
  408e40:	f4                   	hlt    
  408e41:	07                   	pop    es
  408e42:	00 00                	add    BYTE PTR [eax],al
  408e44:	03 23                	add    esp,DWORD PTR [ebx]
  408e46:	80 01 09             	add    BYTE PTR [ecx],0x9
  408e49:	5f                   	pop    edi
  408e4a:	66                   	data16
  408e4b:	6e                   	outs   dx,BYTE PTR ds:[esi]
  408e4c:	74 79                	je     408ec7 <.debug_info+0x84b>
  408e4e:	70 65                	jo     408eb5 <.debug_info+0x839>
  408e50:	73 00                	jae    408e52 <.debug_info+0x7d6>
  408e52:	08 4b 45             	or     BYTE PTR [ebx+0x45],cl
  408e55:	06                   	push   es
  408e56:	00 00                	add    BYTE PTR [eax],al
  408e58:	03 23                	add    esp,DWORD PTR [ebx]
  408e5a:	80 02 09             	add    BYTE PTR [edx],0x9
  408e5d:	5f                   	pop    edi
  408e5e:	69 73 5f 63 78 61 00 	imul   esi,DWORD PTR [ebx+0x5f],0x617863
  408e65:	08 4e 45             	or     BYTE PTR [esi+0x45],cl
  408e68:	06                   	push   es
  408e69:	00 00                	add    BYTE PTR [eax],al
  408e6b:	03 23                	add    esp,DWORD PTR [ebx]
  408e6d:	84 02                	test   BYTE PTR [edx],al
  408e6f:	00 0a                	add    BYTE PTR [edx],cl
  408e71:	60                   	pusha  
  408e72:	01 00                	add    DWORD PTR [eax],eax
  408e74:	00 04 08             	add    BYTE PTR [eax+ecx*1],al
  408e77:	00 00                	add    BYTE PTR [eax],al
  408e79:	0b 16                	or     edx,DWORD PTR [esi]
  408e7b:	01 00                	add    DWORD PTR [eax],eax
  408e7d:	00 1f                	add    BYTE PTR [edi],bl
  408e7f:	00 1d 5f 61 74 65    	add    BYTE PTR ds:0x6574615f,bl
  408e85:	78 69                	js     408ef0 <.debug_info+0x874>
  408e87:	74 00                	je     408e89 <.debug_info+0x80d>
  408e89:	90                   	nop
  408e8a:	01 08                	add    DWORD PTR [eax],ecx
  408e8c:	59                   	pop    ecx
  408e8d:	53                   	push   ebx
  408e8e:	08 00                	or     BYTE PTR [eax],al
  408e90:	00 09                	add    BYTE PTR [ecx],cl
  408e92:	5f                   	pop    edi
  408e93:	6e                   	outs   dx,BYTE PTR ds:[esi]
  408e94:	65                   	gs
  408e95:	78 74                	js     408f0b <.debug_info+0x88f>
  408e97:	00 08                	add    BYTE PTR [eax],cl
  408e99:	5a                   	pop    edx
  408e9a:	53                   	push   ebx
  408e9b:	08 00                	or     BYTE PTR [eax],al
  408e9d:	00 02                	add    BYTE PTR [edx],al
  408e9f:	23 00                	and    eax,DWORD PTR [eax]
  408ea1:	09 5f 69             	or     DWORD PTR [edi+0x69],ebx
  408ea4:	6e                   	outs   dx,BYTE PTR ds:[esi]
  408ea5:	64 00 08             	add    BYTE PTR fs:[eax],cl
  408ea8:	5b                   	pop    ebx
  408ea9:	0f 01 00             	sgdtd  [eax]
  408eac:	00 02                	add    BYTE PTR [edx],al
  408eae:	23 04 09             	and    eax,DWORD PTR [ecx+ecx*1]
  408eb1:	5f                   	pop    edi
  408eb2:	66                   	data16
  408eb3:	6e                   	outs   dx,BYTE PTR ds:[esi]
  408eb4:	73 00                	jae    408eb6 <.debug_info+0x83a>
  408eb6:	08 5d 59             	or     BYTE PTR [ebp+0x59],bl
  408eb9:	08 00                	or     BYTE PTR [eax],al
  408ebb:	00 02                	add    BYTE PTR [edx],al
  408ebd:	23 08                	and    ecx,DWORD PTR [eax]
  408ebf:	1e                   	push   ds
  408ec0:	07                   	pop    es
  408ec1:	00 00                	add    BYTE PTR [eax],al
  408ec3:	00 08                	add    BYTE PTR [eax],cl
  408ec5:	5e                   	pop    esi
  408ec6:	96                   	xchg   esi,eax
  408ec7:	07                   	pop    es
  408ec8:	00 00                	add    BYTE PTR [eax],al
  408eca:	03 23                	add    esp,DWORD PTR [ebx]
  408ecc:	88 01                	mov    BYTE PTR [ecx],al
  408ece:	00 0c 04             	add    BYTE PTR [esp+eax*1],cl
  408ed1:	04 08                	add    al,0x8
  408ed3:	00 00                	add    BYTE PTR [eax],al
  408ed5:	0a 6a 08             	or     ch,BYTE PTR [edx+0x8]
  408ed8:	00 00                	add    BYTE PTR [eax],al
  408eda:	69 08 00 00 0b 16    	imul   ecx,DWORD PTR [eax],0x160b0000
  408ee0:	01 00                	add    DWORD PTR [eax],eax
  408ee2:	00 1f                	add    BYTE PTR [edi],bl
  408ee4:	00 1f                	add    BYTE PTR [edi],bl
  408ee6:	0c 04                	or     al,0x4
  408ee8:	69 08 00 00 1b 5f    	imul   ecx,DWORD PTR [eax],0x5f1b0000
  408eee:	5f                   	pop    edi
  408eef:	73 62                	jae    408f53 <.debug_info+0x8d7>
  408ef1:	75 66                	jne    408f59 <.debug_info+0x8dd>
  408ef3:	00 08                	add    BYTE PTR [eax],cl
  408ef5:	08 69 a0             	or     BYTE PTR [ecx-0x60],ch
  408ef8:	08 00                	or     BYTE PTR [eax],al
  408efa:	00 09                	add    BYTE PTR [ecx],cl
  408efc:	5f                   	pop    edi
  408efd:	62 61 73             	bound  esp,QWORD PTR [ecx+0x73]
  408f00:	65 00 08             	add    BYTE PTR gs:[eax],cl
  408f03:	6a a0                	push   0xffffffa0
  408f05:	08 00                	or     BYTE PTR [eax],al
  408f07:	00 02                	add    BYTE PTR [edx],al
  408f09:	23 00                	and    eax,DWORD PTR [eax]
  408f0b:	09 5f 73             	or     DWORD PTR [edi+0x73],ebx
  408f0e:	69 7a 65 00 08 6b 0f 	imul   edi,DWORD PTR [edx+0x65],0xf6b0800
  408f15:	01 00                	add    DWORD PTR [eax],eax
  408f17:	00 02                	add    BYTE PTR [edx],al
  408f19:	23 04 00             	and    eax,DWORD PTR [eax+eax*1]
  408f1c:	0c 04                	or     al,0x4
  408f1e:	db 00                	fild   DWORD PTR [eax]
  408f20:	00 00                	add    BYTE PTR [eax],al
  408f22:	20 9e 01 00 00 c4    	and    BYTE PTR [esi-0x3bffffff],bl
  408f28:	08 00                	or     BYTE PTR [eax],al
  408f2a:	00 12                	add    BYTE PTR [edx],dl
  408f2c:	c4 08                	les    ecx,FWORD PTR [eax]
  408f2e:	00 00                	add    BYTE PTR [eax],al
  408f30:	12 60 01             	adc    ah,BYTE PTR [eax+0x1]
  408f33:	00 00                	add    BYTE PTR [eax],al
  408f35:	12 6d 02             	adc    ch,BYTE PTR [ebp+0x2]
  408f38:	00 00                	add    BYTE PTR [eax],al
  408f3a:	12 0f                	adc    cl,BYTE PTR [edi]
  408f3c:	01 00                	add    DWORD PTR [eax],eax
  408f3e:	00 00                	add    BYTE PTR [eax],al
  408f40:	0c 04                	or     al,0x4
  408f42:	ca 08 00             	retf   0x8
  408f45:	00 21                	add    BYTE PTR [ecx],ah
  408f47:	5f                   	pop    edi
  408f48:	72 65                	jb     408faf <.debug_info+0x933>
  408f4a:	65 6e                	outs   dx,BYTE PTR gs:[esi]
  408f4c:	74 00                	je     408f4e <.debug_info+0x8d2>
  408f4e:	40                   	inc    eax
  408f4f:	04 08                	add    al,0x8
  408f51:	45                   	inc    ebp
  408f52:	02 cb                	add    cl,bl
  408f54:	0c 00                	or     al,0x0
  408f56:	00 22                	add    BYTE PTR [edx],ah
  408f58:	f0 08 62 02          	lock or BYTE PTR [edx+0x2],ah
  408f5c:	10 0b                	adc    BYTE PTR [ebx],cl
  408f5e:	00 00                	add    BYTE PTR [eax],al
  408f60:	23 d0                	and    edx,eax
  408f62:	08 64 02 c0          	or     BYTE PTR [edx+eax*1-0x40],ah
  408f66:	0a 00                	or     al,BYTE PTR [eax]
  408f68:	00 24 5f             	add    BYTE PTR [edi+ebx*2],ah
  408f6b:	75 6e                	jne    408fdb <.debug_info+0x95f>
  408f6d:	75 73                	jne    408fe2 <.debug_info+0x966>
  408f6f:	65                   	gs
  408f70:	64                   	fs
  408f71:	5f                   	pop    edi
  408f72:	72 61                	jb     408fd5 <.debug_info+0x959>
  408f74:	6e                   	outs   dx,BYTE PTR ds:[esi]
  408f75:	64 00 08             	add    BYTE PTR fs:[eax],cl
  408f78:	65 02 16             	add    dl,BYTE PTR gs:[esi]
  408f7b:	01 00                	add    DWORD PTR [eax],eax
  408f7d:	00 02                	add    BYTE PTR [edx],al
  408f7f:	23 00                	and    eax,DWORD PTR [eax]
  408f81:	24 5f                	and    al,0x5f
  408f83:	73 74                	jae    408ff9 <.debug_info+0x97d>
  408f85:	72 74                	jb     408ffb <.debug_info+0x97f>
  408f87:	6f                   	outs   dx,DWORD PTR ds:[esi]
  408f88:	6b 5f 6c 61          	imul   ebx,DWORD PTR [edi+0x6c],0x61
  408f8c:	73 74                	jae    409002 <.debug_info+0x986>
  408f8e:	00 08                	add    BYTE PTR [eax],cl
  408f90:	66                   	data16
  408f91:	02 6d 02             	add    ch,BYTE PTR [ebp+0x2]
  408f94:	00 00                	add    BYTE PTR [eax],al
  408f96:	02 23                	add    ah,BYTE PTR [ebx]
  408f98:	04 24                	add    al,0x24
  408f9a:	5f                   	pop    edi
  408f9b:	61                   	popa   
  408f9c:	73 63                	jae    409001 <.debug_info+0x985>
  408f9e:	74 69                	je     409009 <.debug_info+0x98d>
  408fa0:	6d                   	ins    DWORD PTR es:[edi],dx
  408fa1:	65                   	gs
  408fa2:	5f                   	pop    edi
  408fa3:	62 75 66             	bound  esi,QWORD PTR [ebp+0x66]
  408fa6:	00 08                	add    BYTE PTR [eax],cl
  408fa8:	67 02 d5             	addr16 add dl,ch
  408fab:	0f 00 00             	sldt   WORD PTR [eax]
  408fae:	02 23                	add    ah,BYTE PTR [ebx]
  408fb0:	08 24 5f             	or     BYTE PTR [edi+ebx*2],ah
  408fb3:	6c                   	ins    BYTE PTR es:[edi],dx
  408fb4:	6f                   	outs   dx,DWORD PTR ds:[esi]
  408fb5:	63 61 6c             	arpl   WORD PTR [ecx+0x6c],sp
  408fb8:	74 69                	je     409023 <.debug_info+0x9a7>
  408fba:	6d                   	ins    DWORD PTR es:[edi],dx
  408fbb:	65                   	gs
  408fbc:	5f                   	pop    edi
  408fbd:	62 75 66             	bound  esi,QWORD PTR [ebp+0x66]
  408fc0:	00 08                	add    BYTE PTR [eax],cl
  408fc2:	68 02 d6 06 00       	push   0x6d602
  408fc7:	00 02                	add    BYTE PTR [edx],al
  408fc9:	23 24 24             	and    esp,DWORD PTR [esp]
  408fcc:	5f                   	pop    edi
  408fcd:	67 61                	addr16 popa 
  408fcf:	6d                   	ins    DWORD PTR es:[edi],dx
  408fd0:	6d                   	ins    DWORD PTR es:[edi],dx
  408fd1:	61                   	popa   
  408fd2:	5f                   	pop    edi
  408fd3:	73 69                	jae    40903e <.debug_info+0x9c2>
  408fd5:	67 6e                	outs   dx,BYTE PTR ds:[si]
  408fd7:	67 61                	addr16 popa 
  408fd9:	6d                   	ins    DWORD PTR es:[edi],dx
  408fda:	00 08                	add    BYTE PTR [eax],cl
  408fdc:	69 02 0f 01 00 00    	imul   eax,DWORD PTR [edx],0x10f
  408fe2:	02 23                	add    ah,BYTE PTR [ebx]
  408fe4:	48                   	dec    eax
  408fe5:	24 5f                	and    al,0x5f
  408fe7:	72 61                	jb     40904a <.debug_info+0x9ce>
  408fe9:	6e                   	outs   dx,BYTE PTR ds:[esi]
  408fea:	64                   	fs
  408feb:	5f                   	pop    edi
  408fec:	6e                   	outs   dx,BYTE PTR ds:[esi]
  408fed:	65                   	gs
  408fee:	78 74                	js     409064 <.debug_info+0x9e8>
  408ff0:	00 08                	add    BYTE PTR [eax],cl
  408ff2:	6a 02                	push   0x2
  408ff4:	37                   	aaa    
  408ff5:	01 00                	add    DWORD PTR [eax],eax
  408ff7:	00 02                	add    BYTE PTR [edx],al
  408ff9:	23 50 24             	and    edx,DWORD PTR [eax+0x24]
  408ffc:	5f                   	pop    edi
  408ffd:	72 34                	jb     409033 <.debug_info+0x9b7>
  408fff:	38 00                	cmp    BYTE PTR [eax],al
  409001:	08 6b 02             	or     BYTE PTR [ebx+0x2],ch
  409004:	81 0f 00 00 02 23    	or     DWORD PTR [edi],0x23020000
  40900a:	58                   	pop    eax
  40900b:	24 5f                	and    al,0x5f
  40900d:	6d                   	ins    DWORD PTR es:[edi],dx
  40900e:	62 6c 65 6e          	bound  ebp,QWORD PTR [ebp+eiz*2+0x6e]
  409012:	5f                   	pop    edi
  409013:	73 74                	jae    409089 <.debug_info+0xa0d>
  409015:	61                   	popa   
  409016:	74 65                	je     40907d <.debug_info+0xa01>
  409018:	00 08                	add    BYTE PTR [eax],cl
  40901a:	6c                   	ins    BYTE PTR es:[edi],dx
  40901b:	02 bd 01 00 00 02    	add    bh,BYTE PTR [ebp+0x2000001]
  409021:	23 68 24             	and    ebp,DWORD PTR [eax+0x24]
  409024:	5f                   	pop    edi
  409025:	6d                   	ins    DWORD PTR es:[edi],dx
  409026:	62 74 6f 77          	bound  esi,QWORD PTR [edi+ebp*2+0x77]
  40902a:	63 5f 73             	arpl   WORD PTR [edi+0x73],bx
  40902d:	74 61                	je     409090 <.debug_info+0xa14>
  40902f:	74 65                	je     409096 <.debug_info+0xa1a>
  409031:	00 08                	add    BYTE PTR [eax],cl
  409033:	6d                   	ins    DWORD PTR es:[edi],dx
  409034:	02 bd 01 00 00 02    	add    bh,BYTE PTR [ebp+0x2000001]
  40903a:	23 70 24             	and    esi,DWORD PTR [eax+0x24]
  40903d:	5f                   	pop    edi
  40903e:	77 63                	ja     4090a3 <.debug_info+0xa27>
  409040:	74 6f                	je     4090b1 <.debug_info+0xa35>
  409042:	6d                   	ins    DWORD PTR es:[edi],dx
  409043:	62 5f 73             	bound  ebx,QWORD PTR [edi+0x73]
  409046:	74 61                	je     4090a9 <.debug_info+0xa2d>
  409048:	74 65                	je     4090af <.debug_info+0xa33>
  40904a:	00 08                	add    BYTE PTR [eax],cl
  40904c:	6e                   	outs   dx,BYTE PTR ds:[esi]
  40904d:	02 bd 01 00 00 02    	add    bh,BYTE PTR [ebp+0x2000001]
  409053:	23 78 24             	and    edi,DWORD PTR [eax+0x24]
  409056:	5f                   	pop    edi
  409057:	6c                   	ins    BYTE PTR es:[edi],dx
  409058:	36                   	ss
  409059:	34 61                	xor    al,0x61
  40905b:	5f                   	pop    edi
  40905c:	62 75 66             	bound  esi,QWORD PTR [ebp+0x66]
  40905f:	00 08                	add    BYTE PTR [eax],cl
  409061:	6f                   	outs   dx,DWORD PTR ds:[esi]
  409062:	02 e5                	add    ah,ch
  409064:	0f 00 00             	sldt   WORD PTR [eax]
  409067:	03 23                	add    esp,DWORD PTR [ebx]
  409069:	80 01 24             	add    BYTE PTR [ecx],0x24
  40906c:	5f                   	pop    edi
  40906d:	73 69                	jae    4090d8 <.debug_info+0xa5c>
  40906f:	67 6e                	outs   dx,BYTE PTR ds:[si]
  409071:	61                   	popa   
  409072:	6c                   	ins    BYTE PTR es:[edi],dx
  409073:	5f                   	pop    edi
  409074:	62 75 66             	bound  esi,QWORD PTR [ebp+0x66]
  409077:	00 08                	add    BYTE PTR [eax],cl
  409079:	70 02                	jo     40907d <.debug_info+0xa01>
  40907b:	f5                   	cmc    
  40907c:	0f 00 00             	sldt   WORD PTR [eax]
  40907f:	03 23                	add    esp,DWORD PTR [ebx]
  409081:	88 01                	mov    BYTE PTR [ecx],al
  409083:	24 5f                	and    al,0x5f
  409085:	67                   	addr16
  409086:	65                   	gs
  409087:	74 64                	je     4090ed <.debug_info+0xa71>
  409089:	61                   	popa   
  40908a:	74 65                	je     4090f1 <.debug_info+0xa75>
  40908c:	5f                   	pop    edi
  40908d:	65                   	gs
  40908e:	72 72                	jb     409102 <.debug_info+0xa86>
  409090:	00 08                	add    BYTE PTR [eax],cl
  409092:	71 02                	jno    409096 <.debug_info+0xa1a>
  409094:	0f 01 00             	sgdtd  [eax]
  409097:	00 03                	add    BYTE PTR [ebx],al
  409099:	23 a0 01 24 5f 6d    	and    esp,DWORD PTR [eax+0x6d5f2401]
  40909f:	62 72 6c             	bound  esi,QWORD PTR [edx+0x6c]
  4090a2:	65 6e                	outs   dx,BYTE PTR gs:[esi]
  4090a4:	5f                   	pop    edi
  4090a5:	73 74                	jae    40911b <.debug_info+0xa9f>
  4090a7:	61                   	popa   
  4090a8:	74 65                	je     40910f <.debug_info+0xa93>
  4090aa:	00 08                	add    BYTE PTR [eax],cl
  4090ac:	72 02                	jb     4090b0 <.debug_info+0xa34>
  4090ae:	bd 01 00 00 03       	mov    ebp,0x3000001
  4090b3:	23 a4 01 24 5f 6d 62 	and    esp,DWORD PTR [ecx+eax*1+0x626d5f24]
  4090ba:	72 74                	jb     409130 <.debug_info+0xab4>
  4090bc:	6f                   	outs   dx,DWORD PTR ds:[esi]
  4090bd:	77 63                	ja     409122 <.debug_info+0xaa6>
  4090bf:	5f                   	pop    edi
  4090c0:	73 74                	jae    409136 <.debug_info+0xaba>
  4090c2:	61                   	popa   
  4090c3:	74 65                	je     40912a <.debug_info+0xaae>
  4090c5:	00 08                	add    BYTE PTR [eax],cl
  4090c7:	73 02                	jae    4090cb <.debug_info+0xa4f>
  4090c9:	bd 01 00 00 03       	mov    ebp,0x3000001
  4090ce:	23 ac 01 24 5f 6d 62 	and    ebp,DWORD PTR [ecx+eax*1+0x626d5f24]
  4090d5:	73 72                	jae    409149 <.debug_info+0xacd>
  4090d7:	74 6f                	je     409148 <.debug_info+0xacc>
  4090d9:	77 63                	ja     40913e <.debug_info+0xac2>
  4090db:	73 5f                	jae    40913c <.debug_info+0xac0>
  4090dd:	73 74                	jae    409153 <.debug_info+0xad7>
  4090df:	61                   	popa   
  4090e0:	74 65                	je     409147 <.debug_info+0xacb>
  4090e2:	00 08                	add    BYTE PTR [eax],cl
  4090e4:	74 02                	je     4090e8 <.debug_info+0xa6c>
  4090e6:	bd 01 00 00 03       	mov    ebp,0x3000001
  4090eb:	23 b4 01 24 5f 77 63 	and    esi,DWORD PTR [ecx+eax*1+0x63775f24]
  4090f2:	72 74                	jb     409168 <.debug_info+0xaec>
  4090f4:	6f                   	outs   dx,DWORD PTR ds:[esi]
  4090f5:	6d                   	ins    DWORD PTR es:[edi],dx
  4090f6:	62 5f 73             	bound  ebx,QWORD PTR [edi+0x73]
  4090f9:	74 61                	je     40915c <.debug_info+0xae0>
  4090fb:	74 65                	je     409162 <.debug_info+0xae6>
  4090fd:	00 08                	add    BYTE PTR [eax],cl
  4090ff:	75 02                	jne    409103 <.debug_info+0xa87>
  409101:	bd 01 00 00 03       	mov    ebp,0x3000001
  409106:	23 bc 01 24 5f 77 63 	and    edi,DWORD PTR [ecx+eax*1+0x63775f24]
  40910d:	73 72                	jae    409181 <.debug_info+0xb05>
  40910f:	74 6f                	je     409180 <.debug_info+0xb04>
  409111:	6d                   	ins    DWORD PTR es:[edi],dx
  409112:	62 73 5f             	bound  esi,QWORD PTR [ebx+0x5f]
  409115:	73 74                	jae    40918b <.debug_info+0xb0f>
  409117:	61                   	popa   
  409118:	74 65                	je     40917f <.debug_info+0xb03>
  40911a:	00 08                	add    BYTE PTR [eax],cl
  40911c:	76 02                	jbe    409120 <.debug_info+0xaa4>
  40911e:	bd 01 00 00 03       	mov    ebp,0x3000001
  409123:	23 c4                	and    eax,esp
  409125:	01 24 5f             	add    DWORD PTR [edi+ebx*2],esp
  409128:	68 5f 65 72 72       	push   0x7272655f
  40912d:	6e                   	outs   dx,BYTE PTR ds:[esi]
  40912e:	6f                   	outs   dx,DWORD PTR ds:[esi]
  40912f:	00 08                	add    BYTE PTR [eax],cl
  409131:	77 02                	ja     409135 <.debug_info+0xab9>
  409133:	0f 01 00             	sgdtd  [eax]
  409136:	00 03                	add    BYTE PTR [ebx],al
  409138:	23 cc                	and    ecx,esp
  40913a:	01 00                	add    DWORD PTR [eax],eax
  40913c:	23 f0                	and    esi,eax
  40913e:	08 7d 02             	or     BYTE PTR [ebp+0x2],bh
  409141:	f0 0a 00             	lock or al,BYTE PTR [eax]
  409144:	00 24 5f             	add    BYTE PTR [edi+ebx*2],ah
  409147:	6e                   	outs   dx,BYTE PTR ds:[esi]
  409148:	65                   	gs
  409149:	78 74                	js     4091bf <.debug_info+0xb43>
  40914b:	66                   	data16
  40914c:	00 08                	add    BYTE PTR [eax],cl
  40914e:	7f 02                	jg     409152 <.debug_info+0xad6>
  409150:	05 10 00 00 02       	add    eax,0x2000010
  409155:	23 00                	and    eax,DWORD PTR [eax]
  409157:	24 5f                	and    al,0x5f
  409159:	6e                   	outs   dx,BYTE PTR ds:[esi]
  40915a:	6d                   	ins    DWORD PTR es:[edi],dx
  40915b:	61                   	popa   
  40915c:	6c                   	ins    BYTE PTR es:[edi],dx
  40915d:	6c                   	ins    BYTE PTR es:[edi],dx
  40915e:	6f                   	outs   dx,DWORD PTR ds:[esi]
  40915f:	63 00                	arpl   WORD PTR [eax],ax
  409161:	08 80 02 15 10 00    	or     BYTE PTR [eax+0x101502],al
  409167:	00 02                	add    BYTE PTR [edx],al
  409169:	23 78 00             	and    edi,DWORD PTR [eax+0x0]
  40916c:	25 5f 72 65 65       	and    eax,0x6565725f
  409171:	6e                   	outs   dx,BYTE PTR ds:[esi]
  409172:	74 00                	je     409174 <.debug_info+0xaf8>
  409174:	08 78 02             	or     BYTE PTR [eax+0x2],bh
  409177:	e4 08                	in     al,0x8
  409179:	00 00                	add    BYTE PTR [eax],al
  40917b:	25 5f 75 6e 75       	and    eax,0x756e755f
  409180:	73 65                	jae    4091e7 <.debug_info+0xb6b>
  409182:	64 00 08             	add    BYTE PTR fs:[eax],cl
  409185:	81 02 c0 0a 00 00    	add    DWORD PTR [edx],0xac0
  40918b:	00 24 5f             	add    BYTE PTR [edi+ebx*2],ah
  40918e:	65                   	gs
  40918f:	72 72                	jb     409203 <.debug_info+0xb87>
  409191:	6e                   	outs   dx,BYTE PTR ds:[esi]
  409192:	6f                   	outs   dx,DWORD PTR ds:[esi]
  409193:	00 08                	add    BYTE PTR [eax],cl
  409195:	46                   	inc    esi
  409196:	02 0f                	add    cl,BYTE PTR [edi]
  409198:	01 00                	add    DWORD PTR [eax],eax
  40919a:	00 02                	add    BYTE PTR [edx],al
  40919c:	23 00                	and    eax,DWORD PTR [eax]
  40919e:	24 5f                	and    al,0x5f
  4091a0:	73 74                	jae    409216 <.debug_info+0xb9a>
  4091a2:	64 69 6e 00 08 4b 02 	imul   ebp,DWORD PTR fs:[esi+0x0],0x7b024b08
  4091a9:	7b 
  4091aa:	0f 00 00             	sldt   WORD PTR [eax]
  4091ad:	02 23                	add    ah,BYTE PTR [ebx]
  4091af:	04 24                	add    al,0x24
  4091b1:	5f                   	pop    edi
  4091b2:	73 74                	jae    409228 <.debug_info+0xbac>
  4091b4:	64 6f                	outs   dx,DWORD PTR fs:[esi]
  4091b6:	75 74                	jne    40922c <.debug_info+0xbb0>
  4091b8:	00 08                	add    BYTE PTR [eax],cl
  4091ba:	4b                   	dec    ebx
  4091bb:	02 7b 0f             	add    bh,BYTE PTR [ebx+0xf]
  4091be:	00 00                	add    BYTE PTR [eax],al
  4091c0:	02 23                	add    ah,BYTE PTR [ebx]
  4091c2:	08 24 5f             	or     BYTE PTR [edi+ebx*2],ah
  4091c5:	73 74                	jae    40923b <.debug_info+0xbbf>
  4091c7:	64                   	fs
  4091c8:	65                   	gs
  4091c9:	72 72                	jb     40923d <.debug_info+0xbc1>
  4091cb:	00 08                	add    BYTE PTR [eax],cl
  4091cd:	4b                   	dec    ebx
  4091ce:	02 7b 0f             	add    bh,BYTE PTR [ebx+0xf]
  4091d1:	00 00                	add    BYTE PTR [eax],al
  4091d3:	02 23                	add    ah,BYTE PTR [ebx]
  4091d5:	0c 24                	or     al,0x24
  4091d7:	5f                   	pop    edi
  4091d8:	69 6e 63 00 08 4d 02 	imul   ebp,DWORD PTR [esi+0x63],0x24d0800
  4091df:	0f 01 00             	sgdtd  [eax]
  4091e2:	00 02                	add    BYTE PTR [edx],al
  4091e4:	23 10                	and    edx,DWORD PTR [eax]
  4091e6:	24 5f                	and    al,0x5f
  4091e8:	65                   	gs
  4091e9:	6d                   	ins    DWORD PTR es:[edi],dx
  4091ea:	65                   	gs
  4091eb:	72 67                	jb     409254 <.debug_info+0xbd8>
  4091ed:	65 6e                	outs   dx,BYTE PTR gs:[esi]
  4091ef:	63 79 00             	arpl   WORD PTR [ecx+0x0],di
  4091f2:	08 4e 02             	or     BYTE PTR [esi+0x2],cl
  4091f5:	25 10 00 00 02       	and    eax,0x2000010
  4091fa:	23 14 24             	and    edx,DWORD PTR [esp]
  4091fd:	5f                   	pop    edi
  4091fe:	63 75 72             	arpl   WORD PTR [ebp+0x72],si
  409201:	72 65                	jb     409268 <.debug_info+0xbec>
  409203:	6e                   	outs   dx,BYTE PTR ds:[esi]
  409204:	74 5f                	je     409265 <.debug_info+0xbe9>
  409206:	63 61 74             	arpl   WORD PTR [ecx+0x74],sp
  409209:	65 67 6f             	outs   dx,DWORD PTR gs:[si]
  40920c:	72 79                	jb     409287 <.debug_info+0xc0b>
  40920e:	00 08                	add    BYTE PTR [eax],cl
  409210:	50                   	push   eax
  409211:	02 0f                	add    cl,BYTE PTR [edi]
  409213:	01 00                	add    DWORD PTR [eax],eax
  409215:	00 02                	add    BYTE PTR [edx],al
  409217:	23 30                	and    esi,DWORD PTR [eax]
  409219:	24 5f                	and    al,0x5f
  40921b:	63 75 72             	arpl   WORD PTR [ebp+0x72],si
  40921e:	72 65                	jb     409285 <.debug_info+0xc09>
  409220:	6e                   	outs   dx,BYTE PTR ds:[esi]
  409221:	74 5f                	je     409282 <.debug_info+0xc06>
  409223:	6c                   	ins    BYTE PTR es:[edi],dx
  409224:	6f                   	outs   dx,DWORD PTR ds:[esi]
  409225:	63 61 6c             	arpl   WORD PTR [ecx+0x6c],sp
  409228:	65 00 08             	add    BYTE PTR gs:[eax],cl
  40922b:	51                   	push   ecx
  40922c:	02 f2                	add    dh,dl
  40922e:	05 00 00 02 23       	add    eax,0x23020000
  409233:	34 24                	xor    al,0x24
  409235:	5f                   	pop    edi
  409236:	5f                   	pop    edi
  409237:	73 64                	jae    40929d <.debug_info+0xc21>
  409239:	69 64 69 6e 69 74 00 	imul   esp,DWORD PTR [ecx+ebp*2+0x6e],0x8007469
  409240:	08 
  409241:	53                   	push   ebx
  409242:	02 0f                	add    cl,BYTE PTR [edi]
  409244:	01 00                	add    DWORD PTR [eax],eax
  409246:	00 02                	add    BYTE PTR [edx],al
  409248:	23 38                	and    edi,DWORD PTR [eax]
  40924a:	24 5f                	and    al,0x5f
  40924c:	5f                   	pop    edi
  40924d:	63 6c 65 61          	arpl   WORD PTR [ebp+eiz*2+0x61],bp
  409251:	6e                   	outs   dx,BYTE PTR ds:[esi]
  409252:	75 70                	jne    4092c4 <.debug_info+0xc48>
  409254:	00 08                	add    BYTE PTR [eax],cl
  409256:	55                   	push   ebp
  409257:	02 46 10             	add    al,BYTE PTR [esi+0x10]
  40925a:	00 00                	add    BYTE PTR [eax],al
  40925c:	02 23                	add    ah,BYTE PTR [ebx]
  40925e:	3c 24                	cmp    al,0x24
  409260:	5f                   	pop    edi
  409261:	72 65                	jb     4092c8 <.debug_info+0xc4c>
  409263:	73 75                	jae    4092da <.debug_info+0xc5e>
  409265:	6c                   	ins    BYTE PTR es:[edi],dx
  409266:	74 00                	je     409268 <.debug_info+0xbec>
  409268:	08 58 02             	or     BYTE PTR [eax+0x2],bl
  40926b:	4c                   	dec    esp
  40926c:	10 00                	adc    BYTE PTR [eax],al
  40926e:	00 02                	add    BYTE PTR [edx],al
  409270:	23 40 24             	and    eax,DWORD PTR [eax+0x24]
  409273:	5f                   	pop    edi
  409274:	72 65                	jb     4092db <.debug_info+0xc5f>
  409276:	73 75                	jae    4092ed <.debug_info+0xc71>
  409278:	6c                   	ins    BYTE PTR es:[edi],dx
  409279:	74 5f                	je     4092da <.debug_info+0xc5e>
  40927b:	6b 00 08             	imul   eax,DWORD PTR [eax],0x8
  40927e:	59                   	pop    ecx
  40927f:	02 0f                	add    cl,BYTE PTR [edi]
  409281:	01 00                	add    DWORD PTR [eax],eax
  409283:	00 02                	add    BYTE PTR [edx],al
  409285:	23 44 24 5f          	and    eax,DWORD PTR [esp+0x5f]
  409289:	70 35                	jo     4092c0 <.debug_info+0xc44>
  40928b:	73 00                	jae    40928d <.debug_info+0xc11>
  40928d:	08 5a 02             	or     BYTE PTR [edx+0x2],bl
  409290:	4c                   	dec    esp
  409291:	10 00                	adc    BYTE PTR [eax],al
  409293:	00 02                	add    BYTE PTR [edx],al
  409295:	23 48 24             	and    ecx,DWORD PTR [eax+0x24]
  409298:	5f                   	pop    edi
  409299:	66                   	data16
  40929a:	72 65                	jb     409301 <.debug_info+0xc85>
  40929c:	65                   	gs
  40929d:	6c                   	ins    BYTE PTR es:[edi],dx
  40929e:	69 73 74 00 08 5b 02 	imul   esi,DWORD PTR [ebx+0x74],0x25b0800
  4092a5:	52                   	push   edx
  4092a6:	10 00                	adc    BYTE PTR [eax],al
  4092a8:	00 02                	add    BYTE PTR [edx],al
  4092aa:	23 4c 24 5f          	and    ecx,DWORD PTR [esp+0x5f]
  4092ae:	63 76 74             	arpl   WORD PTR [esi+0x74],si
  4092b1:	6c                   	ins    BYTE PTR es:[edi],dx
  4092b2:	65 6e                	outs   dx,BYTE PTR gs:[esi]
  4092b4:	00 08                	add    BYTE PTR [eax],cl
  4092b6:	5e                   	pop    esi
  4092b7:	02 0f                	add    cl,BYTE PTR [edi]
  4092b9:	01 00                	add    DWORD PTR [eax],eax
  4092bb:	00 02                	add    BYTE PTR [edx],al
  4092bd:	23 50 24             	and    edx,DWORD PTR [eax+0x24]
  4092c0:	5f                   	pop    edi
  4092c1:	63 76 74             	arpl   WORD PTR [esi+0x74],si
  4092c4:	62 75 66             	bound  esi,QWORD PTR [ebp+0x66]
  4092c7:	00 08                	add    BYTE PTR [eax],cl
  4092c9:	5f                   	pop    edi
  4092ca:	02 6d 02             	add    ch,BYTE PTR [ebp+0x2]
  4092cd:	00 00                	add    BYTE PTR [eax],al
  4092cf:	02 23                	add    ah,BYTE PTR [ebx]
  4092d1:	54                   	push   esp
  4092d2:	24 5f                	and    al,0x5f
  4092d4:	6e                   	outs   dx,BYTE PTR ds:[esi]
  4092d5:	65                   	gs
  4092d6:	77 00                	ja     4092d8 <.debug_info+0xc5c>
  4092d8:	08 82 02 db 08 00    	or     BYTE PTR [edx+0x8db02],al
  4092de:	00 02                	add    BYTE PTR [edx],al
  4092e0:	23 58 24             	and    ebx,DWORD PTR [eax+0x24]
  4092e3:	5f                   	pop    edi
  4092e4:	61                   	popa   
  4092e5:	74 65                	je     40934c <.debug_info+0xcd0>
  4092e7:	78 69                	js     409352 <.debug_info+0xcd6>
  4092e9:	74 00                	je     4092eb <.debug_info+0xc6f>
  4092eb:	08 85 02 58 10 00    	or     BYTE PTR [ebp+0x105802],al
  4092f1:	00 03                	add    BYTE PTR [ebx],al
  4092f3:	23 c8                	and    ecx,eax
  4092f5:	02 24 5f             	add    ah,BYTE PTR [edi+ebx*2]
  4092f8:	61                   	popa   
  4092f9:	74 65                	je     409360 <.debug_info+0xce4>
  4092fb:	78 69                	js     409366 <.debug_info+0xcea>
  4092fd:	74 30                	je     40932f <.debug_info+0xcb3>
  4092ff:	00 08                	add    BYTE PTR [eax],cl
  409301:	86 02                	xchg   BYTE PTR [edx],al
  409303:	04 08                	add    al,0x8
  409305:	00 00                	add    BYTE PTR [eax],al
  409307:	03 23                	add    esp,DWORD PTR [ebx]
  409309:	cc                   	int3   
  40930a:	02 24 5f             	add    ah,BYTE PTR [edi+ebx*2]
  40930d:	73 69                	jae    409378 <.debug_info+0xcfc>
  40930f:	67 5f                	addr16 pop edi
  409311:	66                   	data16
  409312:	75 6e                	jne    409382 <.debug_info+0xd06>
  409314:	63 00                	arpl   WORD PTR [eax],ax
  409316:	08 89 02 69 10 00    	or     BYTE PTR [ecx+0x106902],cl
  40931c:	00 03                	add    BYTE PTR [ebx],al
  40931e:	23 dc                	and    ebx,esp
  409320:	05 24 5f 5f 73       	add    eax,0x735f5f24
  409325:	67 6c                	ins    BYTE PTR es:[di],dx
  409327:	75 65                	jne    40938e <.debug_info+0xd12>
  409329:	00 08                	add    BYTE PTR [eax],cl
  40932b:	8e 02                	mov    es,WORD PTR [edx]
  40932d:	31 0f                	xor    DWORD PTR [edi],ecx
  40932f:	00 00                	add    BYTE PTR [eax],al
  409331:	03 23                	add    esp,DWORD PTR [ebx]
  409333:	e0 05                	loopne 40933a <.debug_info+0xcbe>
  409335:	24 5f                	and    al,0x5f
  409337:	5f                   	pop    edi
  409338:	73 66                	jae    4093a0 <.debug_info+0xd24>
  40933a:	00 08                	add    BYTE PTR [eax],cl
  40933c:	8f 02                	pop    DWORD PTR [edx]
  40933e:	75 10                	jne    409350 <.debug_info+0xcd4>
  409340:	00 00                	add    BYTE PTR [eax],al
  409342:	03 23                	add    esp,DWORD PTR [ebx]
  409344:	f0 05 00 0c 04 a6    	lock add eax,0xa6040c00
  40934a:	08 00                	or     BYTE PTR [eax],al
  40934c:	00 20                	add    BYTE PTR [eax],ah
  40934e:	9e                   	sahf   
  40934f:	01 00                	add    DWORD PTR [eax],eax
  409351:	00 ef                	add    bh,ch
  409353:	0c 00                	or     al,0x0
  409355:	00 12                	add    BYTE PTR [edx],dl
  409357:	c4 08                	les    ecx,FWORD PTR [eax]
  409359:	00 00                	add    BYTE PTR [eax],al
  40935b:	12 60 01             	adc    ah,BYTE PTR [eax+0x1]
  40935e:	00 00                	add    BYTE PTR [eax],al
  409360:	12 f2                	adc    dh,dl
  409362:	05 00 00 12 0f       	add    eax,0xf120000
  409367:	01 00                	add    DWORD PTR [eax],eax
  409369:	00 00                	add    BYTE PTR [eax],al
  40936b:	0c 04                	or     al,0x4
  40936d:	d1 0c 00             	ror    DWORD PTR [eax+eax*1],1
  409370:	00 20                	add    BYTE PTR [eax],ah
  409372:	7e 01                	jle    409375 <.debug_info+0xcf9>
  409374:	00 00                	add    BYTE PTR [eax],al
  409376:	13 0d 00 00 12 c4    	adc    ecx,DWORD PTR ds:0xc4120000
  40937c:	08 00                	or     BYTE PTR [eax],al
  40937e:	00 12                	add    BYTE PTR [edx],dl
  409380:	60                   	pusha  
  409381:	01 00                	add    DWORD PTR [eax],eax
  409383:	00 12                	add    BYTE PTR [edx],dl
  409385:	7e 01                	jle    409388 <.debug_info+0xd0c>
  409387:	00 00                	add    BYTE PTR [eax],al
  409389:	12 0f                	adc    cl,BYTE PTR [edi]
  40938b:	01 00                	add    DWORD PTR [eax],eax
  40938d:	00 00                	add    BYTE PTR [eax],al
  40938f:	0c 04                	or     al,0x4
  409391:	f5                   	cmc    
  409392:	0c 00                	or     al,0x0
  409394:	00 20                	add    BYTE PTR [eax],ah
  409396:	0f 01 00             	sgdtd  [eax]
  409399:	00 2d 0d 00 00 12    	add    BYTE PTR ds:0x1200000d,ch
  40939f:	c4 08                	les    ecx,FWORD PTR [eax]
  4093a1:	00 00                	add    BYTE PTR [eax],al
  4093a3:	12 60 01             	adc    ah,BYTE PTR [eax+0x1]
  4093a6:	00 00                	add    BYTE PTR [eax],al
  4093a8:	00 0c 04             	add    BYTE PTR [esp+eax*1],cl
  4093ab:	19 0d 00 00 0a db    	sbb    DWORD PTR ds:0xdb0a0000,ecx
  4093b1:	00 00                	add    BYTE PTR [eax],al
  4093b3:	00 43 0d             	add    BYTE PTR [ebx+0xd],al
  4093b6:	00 00                	add    BYTE PTR [eax],al
  4093b8:	0b 16                	or     edx,DWORD PTR [esi]
  4093ba:	01 00                	add    DWORD PTR [eax],eax
  4093bc:	00 02                	add    BYTE PTR [edx],al
  4093be:	00 0a                	add    BYTE PTR [edx],cl
  4093c0:	db 00                	fild   DWORD PTR [eax]
  4093c2:	00 00                	add    BYTE PTR [eax],al
  4093c4:	53                   	push   ebx
  4093c5:	0d 00 00 0b 16       	or     eax,0x160b0000
  4093ca:	01 00                	add    DWORD PTR [eax],eax
  4093cc:	00 00                	add    BYTE PTR [eax],al
  4093ce:	00 1b                	add    BYTE PTR [ebx],bl
  4093d0:	5f                   	pop    edi
  4093d1:	5f                   	pop    edi
  4093d2:	73 46                	jae    40941a <.debug_info+0xd9e>
  4093d4:	49                   	dec    ecx
  4093d5:	4c                   	dec    esp
  4093d6:	45                   	inc    ebp
  4093d7:	36                   	ss
  4093d8:	34 00                	xor    al,0x0
  4093da:	70 08                	jo     4093e4 <.debug_info+0xd68>
  4093dc:	e2 fe                	loop   4093dc <.debug_info+0xd60>
  4093de:	0e                   	push   cs
  4093df:	00 00                	add    BYTE PTR [eax],al
  4093e1:	09 5f 70             	or     DWORD PTR [edi+0x70],ebx
  4093e4:	00 08                	add    BYTE PTR [eax],cl
  4093e6:	e3 a0                	jecxz  409388 <.debug_info+0xd0c>
  4093e8:	08 00                	or     BYTE PTR [eax],al
  4093ea:	00 02                	add    BYTE PTR [edx],al
  4093ec:	23 00                	and    eax,DWORD PTR [eax]
  4093ee:	09 5f 72             	or     DWORD PTR [edi+0x72],ebx
  4093f1:	00 08                	add    BYTE PTR [eax],cl
  4093f3:	e4 0f                	in     al,0xf
  4093f5:	01 00                	add    DWORD PTR [eax],eax
  4093f7:	00 02                	add    BYTE PTR [edx],al
  4093f9:	23 04 09             	and    eax,DWORD PTR [ecx+ecx*1]
  4093fc:	5f                   	pop    edi
  4093fd:	77 00                	ja     4093ff <.debug_info+0xd83>
  4093ff:	08 e5                	or     ch,ah
  409401:	0f 01 00             	sgdtd  [eax]
  409404:	00 02                	add    BYTE PTR [edx],al
  409406:	23 08                	and    ecx,DWORD PTR [eax]
  409408:	09 5f 66             	or     DWORD PTR [edi+0x66],ebx
  40940b:	6c                   	ins    BYTE PTR es:[edi],dx
  40940c:	61                   	popa   
  40940d:	67 73 00             	addr16 jae 409410 <.debug_info+0xd94>
  409410:	08 e6                	or     dh,ah
  409412:	ec                   	in     al,dx
  409413:	00 00                	add    BYTE PTR [eax],al
  409415:	00 02                	add    BYTE PTR [edx],al
  409417:	23 0c 09             	and    ecx,DWORD PTR [ecx+ecx*1]
  40941a:	5f                   	pop    edi
  40941b:	66 69 6c 65 00 08 e7 	imul   bp,WORD PTR [ebp+eiz*2+0x0],0xe708
  409422:	ec                   	in     al,dx
  409423:	00 00                	add    BYTE PTR [eax],al
  409425:	00 02                	add    BYTE PTR [edx],al
  409427:	23 0e                	and    ecx,DWORD PTR [esi]
  409429:	09 5f 62             	or     DWORD PTR [edi+0x62],ebx
  40942c:	66                   	data16
  40942d:	00 08                	add    BYTE PTR [eax],cl
  40942f:	e8 70 08 00 00       	call   409ca4 <.debug_info+0x1628>
  409434:	02 23                	add    ah,BYTE PTR [ebx]
  409436:	10 09                	adc    BYTE PTR [ecx],cl
  409438:	5f                   	pop    edi
  409439:	6c                   	ins    BYTE PTR es:[edi],dx
  40943a:	62 66 73             	bound  esp,QWORD PTR [esi+0x73]
  40943d:	69 7a 65 00 08 e9 0f 	imul   edi,DWORD PTR [edx+0x65],0xfe90800
  409444:	01 00                	add    DWORD PTR [eax],eax
  409446:	00 02                	add    BYTE PTR [edx],al
  409448:	23 18                	and    ebx,DWORD PTR [eax]
  40944a:	09 5f 64             	or     DWORD PTR [edi+0x64],ebx
  40944d:	61                   	popa   
  40944e:	74 61                	je     4094b1 <.debug_info+0xe35>
  409450:	00 08                	add    BYTE PTR [eax],cl
  409452:	eb c4                	jmp    409418 <.debug_info+0xd9c>
  409454:	08 00                	or     BYTE PTR [eax],al
  409456:	00 02                	add    BYTE PTR [edx],al
  409458:	23 1c 09             	and    ebx,DWORD PTR [ecx+ecx*1]
  40945b:	5f                   	pop    edi
  40945c:	63 6f 6f             	arpl   WORD PTR [edi+0x6f],bp
  40945f:	6b 69 65 00          	imul   ebp,DWORD PTR [ecx+0x65],0x0
  409463:	08 ee                	or     dh,ch
  409465:	60                   	pusha  
  409466:	01 00                	add    DWORD PTR [eax],eax
  409468:	00 02                	add    BYTE PTR [edx],al
  40946a:	23 20                	and    esp,DWORD PTR [eax]
  40946c:	09 5f 72             	or     DWORD PTR [edi+0x72],ebx
  40946f:	65                   	gs
  409470:	61                   	popa   
  409471:	64 00 08             	add    BYTE PTR fs:[eax],cl
  409474:	f0 cb                	lock retf 
  409476:	0c 00                	or     al,0x0
  409478:	00 02                	add    BYTE PTR [edx],al
  40947a:	23 24 09             	and    esp,DWORD PTR [ecx+ecx*1]
  40947d:	5f                   	pop    edi
  40947e:	77 72                	ja     4094f2 <.debug_info+0xe76>
  409480:	69 74 65 00 08 f2 ef 	imul   esi,DWORD PTR [ebp+eiz*2+0x0],0xceff208
  409487:	0c 
  409488:	00 00                	add    BYTE PTR [eax],al
  40948a:	02 23                	add    ah,BYTE PTR [ebx]
  40948c:	28 09                	sub    BYTE PTR [ecx],cl
  40948e:	5f                   	pop    edi
  40948f:	73 65                	jae    4094f6 <.debug_info+0xe7a>
  409491:	65 6b 00 08          	imul   eax,DWORD PTR gs:[eax],0x8
  409495:	f4                   	hlt    
  409496:	13 0d 00 00 02 23    	adc    ecx,DWORD PTR ds:0x23020000
  40949c:	2c 09                	sub    al,0x9
  40949e:	5f                   	pop    edi
  40949f:	63 6c 6f 73          	arpl   WORD PTR [edi+ebp*2+0x73],bp
  4094a3:	65 00 08             	add    BYTE PTR gs:[eax],cl
  4094a6:	f5                   	cmc    
  4094a7:	2d 0d 00 00 02       	sub    eax,0x200000d
  4094ac:	23 30                	and    esi,DWORD PTR [eax]
  4094ae:	09 5f 75             	or     DWORD PTR [edi+0x75],ebx
  4094b1:	62 00                	bound  eax,QWORD PTR [eax]
  4094b3:	08 f8                	or     al,bh
  4094b5:	70 08                	jo     4094bf <.debug_info+0xe43>
  4094b7:	00 00                	add    BYTE PTR [eax],al
  4094b9:	02 23                	add    ah,BYTE PTR [ebx]
  4094bb:	34 09                	xor    al,0x9
  4094bd:	5f                   	pop    edi
  4094be:	75 70                	jne    409530 <.debug_info+0xeb4>
  4094c0:	00 08                	add    BYTE PTR [eax],cl
  4094c2:	f9                   	stc    
  4094c3:	a0 08 00 00 02       	mov    al,ds:0x2000008
  4094c8:	23 3c 09             	and    edi,DWORD PTR [ecx+ecx*1]
  4094cb:	5f                   	pop    edi
  4094cc:	75 72                	jne    409540 <.debug_info+0xec4>
  4094ce:	00 08                	add    BYTE PTR [eax],cl
  4094d0:	fa                   	cli    
  4094d1:	0f 01 00             	sgdtd  [eax]
  4094d4:	00 02                	add    BYTE PTR [edx],al
  4094d6:	23 40 09             	and    eax,DWORD PTR [eax+0x9]
  4094d9:	5f                   	pop    edi
  4094da:	75 62                	jne    40953e <.debug_info+0xec2>
  4094dc:	75 66                	jne    409544 <.debug_info+0xec8>
  4094de:	00 08                	add    BYTE PTR [eax],cl
  4094e0:	fd                   	std    
  4094e1:	33 0d 00 00 02 23    	xor    ecx,DWORD PTR ds:0x23020000
  4094e7:	44                   	inc    esp
  4094e8:	09 5f 6e             	or     DWORD PTR [edi+0x6e],ebx
  4094eb:	62 75 66             	bound  esi,QWORD PTR [ebp+0x66]
  4094ee:	00 08                	add    BYTE PTR [eax],cl
  4094f0:	fe 43 0d             	inc    BYTE PTR [ebx+0xd]
  4094f3:	00 00                	add    BYTE PTR [eax],al
  4094f5:	02 23                	add    ah,BYTE PTR [ebx]
  4094f7:	47                   	inc    edi
  4094f8:	24 5f                	and    al,0x5f
  4094fa:	6c                   	ins    BYTE PTR es:[edi],dx
  4094fb:	62 00                	bound  eax,QWORD PTR [eax]
  4094fd:	08 01                	or     BYTE PTR [ecx],al
  4094ff:	01 70 08             	add    DWORD PTR [eax+0x8],esi
  409502:	00 00                	add    BYTE PTR [eax],al
  409504:	02 23                	add    ah,BYTE PTR [ebx]
  409506:	48                   	dec    eax
  409507:	24 5f                	and    al,0x5f
  409509:	62 6c 6b 73          	bound  ebp,QWORD PTR [ebx+ebp*2+0x73]
  40950d:	69 7a 65 00 08 04 01 	imul   edi,DWORD PTR [edx+0x65],0x1040800
  409514:	0f 01 00             	sgdtd  [eax]
  409517:	00 02                	add    BYTE PTR [edx],al
  409519:	23 50 24             	and    edx,DWORD PTR [eax+0x24]
  40951c:	5f                   	pop    edi
  40951d:	66                   	data16
  40951e:	6c                   	ins    BYTE PTR es:[edi],dx
  40951f:	61                   	popa   
  409520:	67 73 32             	addr16 jae 409555 <.debug_info+0xed9>
  409523:	00 08                	add    BYTE PTR [eax],cl
  409525:	05 01 0f 01 00       	add    eax,0x10f01
  40952a:	00 02                	add    BYTE PTR [edx],al
  40952c:	23 54 24 5f          	and    edx,DWORD PTR [esp+0x5f]
  409530:	6f                   	outs   dx,DWORD PTR ds:[esi]
  409531:	66                   	data16
  409532:	66                   	data16
  409533:	73 65                	jae    40959a <.debug_info+0xf1e>
  409535:	74 00                	je     409537 <.debug_info+0xebb>
  409537:	08 07                	or     BYTE PTR [edi],al
  409539:	01 6e 01             	add    DWORD PTR [esi+0x1],ebp
  40953c:	00 00                	add    BYTE PTR [eax],al
  40953e:	02 23                	add    ah,BYTE PTR [ebx]
  409540:	58                   	pop    eax
  409541:	24 5f                	and    al,0x5f
  409543:	73 65                	jae    4095aa <.debug_info+0xf2e>
  409545:	65 6b 36 34          	imul   esi,DWORD PTR gs:[esi],0x34
  409549:	00 08                	add    BYTE PTR [eax],cl
  40954b:	08 01                	or     BYTE PTR [ecx],al
  40954d:	1c 0f                	sbb    al,0xf
  40954f:	00 00                	add    BYTE PTR [eax],al
  409551:	02 23                	add    ah,BYTE PTR [ebx]
  409553:	60                   	pusha  
  409554:	24 5f                	and    al,0x5f
  409556:	6c                   	ins    BYTE PTR es:[edi],dx
  409557:	6f                   	outs   dx,DWORD PTR ds:[esi]
  409558:	63 6b 00             	arpl   WORD PTR [ebx+0x0],bp
  40955b:	08 0b                	or     BYTE PTR [ebx],cl
  40955d:	01 29                	add    DWORD PTR [ecx],ebp
  40955f:	02 00                	add    al,BYTE PTR [eax]
  409561:	00 02                	add    BYTE PTR [edx],al
  409563:	23 64 24 5f          	and    esp,DWORD PTR [esp+0x5f]
  409567:	6d                   	ins    DWORD PTR es:[edi],dx
  409568:	62 73 74             	bound  esi,QWORD PTR [ebx+0x74]
  40956b:	61                   	popa   
  40956c:	74 65                	je     4095d3 <.debug_info+0xf57>
  40956e:	00 08                	add    BYTE PTR [eax],cl
  409570:	0d 01 bd 01 00       	or     eax,0x1bd01
  409575:	00 02                	add    BYTE PTR [edx],al
  409577:	23 68 00             	and    ebp,DWORD PTR [eax+0x0]
  40957a:	20 8d 01 00 00 1c    	and    BYTE PTR [ebp+0x1c000001],cl
  409580:	0f 00 00             	sldt   WORD PTR [eax]
  409583:	12 c4                	adc    al,ah
  409585:	08 00                	or     BYTE PTR [eax],al
  409587:	00 12                	add    BYTE PTR [edx],dl
  409589:	60                   	pusha  
  40958a:	01 00                	add    DWORD PTR [eax],eax
  40958c:	00 12                	add    BYTE PTR [edx],dl
  40958e:	8d 01                	lea    eax,[ecx]
  409590:	00 00                	add    BYTE PTR [eax],al
  409592:	12 0f                	adc    cl,BYTE PTR [edi]
  409594:	01 00                	add    DWORD PTR [eax],eax
  409596:	00 00                	add    BYTE PTR [eax],al
  409598:	0c 04                	or     al,0x4
  40959a:	fe 0e                	dec    BYTE PTR [esi]
  40959c:	00 00                	add    BYTE PTR [eax],al
  40959e:	05 5f 5f 46 49       	add    eax,0x49465f5f
  4095a3:	4c                   	dec    esp
  4095a4:	45                   	inc    ebp
  4095a5:	00 08                	add    BYTE PTR [eax],cl
  4095a7:	0f 01 53 0d          	lgdtd  [ebx+0xd]
  4095ab:	00 00                	add    BYTE PTR [eax],al
  4095ad:	26                   	es
  4095ae:	5f                   	pop    edi
  4095af:	67 6c                	ins    BYTE PTR es:[di],dx
  4095b1:	75 65                	jne    409618 <.debug_info+0xf9c>
  4095b3:	00 0c 08             	add    BYTE PTR [eax+ecx*1],cl
  4095b6:	16                   	push   ss
  4095b7:	01 75 0f             	add    DWORD PTR [ebp+0xf],esi
  4095ba:	00 00                	add    BYTE PTR [eax],al
  4095bc:	24 5f                	and    al,0x5f
  4095be:	6e                   	outs   dx,BYTE PTR ds:[esi]
  4095bf:	65                   	gs
  4095c0:	78 74                	js     409636 <.debug_info+0xfba>
  4095c2:	00 08                	add    BYTE PTR [eax],cl
  4095c4:	17                   	pop    ss
  4095c5:	01 75 0f             	add    DWORD PTR [ebp+0xf],esi
  4095c8:	00 00                	add    BYTE PTR [eax],al
  4095ca:	02 23                	add    ah,BYTE PTR [ebx]
  4095cc:	00 24 5f             	add    BYTE PTR [edi+ebx*2],ah
  4095cf:	6e                   	outs   dx,BYTE PTR ds:[esi]
  4095d0:	69 6f 62 73 00 08 18 	imul   ebp,DWORD PTR [edi+0x62],0x18080073
  4095d7:	01 0f                	add    DWORD PTR [edi],ecx
  4095d9:	01 00                	add    DWORD PTR [eax],eax
  4095db:	00 02                	add    BYTE PTR [edx],al
  4095dd:	23 04 24             	and    eax,DWORD PTR [esp]
  4095e0:	5f                   	pop    edi
  4095e1:	69 6f 62 73 00 08 19 	imul   ebp,DWORD PTR [edi+0x62],0x19080073
  4095e8:	01 7b 0f             	add    DWORD PTR [ebx+0xf],edi
  4095eb:	00 00                	add    BYTE PTR [eax],al
  4095ed:	02 23                	add    ah,BYTE PTR [ebx]
  4095ef:	08 00                	or     BYTE PTR [eax],al
  4095f1:	0c 04                	or     al,0x4
  4095f3:	31 0f                	xor    DWORD PTR [edi],ecx
  4095f5:	00 00                	add    BYTE PTR [eax],al
  4095f7:	0c 04                	or     al,0x4
  4095f9:	22 0f                	and    cl,BYTE PTR [edi]
  4095fb:	00 00                	add    BYTE PTR [eax],al
  4095fd:	26                   	es
  4095fe:	5f                   	pop    edi
  4095ff:	72 61                	jb     409662 <.debug_info+0xfe6>
  409601:	6e                   	outs   dx,BYTE PTR ds:[esi]
  409602:	64                   	fs
  409603:	34 38                	xor    al,0x38
  409605:	00 0e                	add    BYTE PTR [esi],cl
  409607:	08 31                	or     BYTE PTR [ecx],dh
  409609:	01 c5                	add    ebp,eax
  40960b:	0f 00 00             	sldt   WORD PTR [eax]
  40960e:	24 5f                	and    al,0x5f
  409610:	73 65                	jae    409677 <.debug_info+0xffb>
  409612:	65 64 00 08          	gs add BYTE PTR fs:gs:[eax],cl
  409616:	32 01                	xor    al,BYTE PTR [ecx]
  409618:	c5 0f                	lds    ecx,FWORD PTR [edi]
  40961a:	00 00                	add    BYTE PTR [eax],al
  40961c:	02 23                	add    ah,BYTE PTR [ebx]
  40961e:	00 24 5f             	add    BYTE PTR [edi+ebx*2],ah
  409621:	6d                   	ins    DWORD PTR es:[edi],dx
  409622:	75 6c                	jne    409690 <.debug_info+0x1014>
  409624:	74 00                	je     409626 <.debug_info+0xfaa>
  409626:	08 33                	or     BYTE PTR [ebx],dh
  409628:	01 c5                	add    ebp,eax
  40962a:	0f 00 00             	sldt   WORD PTR [eax]
  40962d:	02 23                	add    ah,BYTE PTR [ebx]
  40962f:	06                   	push   es
  409630:	24 5f                	and    al,0x5f
  409632:	61                   	popa   
  409633:	64 64 00 08          	fs add BYTE PTR fs:[eax],cl
  409637:	34 01                	xor    al,0x1
  409639:	f9                   	stc    
  40963a:	00 00                	add    BYTE PTR [eax],al
  40963c:	00 02                	add    BYTE PTR [edx],al
  40963e:	23 0c 00             	and    ecx,DWORD PTR [eax+eax*1]
  409641:	0a f9                	or     bh,cl
  409643:	00 00                	add    BYTE PTR [eax],al
  409645:	00 d5                	add    ch,dl
  409647:	0f 00 00             	sldt   WORD PTR [eax]
  40964a:	0b 16                	or     edx,DWORD PTR [esi]
  40964c:	01 00                	add    DWORD PTR [eax],eax
  40964e:	00 02                	add    BYTE PTR [edx],al
  409650:	00 0a                	add    BYTE PTR [edx],cl
  409652:	73 02                	jae    409656 <.debug_info+0xfda>
  409654:	00 00                	add    BYTE PTR [eax],al
  409656:	e5 0f                	in     eax,0xf
  409658:	00 00                	add    BYTE PTR [eax],al
  40965a:	0b 16                	or     edx,DWORD PTR [esi]
  40965c:	01 00                	add    DWORD PTR [eax],eax
  40965e:	00 19                	add    BYTE PTR [ecx],bl
  409660:	00 0a                	add    BYTE PTR [edx],cl
  409662:	73 02                	jae    409666 <.debug_info+0xfea>
  409664:	00 00                	add    BYTE PTR [eax],al
  409666:	f5                   	cmc    
  409667:	0f 00 00             	sldt   WORD PTR [eax]
  40966a:	0b 16                	or     edx,DWORD PTR [esi]
  40966c:	01 00                	add    DWORD PTR [eax],eax
  40966e:	00 07                	add    BYTE PTR [edi],al
  409670:	00 0a                	add    BYTE PTR [edx],cl
  409672:	73 02                	jae    409676 <.debug_info+0xffa>
  409674:	00 00                	add    BYTE PTR [eax],al
  409676:	05 10 00 00 0b       	add    eax,0xb000010
  40967b:	16                   	push   ss
  40967c:	01 00                	add    DWORD PTR [eax],eax
  40967e:	00 17                	add    BYTE PTR [edi],dl
  409680:	00 0a                	add    BYTE PTR [edx],cl
  409682:	a0 08 00 00 15       	mov    al,ds:0x15000008
  409687:	10 00                	adc    BYTE PTR [eax],al
  409689:	00 0b                	add    BYTE PTR [ebx],cl
  40968b:	16                   	push   ss
  40968c:	01 00                	add    DWORD PTR [eax],eax
  40968e:	00 1d 00 0a 16 01    	add    BYTE PTR ds:0x1160a00,bl
  409694:	00 00                	add    BYTE PTR [eax],al
  409696:	25 10 00 00 0b       	and    eax,0xb000010
  40969b:	16                   	push   ss
  40969c:	01 00                	add    DWORD PTR [eax],eax
  40969e:	00 1d 00 0a 73 02    	add    BYTE PTR ds:0x2730a00,bl
  4096a4:	00 00                	add    BYTE PTR [eax],al
  4096a6:	35 10 00 00 0b       	xor    eax,0xb000010
  4096ab:	16                   	push   ss
  4096ac:	01 00                	add    DWORD PTR [eax],eax
  4096ae:	00 18                	add    BYTE PTR [eax],bl
  4096b0:	00 27                	add    BYTE PTR [edi],ah
  4096b2:	40                   	inc    eax
  4096b3:	10 00                	adc    BYTE PTR [eax],al
  4096b5:	00 12                	add    BYTE PTR [edx],dl
  4096b7:	40                   	inc    eax
  4096b8:	10 00                	adc    BYTE PTR [eax],al
  4096ba:	00 00                	add    BYTE PTR [eax],al
  4096bc:	0c 04                	or     al,0x4
  4096be:	ca 08 00             	retf   0x8
  4096c1:	00 0c 04             	add    BYTE PTR [esp+eax*1],cl
  4096c4:	35 10 00 00 0c       	xor    eax,0xc000010
  4096c9:	04 54                	add    al,0x54
  4096cb:	06                   	push   es
  4096cc:	00 00                	add    BYTE PTR [eax],al
  4096ce:	0c 04                	or     al,0x4
  4096d0:	4c                   	dec    esp
  4096d1:	10 00                	adc    BYTE PTR [eax],al
  4096d3:	00 0c 04             	add    BYTE PTR [esp+eax*1],cl
  4096d6:	04 08                	add    al,0x8
  4096d8:	00 00                	add    BYTE PTR [eax],al
  4096da:	27                   	daa    
  4096db:	69 10 00 00 12 0f    	imul   edx,DWORD PTR [eax],0xf120000
  4096e1:	01 00                	add    DWORD PTR [eax],eax
  4096e3:	00 00                	add    BYTE PTR [eax],al
  4096e5:	0c 04                	or     al,0x4
  4096e7:	6f                   	outs   dx,DWORD PTR ds:[esi]
  4096e8:	10 00                	adc    BYTE PTR [eax],al
  4096ea:	00 0c 04             	add    BYTE PTR [esp+eax*1],cl
  4096ed:	5e                   	pop    esi
  4096ee:	10 00                	adc    BYTE PTR [eax],al
  4096f0:	00 0a                	add    BYTE PTR [edx],cl
  4096f2:	53                   	push   ebx
  4096f3:	0d 00 00 85 10       	or     eax,0x10850000
  4096f8:	00 00                	add    BYTE PTR [eax],al
  4096fa:	0b 16                	or     edx,DWORD PTR [esi]
  4096fc:	01 00                	add    DWORD PTR [eax],eax
  4096fe:	00 02                	add    BYTE PTR [edx],al
  409700:	00 03                	add    BYTE PTR [ebx],al
  409702:	4c                   	dec    esp
  409703:	50                   	push   eax
  409704:	56                   	push   esi
  409705:	4f                   	dec    edi
  409706:	49                   	dec    ecx
  409707:	44                   	inc    esp
  409708:	00 09                	add    BYTE PTR [ecx],cl
  40970a:	56                   	push   esi
  40970b:	60                   	pusha  
  40970c:	01 00                	add    DWORD PTR [eax],eax
  40970e:	00 02                	add    BYTE PTR [edx],al
  409710:	02 07                	add    al,BYTE PTR [edi]
  409712:	77 63                	ja     409777 <.debug_info+0x10fb>
  409714:	68 61 72 5f 74       	push   0x745f7261
  409719:	00 03                	add    BYTE PTR [ebx],al
  40971b:	48                   	dec    eax
  40971c:	41                   	inc    ecx
  40971d:	4e                   	dec    esi
  40971e:	44                   	inc    esp
  40971f:	4c                   	dec    esp
  409720:	45                   	inc    ebp
  409721:	00 09                	add    BYTE PTR [ecx],cl
  409723:	94                   	xchg   esp,eax
  409724:	60                   	pusha  
  409725:	01 00                	add    DWORD PTR [eax],eax
  409727:	00 26                	add    BYTE PTR [esi],ah
  409729:	5f                   	pop    edi
  40972a:	53                   	push   ebx
  40972b:	45                   	inc    ebp
  40972c:	43                   	inc    ebx
  40972d:	55                   	push   ebp
  40972e:	52                   	push   edx
  40972f:	49                   	dec    ecx
  409730:	54                   	push   esp
  409731:	59                   	pop    ecx
  409732:	5f                   	pop    edi
  409733:	41                   	inc    ecx
  409734:	54                   	push   esp
  409735:	54                   	push   esp
  409736:	52                   	push   edx
  409737:	49                   	dec    ecx
  409738:	42                   	inc    edx
  409739:	55                   	push   ebp
  40973a:	54                   	push   esp
  40973b:	45                   	inc    ebp
  40973c:	53                   	push   ebx
  40973d:	00 0c 09             	add    BYTE PTR [ecx+ecx*1],cl
  409740:	a0 09 18 11 00       	mov    al,ds:0x111809
  409745:	00 24 6e             	add    BYTE PTR [esi+ebp*2],ah
  409748:	4c                   	dec    esp
  409749:	65 6e                	outs   dx,BYTE PTR gs:[esi]
  40974b:	67 74 68             	addr16 je 4097b6 <.debug_info+0x113a>
  40974e:	00 09                	add    BYTE PTR [ecx],cl
  409750:	a1 09 0e 06 00       	mov    eax,ds:0x60e09
  409755:	00 02                	add    BYTE PTR [edx],al
  409757:	23 00                	and    eax,DWORD PTR [eax]
  409759:	24 6c                	and    al,0x6c
  40975b:	70 53                	jo     4097b0 <.debug_info+0x1134>
  40975d:	65 63 75 72          	arpl   WORD PTR gs:[ebp+0x72],si
  409761:	69 74 79 44 65 73 63 	imul   esi,DWORD PTR [ecx+edi*2+0x44],0x72637365
  409768:	72 
  409769:	69 70 74 6f 72 00 09 	imul   esi,DWORD PTR [eax+0x74],0x900726f
  409770:	a2 09 85 10 00       	mov    ds:0x108509,al
  409775:	00 02                	add    BYTE PTR [edx],al
  409777:	23 04 24             	and    eax,DWORD PTR [esp]
  40977a:	62 49 6e             	bound  ecx,QWORD PTR [ecx+0x6e]
  40977d:	68 65 72 69 74       	push   0x74697265
  409782:	48                   	dec    eax
  409783:	61                   	popa   
  409784:	6e                   	outs   dx,BYTE PTR ds:[esi]
  409785:	64                   	fs
  409786:	6c                   	ins    BYTE PTR es:[edi],dx
  409787:	65 00 09             	add    BYTE PTR gs:[ecx],cl
  40978a:	a3 09 30 06 00       	mov    ds:0x63009,eax
  40978f:	00 02                	add    BYTE PTR [edx],al
  409791:	23 08                	and    ecx,DWORD PTR [eax]
  409793:	00 05 53 45 43 55    	add    BYTE PTR ds:0x55434553,al
  409799:	52                   	push   edx
  40979a:	49                   	dec    ecx
  40979b:	54                   	push   esp
  40979c:	59                   	pop    ecx
  40979d:	5f                   	pop    edi
  40979e:	41                   	inc    ecx
  40979f:	54                   	push   esp
  4097a0:	54                   	push   esp
  4097a1:	52                   	push   edx
  4097a2:	49                   	dec    ecx
  4097a3:	42                   	inc    edx
  4097a4:	55                   	push   ebp
  4097a5:	54                   	push   esp
  4097a6:	45                   	inc    ebp
  4097a7:	53                   	push   ebx
  4097a8:	00 09                	add    BYTE PTR [ecx],cl
  4097aa:	a4                   	movs   BYTE PTR es:[edi],BYTE PTR ds:[esi]
  4097ab:	09 ac 10 00 00 0a 58 	or     DWORD PTR [eax+edx*1+0x580a0000],ebp
  4097b2:	02 00                	add    al,BYTE PTR [eax]
  4097b4:	00 44 11 00          	add    BYTE PTR [ecx+edx*1+0x0],al
  4097b8:	00 0b                	add    BYTE PTR [ebx],cl
  4097ba:	16                   	push   ss
  4097bb:	01 00                	add    DWORD PTR [eax],eax
  4097bd:	00 02                	add    BYTE PTR [edx],al
  4097bf:	00 26                	add    BYTE PTR [esi],ah
  4097c1:	48                   	dec    eax
  4097c2:	49                   	dec    ecx
  4097c3:	4e                   	dec    esi
  4097c4:	53                   	push   ebx
  4097c5:	54                   	push   esp
  4097c6:	41                   	inc    ecx
  4097c7:	4e                   	dec    esi
  4097c8:	43                   	inc    ebx
  4097c9:	45                   	inc    ebp
  4097ca:	5f                   	pop    edi
  4097cb:	5f                   	pop    edi
  4097cc:	00 04 07             	add    BYTE PTR [edi+eax*1],al
  4097cf:	1f                   	pop    ds
  4097d0:	01 67 11             	add    DWORD PTR [edi+0x11],esp
  4097d3:	00 00                	add    BYTE PTR [eax],al
  4097d5:	24 69                	and    al,0x69
  4097d7:	00 07                	add    BYTE PTR [edi],al
  4097d9:	1f                   	pop    ds
  4097da:	01 0f                	add    DWORD PTR [edi],ecx
  4097dc:	01 00                	add    DWORD PTR [eax],eax
  4097de:	00 02                	add    BYTE PTR [edx],al
  4097e0:	23 00                	and    eax,DWORD PTR [eax]
  4097e2:	00 05 48 49 4e 53    	add    BYTE PTR ds:0x534e4948,al
  4097e8:	54                   	push   esp
  4097e9:	41                   	inc    ecx
  4097ea:	4e                   	dec    esi
  4097eb:	43                   	inc    ebx
  4097ec:	45                   	inc    ebp
  4097ed:	00 07                	add    BYTE PTR [edi],al
  4097ef:	1f                   	pop    ds
  4097f0:	01 79 11             	add    DWORD PTR [ecx+0x11],edi
  4097f3:	00 00                	add    BYTE PTR [eax],al
  4097f5:	0c 04                	or     al,0x4
  4097f7:	44                   	inc    esp
  4097f8:	11 00                	adc    DWORD PTR [eax],eax
  4097fa:	00 05 48 4d 4f 44    	add    BYTE PTR ds:0x444f4d48,al
  409800:	55                   	push   ebp
  409801:	4c                   	dec    esp
  409802:	45                   	inc    ebp
  409803:	00 07                	add    BYTE PTR [edi],al
  409805:	20 01                	and    BYTE PTR [ecx],al
  409807:	67 11 00             	adc    DWORD PTR [bx+si],eax
  40980a:	00 0c 04             	add    BYTE PTR [esp+eax*1],cl
  40980d:	6d                   	ins    DWORD PTR es:[edi],dx
  40980e:	02 00                	add    al,BYTE PTR [eax]
  409810:	00 28                	add    BYTE PTR [eax],ch
  409812:	04 0a                	add    al,0xa
  409814:	5e                   	pop    esi
  409815:	63 79 67             	arpl   WORD PTR [ecx+0x67],di
  409818:	77 69                	ja     409883 <.debug_info+0x1207>
  40981a:	6e                   	outs   dx,BYTE PTR ds:[esi]
  40981b:	5f                   	pop    edi
  40981c:	67                   	addr16
  40981d:	65                   	gs
  40981e:	74 69                	je     409889 <.debug_info+0x120d>
  409820:	6e                   	outs   dx,BYTE PTR ds:[esi]
  409821:	66 6f                	outs   dx,WORD PTR ds:[esi]
  409823:	5f                   	pop    edi
  409824:	74 79                	je     40989f <.debug_info+0x1223>
  409826:	70 65                	jo     40988d <.debug_info+0x1211>
  409828:	73 00                	jae    40982a <.debug_info+0x11ae>
  40982a:	5e                   	pop    esi
  40982b:	15 00 00 29 43       	adc    eax,0x43290000
  409830:	57                   	push   edi
  409831:	5f                   	pop    edi
  409832:	4c                   	dec    esp
  409833:	4f                   	dec    edi
  409834:	43                   	inc    ebx
  409835:	4b                   	dec    ebx
  409836:	5f                   	pop    edi
  409837:	50                   	push   eax
  409838:	49                   	dec    ecx
  409839:	4e                   	dec    esi
  40983a:	46                   	inc    esi
  40983b:	4f                   	dec    edi
  40983c:	00 00                	add    BYTE PTR [eax],al
  40983e:	29 43 57             	sub    DWORD PTR [ebx+0x57],eax
  409841:	5f                   	pop    edi
  409842:	55                   	push   ebp
  409843:	4e                   	dec    esi
  409844:	4c                   	dec    esp
  409845:	4f                   	dec    edi
  409846:	43                   	inc    ebx
  409847:	4b                   	dec    ebx
  409848:	5f                   	pop    edi
  409849:	50                   	push   eax
  40984a:	49                   	dec    ecx
  40984b:	4e                   	dec    esi
  40984c:	46                   	inc    esi
  40984d:	4f                   	dec    edi
  40984e:	00 01                	add    BYTE PTR [ecx],al
  409850:	29 43 57             	sub    DWORD PTR [ebx+0x57],eax
  409853:	5f                   	pop    edi
  409854:	47                   	inc    edi
  409855:	45                   	inc    ebp
  409856:	54                   	push   esp
  409857:	54                   	push   esp
  409858:	48                   	dec    eax
  409859:	52                   	push   edx
  40985a:	45                   	inc    ebp
  40985b:	41                   	inc    ecx
  40985c:	44                   	inc    esp
  40985d:	4e                   	dec    esi
  40985e:	41                   	inc    ecx
  40985f:	4d                   	dec    ebp
  409860:	45                   	inc    ebp
  409861:	00 02                	add    BYTE PTR [edx],al
  409863:	29 43 57             	sub    DWORD PTR [ebx+0x57],eax
  409866:	5f                   	pop    edi
  409867:	47                   	inc    edi
  409868:	45                   	inc    ebp
  409869:	54                   	push   esp
  40986a:	50                   	push   eax
  40986b:	49                   	dec    ecx
  40986c:	4e                   	dec    esi
  40986d:	46                   	inc    esi
  40986e:	4f                   	dec    edi
  40986f:	00 03                	add    BYTE PTR [ebx],al
  409871:	29 43 57             	sub    DWORD PTR [ebx+0x57],eax
  409874:	5f                   	pop    edi
  409875:	53                   	push   ebx
  409876:	45                   	inc    ebp
  409877:	54                   	push   esp
  409878:	50                   	push   eax
  409879:	49                   	dec    ecx
  40987a:	4e                   	dec    esi
  40987b:	46                   	inc    esi
  40987c:	4f                   	dec    edi
  40987d:	00 04 29             	add    BYTE PTR [ecx+ebp*1],al
  409880:	43                   	inc    ebx
  409881:	57                   	push   edi
  409882:	5f                   	pop    edi
  409883:	53                   	push   ebx
  409884:	45                   	inc    ebp
  409885:	54                   	push   esp
  409886:	54                   	push   esp
  409887:	48                   	dec    eax
  409888:	52                   	push   edx
  409889:	45                   	inc    ebp
  40988a:	41                   	inc    ecx
  40988b:	44                   	inc    esp
  40988c:	4e                   	dec    esi
  40988d:	41                   	inc    ecx
  40988e:	4d                   	dec    ebp
  40988f:	45                   	inc    ebp
  409890:	00 05 29 43 57 5f    	add    BYTE PTR ds:0x5f574329,al
  409896:	47                   	inc    edi
  409897:	45                   	inc    ebp
  409898:	54                   	push   esp
  409899:	56                   	push   esi
  40989a:	45                   	inc    ebp
  40989b:	52                   	push   edx
  40989c:	53                   	push   ebx
  40989d:	49                   	dec    ecx
  40989e:	4f                   	dec    edi
  40989f:	4e                   	dec    esi
  4098a0:	49                   	dec    ecx
  4098a1:	4e                   	dec    esi
  4098a2:	46                   	inc    esi
  4098a3:	4f                   	dec    edi
  4098a4:	00 06                	add    BYTE PTR [esi],al
  4098a6:	29 43 57             	sub    DWORD PTR [ebx+0x57],eax
  4098a9:	5f                   	pop    edi
  4098aa:	52                   	push   edx
  4098ab:	45                   	inc    ebp
  4098ac:	41                   	inc    ecx
  4098ad:	44                   	inc    esp
  4098ae:	5f                   	pop    edi
  4098af:	56                   	push   esi
  4098b0:	31 5f 4d             	xor    DWORD PTR [edi+0x4d],ebx
  4098b3:	4f                   	dec    edi
  4098b4:	55                   	push   ebp
  4098b5:	4e                   	dec    esi
  4098b6:	54                   	push   esp
  4098b7:	5f                   	pop    edi
  4098b8:	54                   	push   esp
  4098b9:	41                   	inc    ecx
  4098ba:	42                   	inc    edx
  4098bb:	4c                   	dec    esp
  4098bc:	45                   	inc    ebp
  4098bd:	53                   	push   ebx
  4098be:	00 07                	add    BYTE PTR [edi],al
  4098c0:	29 43 57             	sub    DWORD PTR [ebx+0x57],eax
  4098c3:	5f                   	pop    edi
  4098c4:	55                   	push   ebp
  4098c5:	53                   	push   ebx
  4098c6:	45                   	inc    ebp
  4098c7:	52                   	push   edx
  4098c8:	5f                   	pop    edi
  4098c9:	44                   	inc    esp
  4098ca:	41                   	inc    ecx
  4098cb:	54                   	push   esp
  4098cc:	41                   	inc    ecx
  4098cd:	00 08                	add    BYTE PTR [eax],cl
  4098cf:	29 43 57             	sub    DWORD PTR [ebx+0x57],eax
  4098d2:	5f                   	pop    edi
  4098d3:	50                   	push   eax
  4098d4:	45                   	inc    ebp
  4098d5:	52                   	push   edx
  4098d6:	46                   	inc    esi
  4098d7:	49                   	dec    ecx
  4098d8:	4c                   	dec    esp
  4098d9:	45                   	inc    ebp
  4098da:	00 09                	add    BYTE PTR [ecx],cl
  4098dc:	29 43 57             	sub    DWORD PTR [ebx+0x57],eax
  4098df:	5f                   	pop    edi
  4098e0:	47                   	inc    edi
  4098e1:	45                   	inc    ebp
  4098e2:	54                   	push   esp
  4098e3:	5f                   	pop    edi
  4098e4:	43                   	inc    ebx
  4098e5:	59                   	pop    ecx
  4098e6:	47                   	inc    edi
  4098e7:	44                   	inc    esp
  4098e8:	52                   	push   edx
  4098e9:	49                   	dec    ecx
  4098ea:	56                   	push   esi
  4098eb:	45                   	inc    ebp
  4098ec:	5f                   	pop    edi
  4098ed:	50                   	push   eax
  4098ee:	52                   	push   edx
  4098ef:	45                   	inc    ebp
  4098f0:	46                   	inc    esi
  4098f1:	49                   	dec    ecx
  4098f2:	58                   	pop    eax
  4098f3:	45                   	inc    ebp
  4098f4:	53                   	push   ebx
  4098f5:	00 0a                	add    BYTE PTR [edx],cl
  4098f7:	29 43 57             	sub    DWORD PTR [ebx+0x57],eax
  4098fa:	5f                   	pop    edi
  4098fb:	47                   	inc    edi
  4098fc:	45                   	inc    ebp
  4098fd:	54                   	push   esp
  4098fe:	50                   	push   eax
  4098ff:	49                   	dec    ecx
  409900:	4e                   	dec    esi
  409901:	46                   	inc    esi
  409902:	4f                   	dec    edi
  409903:	5f                   	pop    edi
  409904:	46                   	inc    esi
  409905:	55                   	push   ebp
  409906:	4c                   	dec    esp
  409907:	4c                   	dec    esp
  409908:	00 0b                	add    BYTE PTR [ebx],cl
  40990a:	29 43 57             	sub    DWORD PTR [ebx+0x57],eax
  40990d:	5f                   	pop    edi
  40990e:	49                   	dec    ecx
  40990f:	4e                   	dec    esi
  409910:	49                   	dec    ecx
  409911:	54                   	push   esp
  409912:	5f                   	pop    edi
  409913:	45                   	inc    ebp
  409914:	58                   	pop    eax
  409915:	43                   	inc    ebx
  409916:	45                   	inc    ebp
  409917:	50                   	push   eax
  409918:	54                   	push   esp
  409919:	49                   	dec    ecx
  40991a:	4f                   	dec    edi
  40991b:	4e                   	dec    esi
  40991c:	53                   	push   ebx
  40991d:	00 0c 29             	add    BYTE PTR [ecx+ebp*1],cl
  409920:	43                   	inc    ebx
  409921:	57                   	push   edi
  409922:	5f                   	pop    edi
  409923:	47                   	inc    edi
  409924:	45                   	inc    ebp
  409925:	54                   	push   esp
  409926:	5f                   	pop    edi
  409927:	43                   	inc    ebx
  409928:	59                   	pop    ecx
  409929:	47                   	inc    edi
  40992a:	44                   	inc    esp
  40992b:	52                   	push   edx
  40992c:	49                   	dec    ecx
  40992d:	56                   	push   esi
  40992e:	45                   	inc    ebp
  40992f:	5f                   	pop    edi
  409930:	49                   	dec    ecx
  409931:	4e                   	dec    esi
  409932:	46                   	inc    esi
  409933:	4f                   	dec    edi
  409934:	00 0d 29 43 57 5f    	add    BYTE PTR ds:0x5f574329,cl
  40993a:	53                   	push   ebx
  40993b:	45                   	inc    ebp
  40993c:	54                   	push   esp
  40993d:	5f                   	pop    edi
  40993e:	43                   	inc    ebx
  40993f:	59                   	pop    ecx
  409940:	47                   	inc    edi
  409941:	57                   	push   edi
  409942:	49                   	dec    ecx
  409943:	4e                   	dec    esi
  409944:	5f                   	pop    edi
  409945:	52                   	push   edx
  409946:	45                   	inc    ebp
  409947:	47                   	inc    edi
  409948:	49                   	dec    ecx
  409949:	53                   	push   ebx
  40994a:	54                   	push   esp
  40994b:	52                   	push   edx
  40994c:	59                   	pop    ecx
  40994d:	5f                   	pop    edi
  40994e:	4e                   	dec    esi
  40994f:	41                   	inc    ecx
  409950:	4d                   	dec    ebp
  409951:	45                   	inc    ebp
  409952:	00 0e                	add    BYTE PTR [esi],cl
  409954:	29 43 57             	sub    DWORD PTR [ebx+0x57],eax
  409957:	5f                   	pop    edi
  409958:	47                   	inc    edi
  409959:	45                   	inc    ebp
  40995a:	54                   	push   esp
  40995b:	5f                   	pop    edi
  40995c:	43                   	inc    ebx
  40995d:	59                   	pop    ecx
  40995e:	47                   	inc    edi
  40995f:	57                   	push   edi
  409960:	49                   	dec    ecx
  409961:	4e                   	dec    esi
  409962:	5f                   	pop    edi
  409963:	52                   	push   edx
  409964:	45                   	inc    ebp
  409965:	47                   	inc    edi
  409966:	49                   	dec    ecx
  409967:	53                   	push   ebx
  409968:	54                   	push   esp
  409969:	52                   	push   edx
  40996a:	59                   	pop    ecx
  40996b:	5f                   	pop    edi
  40996c:	4e                   	dec    esi
  40996d:	41                   	inc    ecx
  40996e:	4d                   	dec    ebp
  40996f:	45                   	inc    ebp
  409970:	00 0f                	add    BYTE PTR [edi],cl
  409972:	29 43 57             	sub    DWORD PTR [ebx+0x57],eax
  409975:	5f                   	pop    edi
  409976:	53                   	push   ebx
  409977:	54                   	push   esp
  409978:	52                   	push   edx
  409979:	41                   	inc    ecx
  40997a:	43                   	inc    ebx
  40997b:	45                   	inc    ebp
  40997c:	5f                   	pop    edi
  40997d:	54                   	push   esp
  40997e:	4f                   	dec    edi
  40997f:	47                   	inc    edi
  409980:	47                   	inc    edi
  409981:	4c                   	dec    esp
  409982:	45                   	inc    ebp
  409983:	00 10                	add    BYTE PTR [eax],dl
  409985:	29 43 57             	sub    DWORD PTR [ebx+0x57],eax
  409988:	5f                   	pop    edi
  409989:	53                   	push   ebx
  40998a:	54                   	push   esp
  40998b:	52                   	push   edx
  40998c:	41                   	inc    ecx
  40998d:	43                   	inc    ebx
  40998e:	45                   	inc    ebp
  40998f:	5f                   	pop    edi
  409990:	41                   	inc    ecx
  409991:	43                   	inc    ebx
  409992:	54                   	push   esp
  409993:	49                   	dec    ecx
  409994:	56                   	push   esi
  409995:	45                   	inc    ebp
  409996:	00 11                	add    BYTE PTR [ecx],dl
  409998:	29 43 57             	sub    DWORD PTR [ebx+0x57],eax
  40999b:	5f                   	pop    edi
  40999c:	43                   	inc    ebx
  40999d:	59                   	pop    ecx
  40999e:	47                   	inc    edi
  40999f:	57                   	push   edi
  4099a0:	49                   	dec    ecx
  4099a1:	4e                   	dec    esi
  4099a2:	5f                   	pop    edi
  4099a3:	50                   	push   eax
  4099a4:	49                   	dec    ecx
  4099a5:	44                   	inc    esp
  4099a6:	5f                   	pop    edi
  4099a7:	54                   	push   esp
  4099a8:	4f                   	dec    edi
  4099a9:	5f                   	pop    edi
  4099aa:	57                   	push   edi
  4099ab:	49                   	dec    ecx
  4099ac:	4e                   	dec    esi
  4099ad:	50                   	push   eax
  4099ae:	49                   	dec    ecx
  4099af:	44                   	inc    esp
  4099b0:	00 12                	add    BYTE PTR [edx],dl
  4099b2:	29 43 57             	sub    DWORD PTR [ebx+0x57],eax
  4099b5:	5f                   	pop    edi
  4099b6:	45                   	inc    ebp
  4099b7:	58                   	pop    eax
  4099b8:	54                   	push   esp
  4099b9:	52                   	push   edx
  4099ba:	41                   	inc    ecx
  4099bb:	43                   	inc    ebx
  4099bc:	54                   	push   esp
  4099bd:	5f                   	pop    edi
  4099be:	44                   	inc    esp
  4099bf:	4f                   	dec    edi
  4099c0:	4d                   	dec    ebp
  4099c1:	41                   	inc    ecx
  4099c2:	49                   	dec    ecx
  4099c3:	4e                   	dec    esi
  4099c4:	5f                   	pop    edi
  4099c5:	41                   	inc    ecx
  4099c6:	4e                   	dec    esi
  4099c7:	44                   	inc    esp
  4099c8:	5f                   	pop    edi
  4099c9:	55                   	push   ebp
  4099ca:	53                   	push   ebx
  4099cb:	45                   	inc    ebp
  4099cc:	52                   	push   edx
  4099cd:	00 13                	add    BYTE PTR [ebx],dl
  4099cf:	29 43 57             	sub    DWORD PTR [ebx+0x57],eax
  4099d2:	5f                   	pop    edi
  4099d3:	43                   	inc    ebx
  4099d4:	4d                   	dec    ebp
  4099d5:	44                   	inc    esp
  4099d6:	4c                   	dec    esp
  4099d7:	49                   	dec    ecx
  4099d8:	4e                   	dec    esi
  4099d9:	45                   	inc    ebp
  4099da:	00 14 29             	add    BYTE PTR [ecx+ebp*1],dl
  4099dd:	43                   	inc    ebx
  4099de:	57                   	push   edi
  4099df:	5f                   	pop    edi
  4099e0:	43                   	inc    ebx
  4099e1:	48                   	dec    eax
  4099e2:	45                   	inc    ebp
  4099e3:	43                   	inc    ebx
  4099e4:	4b                   	dec    ebx
  4099e5:	5f                   	pop    edi
  4099e6:	4e                   	dec    esi
  4099e7:	54                   	push   esp
  4099e8:	53                   	push   ebx
  4099e9:	45                   	inc    ebp
  4099ea:	43                   	inc    ebx
  4099eb:	00 15 29 43 57 5f    	add    BYTE PTR ds:0x5f574329,dl
  4099f1:	47                   	inc    edi
  4099f2:	45                   	inc    ebp
  4099f3:	54                   	push   esp
  4099f4:	5f                   	pop    edi
  4099f5:	45                   	inc    ebp
  4099f6:	52                   	push   edx
  4099f7:	52                   	push   edx
  4099f8:	4e                   	dec    esi
  4099f9:	4f                   	dec    edi
  4099fa:	5f                   	pop    edi
  4099fb:	46                   	inc    esi
  4099fc:	52                   	push   edx
  4099fd:	4f                   	dec    edi
  4099fe:	4d                   	dec    ebp
  4099ff:	5f                   	pop    edi
  409a00:	57                   	push   edi
  409a01:	49                   	dec    ecx
  409a02:	4e                   	dec    esi
  409a03:	45                   	inc    ebp
  409a04:	52                   	push   edx
  409a05:	52                   	push   edx
  409a06:	4f                   	dec    edi
  409a07:	52                   	push   edx
  409a08:	00 16                	add    BYTE PTR [esi],dl
  409a0a:	29 43 57             	sub    DWORD PTR [ebx+0x57],eax
  409a0d:	5f                   	pop    edi
  409a0e:	47                   	inc    edi
  409a0f:	45                   	inc    ebp
  409a10:	54                   	push   esp
  409a11:	5f                   	pop    edi
  409a12:	50                   	push   eax
  409a13:	4f                   	dec    edi
  409a14:	53                   	push   ebx
  409a15:	49                   	dec    ecx
  409a16:	58                   	pop    eax
  409a17:	5f                   	pop    edi
  409a18:	53                   	push   ebx
  409a19:	45                   	inc    ebp
  409a1a:	43                   	inc    ebx
  409a1b:	55                   	push   ebp
  409a1c:	52                   	push   edx
  409a1d:	49                   	dec    ecx
  409a1e:	54                   	push   esp
  409a1f:	59                   	pop    ecx
  409a20:	5f                   	pop    edi
  409a21:	41                   	inc    ecx
  409a22:	54                   	push   esp
  409a23:	54                   	push   esp
  409a24:	52                   	push   edx
  409a25:	49                   	dec    ecx
  409a26:	42                   	inc    edx
  409a27:	55                   	push   ebp
  409a28:	54                   	push   esp
  409a29:	45                   	inc    ebp
  409a2a:	00 17                	add    BYTE PTR [edi],dl
  409a2c:	29 43 57             	sub    DWORD PTR [ebx+0x57],eax
  409a2f:	5f                   	pop    edi
  409a30:	47                   	inc    edi
  409a31:	45                   	inc    ebp
  409a32:	54                   	push   esp
  409a33:	5f                   	pop    edi
  409a34:	53                   	push   ebx
  409a35:	48                   	dec    eax
  409a36:	4d                   	dec    ebp
  409a37:	4c                   	dec    esp
  409a38:	42                   	inc    edx
  409a39:	41                   	inc    ecx
  409a3a:	00 18                	add    BYTE PTR [eax],bl
  409a3c:	29 43 57             	sub    DWORD PTR [ebx+0x57],eax
  409a3f:	5f                   	pop    edi
  409a40:	47                   	inc    edi
  409a41:	45                   	inc    ebp
  409a42:	54                   	push   esp
  409a43:	5f                   	pop    edi
  409a44:	55                   	push   ebp
  409a45:	49                   	dec    ecx
  409a46:	44                   	inc    esp
  409a47:	5f                   	pop    edi
  409a48:	46                   	inc    esi
  409a49:	52                   	push   edx
  409a4a:	4f                   	dec    edi
  409a4b:	4d                   	dec    ebp
  409a4c:	5f                   	pop    edi
  409a4d:	53                   	push   ebx
  409a4e:	49                   	dec    ecx
  409a4f:	44                   	inc    esp
  409a50:	00 19                	add    BYTE PTR [ecx],bl
  409a52:	29 43 57             	sub    DWORD PTR [ebx+0x57],eax
  409a55:	5f                   	pop    edi
  409a56:	47                   	inc    edi
  409a57:	45                   	inc    ebp
  409a58:	54                   	push   esp
  409a59:	5f                   	pop    edi
  409a5a:	47                   	inc    edi
  409a5b:	49                   	dec    ecx
  409a5c:	44                   	inc    esp
  409a5d:	5f                   	pop    edi
  409a5e:	46                   	inc    esi
  409a5f:	52                   	push   edx
  409a60:	4f                   	dec    edi
  409a61:	4d                   	dec    ebp
  409a62:	5f                   	pop    edi
  409a63:	53                   	push   ebx
  409a64:	49                   	dec    ecx
  409a65:	44                   	inc    esp
  409a66:	00 1a                	add    BYTE PTR [edx],bl
  409a68:	29 43 57             	sub    DWORD PTR [ebx+0x57],eax
  409a6b:	5f                   	pop    edi
  409a6c:	47                   	inc    edi
  409a6d:	45                   	inc    ebp
  409a6e:	54                   	push   esp
  409a6f:	5f                   	pop    edi
  409a70:	42                   	inc    edx
  409a71:	49                   	dec    ecx
  409a72:	4e                   	dec    esi
  409a73:	4d                   	dec    ebp
  409a74:	4f                   	dec    edi
  409a75:	44                   	inc    esp
  409a76:	45                   	inc    ebp
  409a77:	00 1b                	add    BYTE PTR [ebx],bl
  409a79:	29 43 57             	sub    DWORD PTR [ebx+0x57],eax
  409a7c:	5f                   	pop    edi
  409a7d:	48                   	dec    eax
  409a7e:	4f                   	dec    edi
  409a7f:	4f                   	dec    edi
  409a80:	4b                   	dec    ebx
  409a81:	00 1c 29             	add    BYTE PTR [ecx+ebp*1],bl
  409a84:	43                   	inc    ebx
  409a85:	57                   	push   edi
  409a86:	5f                   	pop    edi
  409a87:	41                   	inc    ecx
  409a88:	52                   	push   edx
  409a89:	47                   	inc    edi
  409a8a:	56                   	push   esi
  409a8b:	00 1d 29 43 57 5f    	add    BYTE PTR ds:0x5f574329,bl
  409a91:	45                   	inc    ebp
  409a92:	4e                   	dec    esi
  409a93:	56                   	push   esi
  409a94:	50                   	push   eax
  409a95:	00 1e                	add    BYTE PTR [esi],bl
  409a97:	29 43 57             	sub    DWORD PTR [ebx+0x57],eax
  409a9a:	5f                   	pop    edi
  409a9b:	44                   	inc    esp
  409a9c:	45                   	inc    ebp
  409a9d:	42                   	inc    edx
  409a9e:	55                   	push   ebp
  409a9f:	47                   	inc    edi
  409aa0:	5f                   	pop    edi
  409aa1:	53                   	push   ebx
  409aa2:	45                   	inc    ebp
  409aa3:	4c                   	dec    esp
  409aa4:	46                   	inc    esi
  409aa5:	00 1f                	add    BYTE PTR [edi],bl
  409aa7:	29 43 57             	sub    DWORD PTR [ebx+0x57],eax
  409aaa:	5f                   	pop    edi
  409aab:	53                   	push   ebx
  409aac:	59                   	pop    ecx
  409aad:	4e                   	dec    esi
  409aae:	43                   	inc    ebx
  409aaf:	5f                   	pop    edi
  409ab0:	57                   	push   edi
  409ab1:	49                   	dec    ecx
  409ab2:	4e                   	dec    esi
  409ab3:	45                   	inc    ebp
  409ab4:	4e                   	dec    esi
  409ab5:	56                   	push   esi
  409ab6:	00 20                	add    BYTE PTR [eax],ah
  409ab8:	29 43 57             	sub    DWORD PTR [ebx+0x57],eax
  409abb:	5f                   	pop    edi
  409abc:	43                   	inc    ebx
  409abd:	59                   	pop    ecx
  409abe:	47                   	inc    edi
  409abf:	54                   	push   esp
  409ac0:	4c                   	dec    esp
  409ac1:	53                   	push   ebx
  409ac2:	5f                   	pop    edi
  409ac3:	50                   	push   eax
  409ac4:	41                   	inc    ecx
  409ac5:	44                   	inc    esp
  409ac6:	53                   	push   ebx
  409ac7:	49                   	dec    ecx
  409ac8:	5a                   	pop    edx
  409ac9:	45                   	inc    ebp
  409aca:	00 21                	add    BYTE PTR [ecx],ah
  409acc:	29 43 57             	sub    DWORD PTR [ebx+0x57],eax
  409acf:	5f                   	pop    edi
  409ad0:	53                   	push   ebx
  409ad1:	45                   	inc    ebp
  409ad2:	54                   	push   esp
  409ad3:	5f                   	pop    edi
  409ad4:	44                   	inc    esp
  409ad5:	4f                   	dec    edi
  409ad6:	53                   	push   ebx
  409ad7:	5f                   	pop    edi
  409ad8:	46                   	inc    esi
  409ad9:	49                   	dec    ecx
  409ada:	4c                   	dec    esp
  409adb:	45                   	inc    ebp
  409adc:	5f                   	pop    edi
  409add:	57                   	push   edi
  409ade:	41                   	inc    ecx
  409adf:	52                   	push   edx
  409ae0:	4e                   	dec    esi
  409ae1:	49                   	dec    ecx
  409ae2:	4e                   	dec    esi
  409ae3:	47                   	inc    edi
  409ae4:	00 22                	add    BYTE PTR [edx],ah
  409ae6:	29 43 57             	sub    DWORD PTR [ebx+0x57],eax
  409ae9:	5f                   	pop    edi
  409aea:	53                   	push   ebx
  409aeb:	45                   	inc    ebp
  409aec:	54                   	push   esp
  409aed:	5f                   	pop    edi
  409aee:	50                   	push   eax
  409aef:	52                   	push   edx
  409af0:	49                   	dec    ecx
  409af1:	56                   	push   esi
  409af2:	5f                   	pop    edi
  409af3:	4b                   	dec    ebx
  409af4:	45                   	inc    ebp
  409af5:	59                   	pop    ecx
  409af6:	00 23                	add    BYTE PTR [ebx],ah
  409af8:	29 43 57             	sub    DWORD PTR [ebx+0x57],eax
  409afb:	5f                   	pop    edi
  409afc:	53                   	push   ebx
  409afd:	45                   	inc    ebp
  409afe:	54                   	push   esp
  409aff:	45                   	inc    ebp
  409b00:	52                   	push   edx
  409b01:	52                   	push   edx
  409b02:	4e                   	dec    esi
  409b03:	4f                   	dec    edi
  409b04:	00 24 29             	add    BYTE PTR [ecx+ebp*1],ah
  409b07:	43                   	inc    ebx
  409b08:	57                   	push   edi
  409b09:	5f                   	pop    edi
  409b0a:	45                   	inc    ebp
  409b0b:	58                   	pop    eax
  409b0c:	49                   	dec    ecx
  409b0d:	54                   	push   esp
  409b0e:	5f                   	pop    edi
  409b0f:	50                   	push   eax
  409b10:	52                   	push   edx
  409b11:	4f                   	dec    edi
  409b12:	43                   	inc    ebx
  409b13:	45                   	inc    ebp
  409b14:	53                   	push   ebx
  409b15:	53                   	push   ebx
  409b16:	00 25 29 43 57 5f    	add    BYTE PTR ds:0x5f574329,ah
  409b1c:	53                   	push   ebx
  409b1d:	45                   	inc    ebp
  409b1e:	54                   	push   esp
  409b1f:	5f                   	pop    edi
  409b20:	45                   	inc    ebp
  409b21:	58                   	pop    eax
  409b22:	54                   	push   esp
  409b23:	45                   	inc    ebp
  409b24:	52                   	push   edx
  409b25:	4e                   	dec    esi
  409b26:	41                   	inc    ecx
  409b27:	4c                   	dec    esp
  409b28:	5f                   	pop    edi
  409b29:	54                   	push   esp
  409b2a:	4f                   	dec    edi
  409b2b:	4b                   	dec    ebx
  409b2c:	45                   	inc    ebp
  409b2d:	4e                   	dec    esi
  409b2e:	00 26                	add    BYTE PTR [esi],ah
  409b30:	29 43 57             	sub    DWORD PTR [ebx+0x57],eax
  409b33:	5f                   	pop    edi
  409b34:	47                   	inc    edi
  409b35:	45                   	inc    ebp
  409b36:	54                   	push   esp
  409b37:	5f                   	pop    edi
  409b38:	49                   	dec    ecx
  409b39:	4e                   	dec    esi
  409b3a:	53                   	push   ebx
  409b3b:	54                   	push   esp
  409b3c:	4b                   	dec    ebx
  409b3d:	45                   	inc    ebp
  409b3e:	59                   	pop    ecx
  409b3f:	00 27                	add    BYTE PTR [edi],ah
  409b41:	29 43 57             	sub    DWORD PTR [ebx+0x57],eax
  409b44:	5f                   	pop    edi
  409b45:	49                   	dec    ecx
  409b46:	4e                   	dec    esi
  409b47:	54                   	push   esp
  409b48:	5f                   	pop    edi
  409b49:	53                   	push   ebx
  409b4a:	45                   	inc    ebp
  409b4b:	54                   	push   esp
  409b4c:	4c                   	dec    esp
  409b4d:	4f                   	dec    edi
  409b4e:	43                   	inc    ebx
  409b4f:	41                   	inc    ecx
  409b50:	4c                   	dec    esp
  409b51:	45                   	inc    ebp
  409b52:	00 28                	add    BYTE PTR [eax],ch
  409b54:	29 43 57             	sub    DWORD PTR [ebx+0x57],eax
  409b57:	5f                   	pop    edi
  409b58:	43                   	inc    ebx
  409b59:	56                   	push   esi
  409b5a:	54                   	push   esp
  409b5b:	5f                   	pop    edi
  409b5c:	4d                   	dec    ebp
  409b5d:	4e                   	dec    esi
  409b5e:	54                   	push   esp
  409b5f:	5f                   	pop    edi
  409b60:	4f                   	dec    edi
  409b61:	50                   	push   eax
  409b62:	54                   	push   esp
  409b63:	53                   	push   ebx
  409b64:	00 29                	add    BYTE PTR [ecx],ch
  409b66:	29 43 57             	sub    DWORD PTR [ebx+0x57],eax
  409b69:	5f                   	pop    edi
  409b6a:	4c                   	dec    esp
  409b6b:	53                   	push   ebx
  409b6c:	54                   	push   esp
  409b6d:	5f                   	pop    edi
  409b6e:	4d                   	dec    ebp
  409b6f:	4e                   	dec    esi
  409b70:	54                   	push   esp
  409b71:	5f                   	pop    edi
  409b72:	4f                   	dec    edi
  409b73:	50                   	push   eax
  409b74:	54                   	push   esp
  409b75:	53                   	push   ebx
  409b76:	00 2a                	add    BYTE PTR [edx],ch
  409b78:	29 43 57             	sub    DWORD PTR [ebx+0x57],eax
  409b7b:	5f                   	pop    edi
  409b7c:	53                   	push   ebx
  409b7d:	54                   	push   esp
  409b7e:	52                   	push   edx
  409b7f:	45                   	inc    ebp
  409b80:	52                   	push   edx
  409b81:	52                   	push   edx
  409b82:	4f                   	dec    edi
  409b83:	52                   	push   edx
  409b84:	00 2b                	add    BYTE PTR [ebx],ch
  409b86:	29 43 57             	sub    DWORD PTR [ebx+0x57],eax
  409b89:	5f                   	pop    edi
  409b8a:	43                   	inc    ebx
  409b8b:	56                   	push   esi
  409b8c:	54                   	push   esp
  409b8d:	5f                   	pop    edi
  409b8e:	45                   	inc    ebp
  409b8f:	4e                   	dec    esi
  409b90:	56                   	push   esi
  409b91:	5f                   	pop    edi
  409b92:	54                   	push   esp
  409b93:	4f                   	dec    edi
  409b94:	5f                   	pop    edi
  409b95:	57                   	push   edi
  409b96:	49                   	dec    ecx
  409b97:	4e                   	dec    esi
  409b98:	45                   	inc    ebp
  409b99:	4e                   	dec    esi
  409b9a:	56                   	push   esi
  409b9b:	00 2c 29             	add    BYTE PTR [ecx+ebp*1],ch
  409b9e:	43                   	inc    ebx
  409b9f:	57                   	push   edi
  409ba0:	5f                   	pop    edi
  409ba1:	41                   	inc    ecx
  409ba2:	4c                   	dec    esp
  409ba3:	4c                   	dec    esp
  409ba4:	4f                   	dec    edi
  409ba5:	43                   	inc    ebx
  409ba6:	5f                   	pop    edi
  409ba7:	44                   	inc    esp
  409ba8:	52                   	push   edx
  409ba9:	49                   	dec    ecx
  409baa:	56                   	push   esi
  409bab:	45                   	inc    ebp
  409bac:	5f                   	pop    edi
  409bad:	4d                   	dec    ebp
  409bae:	41                   	inc    ecx
  409baf:	50                   	push   eax
  409bb0:	00 2d 29 43 57 5f    	add    BYTE PTR ds:0x5f574329,ch
  409bb6:	4d                   	dec    ebp
  409bb7:	41                   	inc    ecx
  409bb8:	50                   	push   eax
  409bb9:	5f                   	pop    edi
  409bba:	44                   	inc    esp
  409bbb:	52                   	push   edx
  409bbc:	49                   	dec    ecx
  409bbd:	56                   	push   esi
  409bbe:	45                   	inc    ebp
  409bbf:	5f                   	pop    edi
  409bc0:	4d                   	dec    ebp
  409bc1:	41                   	inc    ecx
  409bc2:	50                   	push   eax
  409bc3:	00 2e                	add    BYTE PTR [esi],ch
  409bc5:	29 43 57             	sub    DWORD PTR [ebx+0x57],eax
  409bc8:	5f                   	pop    edi
  409bc9:	46                   	inc    esi
  409bca:	52                   	push   edx
  409bcb:	45                   	inc    ebp
  409bcc:	45                   	inc    ebp
  409bcd:	5f                   	pop    edi
  409bce:	44                   	inc    esp
  409bcf:	52                   	push   edx
  409bd0:	49                   	dec    ecx
  409bd1:	56                   	push   esi
  409bd2:	45                   	inc    ebp
  409bd3:	5f                   	pop    edi
  409bd4:	4d                   	dec    ebp
  409bd5:	41                   	inc    ecx
  409bd6:	50                   	push   eax
  409bd7:	00 2f                	add    BYTE PTR [edi],ch
  409bd9:	00 1b                	add    BYTE PTR [ebx],bl
  409bdb:	70 65                	jo     409c42 <.debug_info+0x15c6>
  409bdd:	72 5f                	jb     409c3e <.debug_info+0x15c2>
  409bdf:	70 72                	jo     409c53 <.debug_info+0x15d7>
  409be1:	6f                   	outs   dx,DWORD PTR ds:[esi]
  409be2:	63 65 73             	arpl   WORD PTR [ebp+0x73],sp
  409be5:	73 00                	jae    409be7 <.debug_info+0x156b>
  409be7:	a8 0a                	test   al,0xa
  409be9:	fa                   	cli    
  409bea:	01 18                	add    DWORD PTR [eax],ebx
  409bec:	00 00                	add    BYTE PTR [eax],al
  409bee:	09 69 6e             	or     DWORD PTR [ecx+0x6e],ebp
  409bf1:	69 74 69 61 6c 5f 73 	imul   esi,DWORD PTR [ecx+ebp*2+0x61],0x70735f6c
  409bf8:	70 
  409bf9:	00 0a                	add    BYTE PTR [edx],cl
  409bfb:	fb                   	sti    
  409bfc:	6d                   	ins    DWORD PTR es:[edi],dx
  409bfd:	02 00                	add    al,BYTE PTR [eax]
  409bff:	00 02                	add    BYTE PTR [edx],al
  409c01:	23 00                	and    eax,DWORD PTR [eax]
  409c03:	09 6d 61             	or     DWORD PTR [ebp+0x61],ebp
  409c06:	67 69 63 5f 62 69 73 	imul   esp,DWORD PTR [bp+di+0x5f],0x63736962
  409c0d:	63 
  409c0e:	75 69                	jne    409c79 <.debug_info+0x15fd>
  409c10:	74 00                	je     409c12 <.debug_info+0x1596>
  409c12:	0a ff                	or     bh,bh
  409c14:	58                   	pop    eax
  409c15:	02 00                	add    al,BYTE PTR [eax]
  409c17:	00 02                	add    BYTE PTR [edx],al
  409c19:	23 04 24             	and    eax,DWORD PTR [esp]
  409c1c:	64                   	fs
  409c1d:	6c                   	ins    BYTE PTR es:[edi],dx
  409c1e:	6c                   	ins    BYTE PTR es:[edi],dx
  409c1f:	5f                   	pop    edi
  409c20:	6d                   	ins    DWORD PTR es:[edi],dx
  409c21:	61                   	popa   
  409c22:	6a 6f                	push   0x6f
  409c24:	72 00                	jb     409c26 <.debug_info+0x15aa>
  409c26:	0a 00                	or     al,BYTE PTR [eax]
  409c28:	01 58 02             	add    DWORD PTR [eax+0x2],ebx
  409c2b:	00 00                	add    BYTE PTR [eax],al
  409c2d:	02 23                	add    ah,BYTE PTR [ebx]
  409c2f:	08 24 64             	or     BYTE PTR [esp+eiz*2],ah
  409c32:	6c                   	ins    BYTE PTR es:[edi],dx
  409c33:	6c                   	ins    BYTE PTR es:[edi],dx
  409c34:	5f                   	pop    edi
  409c35:	6d                   	ins    DWORD PTR es:[edi],dx
  409c36:	69 6e 6f 72 00 0a 01 	imul   ebp,DWORD PTR [esi+0x6f],0x10a0072
  409c3d:	01 58 02             	add    DWORD PTR [eax+0x2],ebx
  409c40:	00 00                	add    BYTE PTR [eax],al
  409c42:	02 23                	add    ah,BYTE PTR [ebx]
  409c44:	0c 24                	or     al,0x24
  409c46:	69 6d 70 75 72 65 5f 	imul   ebp,DWORD PTR [ebp+0x70],0x5f657275
  409c4d:	70 74                	jo     409cc3 <.debug_info+0x1647>
  409c4f:	72 5f                	jb     409cb0 <.debug_info+0x1634>
  409c51:	70 74                	jo     409cc7 <.debug_info+0x164b>
  409c53:	72 00                	jb     409c55 <.debug_info+0x15d9>
  409c55:	0a 03                	or     al,BYTE PTR [ebx]
  409c57:	01 01                	add    DWORD PTR [ecx],eax
  409c59:	18 00                	sbb    BYTE PTR [eax],al
  409c5b:	00 02                	add    BYTE PTR [edx],al
  409c5d:	23 10                	and    edx,DWORD PTR [eax]
  409c5f:	24 65                	and    al,0x65
  409c61:	6e                   	outs   dx,BYTE PTR ds:[esi]
  409c62:	76 70                	jbe    409cd4 <.debug_info+0x1658>
  409c64:	74 72                	je     409cd8 <.debug_info+0x165c>
  409c66:	00 0a                	add    BYTE PTR [edx],cl
  409c68:	04 01                	add    al,0x1
  409c6a:	07                   	pop    es
  409c6b:	18 00                	sbb    BYTE PTR [eax],al
  409c6d:	00 02                	add    BYTE PTR [edx],al
  409c6f:	23 14 24             	and    edx,DWORD PTR [esp]
  409c72:	6d                   	ins    DWORD PTR es:[edi],dx
  409c73:	61                   	popa   
  409c74:	6c                   	ins    BYTE PTR es:[edi],dx
  409c75:	6c                   	ins    BYTE PTR es:[edi],dx
  409c76:	6f                   	outs   dx,DWORD PTR ds:[esi]
  409c77:	63 00                	arpl   WORD PTR [eax],ax
  409c79:	0a 08                	or     cl,BYTE PTR [eax]
  409c7b:	01 1c 18             	add    DWORD PTR [eax+ebx*1],ebx
  409c7e:	00 00                	add    BYTE PTR [eax],al
  409c80:	02 23                	add    ah,BYTE PTR [ebx]
  409c82:	18 24 66             	sbb    BYTE PTR [esi+eiz*2],ah
  409c85:	72 65                	jb     409cec <.debug_info+0x1670>
  409c87:	65 00 0a             	add    BYTE PTR gs:[edx],cl
  409c8a:	09 01                	or     DWORD PTR [ecx],eax
  409c8c:	2d 18 00 00 02       	sub    eax,0x2000018
  409c91:	23 1c 24             	and    ebx,DWORD PTR [esp]
  409c94:	72 65                	jb     409cfb <.debug_info+0x167f>
  409c96:	61                   	popa   
  409c97:	6c                   	ins    BYTE PTR es:[edi],dx
  409c98:	6c                   	ins    BYTE PTR es:[edi],dx
  409c99:	6f                   	outs   dx,DWORD PTR ds:[esi]
  409c9a:	63 00                	arpl   WORD PTR [eax],ax
  409c9c:	0a 0a                	or     cl,BYTE PTR [edx]
  409c9e:	01 47 18             	add    DWORD PTR [edi+0x18],eax
  409ca1:	00 00                	add    BYTE PTR [eax],al
  409ca3:	02 23                	add    ah,BYTE PTR [ebx]
  409ca5:	20 24 66             	and    BYTE PTR [esi+eiz*2],ah
  409ca8:	6d                   	ins    DWORD PTR es:[edi],dx
  409ca9:	6f                   	outs   dx,DWORD PTR ds:[esi]
  409caa:	64                   	fs
  409cab:	65                   	gs
  409cac:	5f                   	pop    edi
  409cad:	70 74                	jo     409d23 <.debug_info+0x16a7>
  409caf:	72 00                	jb     409cb1 <.debug_info+0x1635>
  409cb1:	0a 0c 01             	or     cl,BYTE PTR [ecx+eax*1]
  409cb4:	2a 06                	sub    al,BYTE PTR [esi]
  409cb6:	00 00                	add    BYTE PTR [eax],al
  409cb8:	02 23                	add    ah,BYTE PTR [ebx]
  409cba:	24 24                	and    al,0x24
  409cbc:	6d                   	ins    DWORD PTR es:[edi],dx
  409cbd:	61                   	popa   
  409cbe:	69 6e 00 0a 0e 01 66 	imul   ebp,DWORD PTR [esi+0x0],0x66010e0a
  409cc5:	18 00                	sbb    BYTE PTR [eax],al
  409cc7:	00 02                	add    BYTE PTR [edx],al
  409cc9:	23 28                	and    ebp,DWORD PTR [eax]
  409ccb:	24 63                	and    al,0x63
  409ccd:	74 6f                	je     409d3e <.debug_info+0x16c2>
  409ccf:	72 73                	jb     409d44 <.debug_info+0x16c8>
  409cd1:	00 0a                	add    BYTE PTR [edx],cl
  409cd3:	0f 01                	(bad)  
  409cd5:	6c                   	ins    BYTE PTR es:[edi],dx
  409cd6:	18 00                	sbb    BYTE PTR [eax],al
  409cd8:	00 02                	add    BYTE PTR [edx],al
  409cda:	23 2c 24             	and    ebp,DWORD PTR [esp]
  409cdd:	64                   	fs
  409cde:	74 6f                	je     409d4f <.debug_info+0x16d3>
  409ce0:	72 73                	jb     409d55 <.debug_info+0x16d9>
  409ce2:	00 0a                	add    BYTE PTR [edx],cl
  409ce4:	10 01                	adc    BYTE PTR [ecx],al
  409ce6:	6c                   	ins    BYTE PTR es:[edi],dx
  409ce7:	18 00                	sbb    BYTE PTR [eax],al
  409ce9:	00 02                	add    BYTE PTR [edx],al
  409ceb:	23 30                	and    esi,DWORD PTR [eax]
  409ced:	24 64                	and    al,0x64
  409cef:	61                   	popa   
  409cf0:	74 61                	je     409d53 <.debug_info+0x16d7>
  409cf2:	5f                   	pop    edi
  409cf3:	73 74                	jae    409d69 <.debug_info+0x16ed>
  409cf5:	61                   	popa   
  409cf6:	72 74                	jb     409d6c <.debug_info+0x16f0>
  409cf8:	00 0a                	add    BYTE PTR [edx],cl
  409cfa:	13 01                	adc    eax,DWORD PTR [ecx]
  409cfc:	60                   	pusha  
  409cfd:	01 00                	add    DWORD PTR [eax],eax
  409cff:	00 02                	add    BYTE PTR [edx],al
  409d01:	23 34 24             	and    esi,DWORD PTR [esp]
  409d04:	64                   	fs
  409d05:	61                   	popa   
  409d06:	74 61                	je     409d69 <.debug_info+0x16ed>
  409d08:	5f                   	pop    edi
  409d09:	65 6e                	outs   dx,BYTE PTR gs:[esi]
  409d0b:	64 00 0a             	add    BYTE PTR fs:[edx],cl
  409d0e:	14 01                	adc    al,0x1
  409d10:	60                   	pusha  
  409d11:	01 00                	add    DWORD PTR [eax],eax
  409d13:	00 02                	add    BYTE PTR [edx],al
  409d15:	23 38                	and    edi,DWORD PTR [eax]
  409d17:	24 62                	and    al,0x62
  409d19:	73 73                	jae    409d8e <.debug_info+0x1712>
  409d1b:	5f                   	pop    edi
  409d1c:	73 74                	jae    409d92 <.debug_info+0x1716>
  409d1e:	61                   	popa   
  409d1f:	72 74                	jb     409d95 <.debug_info+0x1719>
  409d21:	00 0a                	add    BYTE PTR [edx],cl
  409d23:	15 01 60 01 00       	adc    eax,0x16001
  409d28:	00 02                	add    BYTE PTR [edx],al
  409d2a:	23 3c 24             	and    edi,DWORD PTR [esp]
  409d2d:	62 73 73             	bound  esi,QWORD PTR [ebx+0x73]
  409d30:	5f                   	pop    edi
  409d31:	65 6e                	outs   dx,BYTE PTR gs:[esi]
  409d33:	64 00 0a             	add    BYTE PTR fs:[edx],cl
  409d36:	16                   	push   ss
  409d37:	01 60 01             	add    DWORD PTR [eax+0x1],esp
  409d3a:	00 00                	add    BYTE PTR [eax],al
  409d3c:	02 23                	add    ah,BYTE PTR [ebx]
  409d3e:	40                   	inc    eax
  409d3f:	24 63                	and    al,0x63
  409d41:	61                   	popa   
  409d42:	6c                   	ins    BYTE PTR es:[edi],dx
  409d43:	6c                   	ins    BYTE PTR es:[edi],dx
  409d44:	6f                   	outs   dx,DWORD PTR ds:[esi]
  409d45:	63 00                	arpl   WORD PTR [eax],ax
  409d47:	0a 18                	or     bl,BYTE PTR [eax]
  409d49:	01 86 18 00 00 02    	add    DWORD PTR [esi+0x2000018],eax
  409d4f:	23 44 24 70          	and    eax,DWORD PTR [esp+0x70]
  409d53:	72 65                	jb     409dba <.debug_info+0x173e>
  409d55:	6d                   	ins    DWORD PTR es:[edi],dx
  409d56:	61                   	popa   
  409d57:	69 6e 00 0a 1a 01 8c 	imul   ebp,DWORD PTR [esi+0x0],0x8c011a0a
  409d5e:	18 00                	sbb    BYTE PTR [eax],al
  409d60:	00 02                	add    BYTE PTR [edx],al
  409d62:	23 48 24             	and    ecx,DWORD PTR [eax+0x24]
  409d65:	72 75                	jb     409ddc <.debug_info+0x1760>
  409d67:	6e                   	outs   dx,BYTE PTR ds:[esi]
  409d68:	5f                   	pop    edi
  409d69:	63 74 6f 72          	arpl   WORD PTR [edi+ebp*2+0x72],si
  409d6d:	73 5f                	jae    409dce <.debug_info+0x1752>
  409d6f:	70 00                	jo     409d71 <.debug_info+0x16f5>
  409d71:	0a 1d 01 0f 01 00    	or     bl,BYTE PTR ds:0x10f01
  409d77:	00 02                	add    BYTE PTR [edx],al
  409d79:	23 58 24             	and    ebx,DWORD PTR [eax+0x24]
  409d7c:	75 6e                	jne    409dec <.debug_info+0x1770>
  409d7e:	75 73                	jne    409df3 <.debug_info+0x1777>
  409d80:	65 64 00 0a          	gs add BYTE PTR fs:gs:[edx],cl
  409d84:	1f                   	pop    ds
  409d85:	01 bd 18 00 00 02    	add    DWORD PTR [ebp+0x2000018],edi
  409d8b:	23 5c 24 63          	and    ebx,DWORD PTR [esp+0x63]
  409d8f:	78 78                	js     409e09 <.debug_info+0x178d>
  409d91:	5f                   	pop    edi
  409d92:	6d                   	ins    DWORD PTR es:[edi],dx
  409d93:	61                   	popa   
  409d94:	6c                   	ins    BYTE PTR es:[edi],dx
  409d95:	6c                   	ins    BYTE PTR es:[edi],dx
  409d96:	6f                   	outs   dx,DWORD PTR ds:[esi]
  409d97:	63 00                	arpl   WORD PTR [eax],ax
  409d99:	0a 22                	or     ah,BYTE PTR [edx]
  409d9b:	01 a5 19 00 00 02    	add    DWORD PTR [ebp+0x2000019],esp
  409da1:	23 78 24             	and    edi,DWORD PTR [eax+0x24]
  409da4:	68 6d 6f 64 75       	push   0x75646f6d
  409da9:	6c                   	ins    BYTE PTR es:[edi],dx
  409daa:	65 00 0a             	add    BYTE PTR gs:[edx],cl
  409dad:	24 01                	and    al,0x1
  409daf:	7f 11                	jg     409dc2 <.debug_info+0x1746>
  409db1:	00 00                	add    BYTE PTR [eax],al
  409db3:	02 23                	add    ah,BYTE PTR [ebx]
  409db5:	7c 24                	jl     409ddb <.debug_info+0x175f>
  409db7:	61                   	popa   
  409db8:	70 69                	jo     409e23 <.debug_info+0x17a7>
  409dba:	5f                   	pop    edi
  409dbb:	6d                   	ins    DWORD PTR es:[edi],dx
  409dbc:	61                   	popa   
  409dbd:	6a 6f                	push   0x6f
  409dbf:	72 00                	jb     409dc1 <.debug_info+0x1745>
  409dc1:	0a 26                	or     ah,BYTE PTR [esi]
  409dc3:	01 0e                	add    DWORD PTR [esi],ecx
  409dc5:	06                   	push   es
  409dc6:	00 00                	add    BYTE PTR [eax],al
  409dc8:	03 23                	add    esp,DWORD PTR [ebx]
  409dca:	80 01 24             	add    BYTE PTR [ecx],0x24
  409dcd:	61                   	popa   
  409dce:	70 69                	jo     409e39 <.debug_info+0x17bd>
  409dd0:	5f                   	pop    edi
  409dd1:	6d                   	ins    DWORD PTR es:[edi],dx
  409dd2:	69 6e 6f 72 00 0a 27 	imul   ebp,DWORD PTR [esi+0x6f],0x270a0072
  409dd9:	01 0e                	add    DWORD PTR [esi],ecx
  409ddb:	06                   	push   es
  409ddc:	00 00                	add    BYTE PTR [eax],al
  409dde:	03 23                	add    esp,DWORD PTR [ebx]
  409de0:	84 01                	test   BYTE PTR [ecx],al
  409de2:	24 75                	and    al,0x75
  409de4:	6e                   	outs   dx,BYTE PTR ds:[esi]
  409de5:	75 73                	jne    409e5a <.debug_info+0x17de>
  409de7:	65 64 32 00          	gs xor al,BYTE PTR fs:gs:[eax]
  409deb:	0a 2a                	or     ch,BYTE PTR [edx]
  409ded:	01 34 11             	add    DWORD PTR [ecx+edx*1],esi
  409df0:	00 00                	add    BYTE PTR [eax],al
  409df2:	03 23                	add    esp,DWORD PTR [ebx]
  409df4:	88 01                	mov    BYTE PTR [ecx],al
  409df6:	24 70                	and    al,0x70
  409df8:	73 65                	jae    409e5f <.debug_info+0x17e3>
  409dfa:	75 64                	jne    409e60 <.debug_info+0x17e4>
  409dfc:	6f                   	outs   dx,DWORD PTR ds:[esi]
  409dfd:	5f                   	pop    edi
  409dfe:	72 65                	jb     409e65 <.debug_info+0x17e9>
  409e00:	6c                   	ins    BYTE PTR es:[edi],dx
  409e01:	6f                   	outs   dx,DWORD PTR ds:[esi]
  409e02:	63 5f 73             	arpl   WORD PTR [edi+0x73],bx
  409e05:	74 61                	je     409e68 <.debug_info+0x17ec>
  409e07:	72 74                	jb     409e7d <.debug_info+0x1801>
  409e09:	00 0a                	add    BYTE PTR [edx],cl
  409e0b:	2b 01                	sub    eax,DWORD PTR [ecx]
  409e0d:	60                   	pusha  
  409e0e:	01 00                	add    DWORD PTR [eax],eax
  409e10:	00 03                	add    BYTE PTR [ebx],al
  409e12:	23 94 01 24 70 73 65 	and    edx,DWORD PTR [ecx+eax*1+0x65737024]
  409e19:	75 64                	jne    409e7f <.debug_info+0x1803>
  409e1b:	6f                   	outs   dx,DWORD PTR ds:[esi]
  409e1c:	5f                   	pop    edi
  409e1d:	72 65                	jb     409e84 <.debug_info+0x1808>
  409e1f:	6c                   	ins    BYTE PTR es:[edi],dx
  409e20:	6f                   	outs   dx,DWORD PTR ds:[esi]
  409e21:	63 5f 65             	arpl   WORD PTR [edi+0x65],bx
  409e24:	6e                   	outs   dx,BYTE PTR ds:[esi]
  409e25:	64 00 0a             	add    BYTE PTR fs:[edx],cl
  409e28:	2c 01                	sub    al,0x1
  409e2a:	60                   	pusha  
  409e2b:	01 00                	add    DWORD PTR [eax],eax
  409e2d:	00 03                	add    BYTE PTR [ebx],al
  409e2f:	23 98 01 24 69 6d    	and    ebx,DWORD PTR [eax+0x6d692401]
  409e35:	61                   	popa   
  409e36:	67                   	addr16
  409e37:	65                   	gs
  409e38:	5f                   	pop    edi
  409e39:	62 61 73             	bound  esp,QWORD PTR [ecx+0x73]
  409e3c:	65 00 0a             	add    BYTE PTR gs:[edx],cl
  409e3f:	2d 01 60 01 00       	sub    eax,0x16001
  409e44:	00 03                	add    BYTE PTR [ebx],al
  409e46:	23 9c 01 24 74 68 72 	and    ebx,DWORD PTR [ecx+eax*1+0x72687424]
  409e4d:	65                   	gs
  409e4e:	61                   	popa   
  409e4f:	64 69 6e 74 65 72 66 	imul   ebp,DWORD PTR fs:[esi+0x74],0x61667265
  409e56:	61 
  409e57:	63 65 00             	arpl   WORD PTR [ebp+0x0],sp
  409e5a:	0a 30                	or     dh,BYTE PTR [eax]
  409e5c:	01 f7                	add    edi,esi
  409e5e:	1a 00                	sbb    al,BYTE PTR [eax]
  409e60:	00 03                	add    BYTE PTR [ebx],al
  409e62:	23 a0 01 24 69 6d    	and    esp,DWORD PTR [eax+0x6d692401]
  409e68:	70 75                	jo     409edf <.debug_info+0x1863>
  409e6a:	72 65                	jb     409ed1 <.debug_info+0x1855>
  409e6c:	5f                   	pop    edi
  409e6d:	70 74                	jo     409ee3 <.debug_info+0x1867>
  409e6f:	72 00                	jb     409e71 <.debug_info+0x17f5>
  409e71:	0a 34 01             	or     dh,BYTE PTR [ecx+eax*1]
  409e74:	c4 08                	les    ecx,FWORD PTR [eax]
  409e76:	00 00                	add    BYTE PTR [eax],al
  409e78:	03 23                	add    esp,DWORD PTR [ebx]
  409e7a:	a4                   	movs   BYTE PTR es:[edi],BYTE PTR ds:[esi]
  409e7b:	01 00                	add    DWORD PTR [eax],eax
  409e7d:	0c 04                	or     al,0x4
  409e7f:	c4 08                	les    ecx,FWORD PTR [eax]
  409e81:	00 00                	add    BYTE PTR [eax],al
  409e83:	0c 04                	or     al,0x4
  409e85:	8f                   	(bad)  
  409e86:	11 00                	adc    DWORD PTR [eax],eax
  409e88:	00 20                	add    BYTE PTR [eax],ah
  409e8a:	60                   	pusha  
  409e8b:	01 00                	add    DWORD PTR [eax],eax
  409e8d:	00 1c 18             	add    BYTE PTR [eax+ebx*1],bl
  409e90:	00 00                	add    BYTE PTR [eax],al
  409e92:	12 4a 02             	adc    cl,BYTE PTR [edx+0x2]
  409e95:	00 00                	add    BYTE PTR [eax],al
  409e97:	00 0c 04             	add    BYTE PTR [esp+eax*1],cl
  409e9a:	0d 18 00 00 27       	or     eax,0x27000018
  409e9f:	2d 18 00 00 12       	sub    eax,0x12000018
  409ea4:	60                   	pusha  
  409ea5:	01 00                	add    DWORD PTR [eax],eax
  409ea7:	00 00                	add    BYTE PTR [eax],al
  409ea9:	0c 04                	or     al,0x4
  409eab:	22 18                	and    bl,BYTE PTR [eax]
  409ead:	00 00                	add    BYTE PTR [eax],al
  409eaf:	20 60 01             	and    BYTE PTR [eax+0x1],ah
  409eb2:	00 00                	add    BYTE PTR [eax],al
  409eb4:	47                   	inc    edi
  409eb5:	18 00                	sbb    BYTE PTR [eax],al
  409eb7:	00 12                	add    BYTE PTR [edx],dl
  409eb9:	60                   	pusha  
  409eba:	01 00                	add    DWORD PTR [eax],eax
  409ebc:	00 12                	add    BYTE PTR [edx],dl
  409ebe:	4a                   	dec    edx
  409ebf:	02 00                	add    al,BYTE PTR [eax]
  409ec1:	00 00                	add    BYTE PTR [eax],al
  409ec3:	0c 04                	or     al,0x4
  409ec5:	33 18                	xor    ebx,DWORD PTR [eax]
  409ec7:	00 00                	add    BYTE PTR [eax],al
  409ec9:	20 0f                	and    BYTE PTR [edi],cl
  409ecb:	01 00                	add    DWORD PTR [eax],eax
  409ecd:	00 66 18             	add    BYTE PTR [esi+0x18],ah
  409ed0:	00 00                	add    BYTE PTR [eax],al
  409ed2:	12 0f                	adc    cl,BYTE PTR [edi]
  409ed4:	01 00                	add    DWORD PTR [eax],eax
  409ed6:	00 12                	add    BYTE PTR [edx],dl
  409ed8:	8f                   	(bad)  
  409ed9:	11 00                	adc    DWORD PTR [eax],eax
  409edb:	00 12                	add    BYTE PTR [edx],dl
  409edd:	8f                   	(bad)  
  409ede:	11 00                	adc    DWORD PTR [eax],eax
  409ee0:	00 00                	add    BYTE PTR [eax],al
  409ee2:	0c 04                	or     al,0x4
  409ee4:	4d                   	dec    ebp
  409ee5:	18 00                	sbb    BYTE PTR [eax],al
  409ee7:	00 0c 04             	add    BYTE PTR [esp+eax*1],cl
  409eea:	6a 08                	push   0x8
  409eec:	00 00                	add    BYTE PTR [eax],al
  409eee:	20 60 01             	and    BYTE PTR [eax+0x1],ah
  409ef1:	00 00                	add    BYTE PTR [eax],al
  409ef3:	86 18                	xchg   BYTE PTR [eax],bl
  409ef5:	00 00                	add    BYTE PTR [eax],al
  409ef7:	12 4a 02             	adc    cl,BYTE PTR [edx+0x2]
  409efa:	00 00                	add    BYTE PTR [eax],al
  409efc:	12 4a 02             	adc    cl,BYTE PTR [edx+0x2]
  409eff:	00 00                	add    BYTE PTR [eax],al
  409f01:	00 0c 04             	add    BYTE PTR [esp+eax*1],cl
  409f04:	72 18                	jb     409f1e <.debug_info+0x18a2>
  409f06:	00 00                	add    BYTE PTR [eax],al
  409f08:	0a b7 18 00 00 9c    	or     dh,BYTE PTR [edi-0x63ffffe8]
  409f0e:	18 00                	sbb    BYTE PTR [eax],al
  409f10:	00 0b                	add    BYTE PTR [ebx],cl
  409f12:	16                   	push   ss
  409f13:	01 00                	add    DWORD PTR [eax],eax
  409f15:	00 03                	add    BYTE PTR [ebx],al
  409f17:	00 27                	add    BYTE PTR [edi],ah
  409f19:	b1 18                	mov    cl,0x18
  409f1b:	00 00                	add    BYTE PTR [eax],al
  409f1d:	12 0f                	adc    cl,BYTE PTR [edi]
  409f1f:	01 00                	add    DWORD PTR [eax],eax
  409f21:	00 12                	add    BYTE PTR [edx],dl
  409f23:	8f                   	(bad)  
  409f24:	11 00                	adc    DWORD PTR [eax],eax
  409f26:	00 12                	add    BYTE PTR [edx],dl
  409f28:	b1 18                	mov    cl,0x18
  409f2a:	00 00                	add    BYTE PTR [eax],al
  409f2c:	00 0c 04             	add    BYTE PTR [esp+eax*1],cl
  409f2f:	5e                   	pop    esi
  409f30:	15 00 00 0c 04       	adc    eax,0x40c0000
  409f35:	9c                   	pushf  
  409f36:	18 00                	sbb    BYTE PTR [eax],al
  409f38:	00 0a                	add    BYTE PTR [edx],cl
  409f3a:	58                   	pop    eax
  409f3b:	02 00                	add    al,BYTE PTR [eax]
  409f3d:	00 cd                	add    ch,cl
  409f3f:	18 00                	sbb    BYTE PTR [eax],al
  409f41:	00 0b                	add    BYTE PTR [ebx],cl
  409f43:	16                   	push   ss
  409f44:	01 00                	add    DWORD PTR [eax],eax
  409f46:	00 06                	add    BYTE PTR [esi],al
  409f48:	00 1b                	add    BYTE PTR [ebx],bl
  409f4a:	70 65                	jo     409fb1 <.debug_info+0x1935>
  409f4c:	72 5f                	jb     409fad <.debug_info+0x1931>
  409f4e:	70 72                	jo     409fc2 <.debug_info+0x1946>
  409f50:	6f                   	outs   dx,DWORD PTR ds:[esi]
  409f51:	63 65 73             	arpl   WORD PTR [ebp+0x73],sp
  409f54:	73 5f                	jae    409fb5 <.debug_info+0x1939>
  409f56:	63 78 78             	arpl   WORD PTR [eax+0x78],di
  409f59:	5f                   	pop    edi
  409f5a:	6d                   	ins    DWORD PTR es:[edi],dx
  409f5b:	61                   	popa   
  409f5c:	6c                   	ins    BYTE PTR es:[edi],dx
  409f5d:	6c                   	ins    BYTE PTR es:[edi],dx
  409f5e:	6f                   	outs   dx,DWORD PTR ds:[esi]
  409f5f:	63 00                	arpl   WORD PTR [eax],ax
  409f61:	20 0b                	and    BYTE PTR [ebx],cl
  409f63:	17                   	pop    ss
  409f64:	a5                   	movs   DWORD PTR es:[edi],DWORD PTR ds:[esi]
  409f65:	19 00                	sbb    DWORD PTR [eax],eax
  409f67:	00 09                	add    BYTE PTR [ecx],cl
  409f69:	6f                   	outs   dx,DWORD PTR ds:[esi]
  409f6a:	70 65                	jo     409fd1 <.debug_info+0x1955>
  409f6c:	72 5f                	jb     409fcd <.debug_info+0x1951>
  409f6e:	6e                   	outs   dx,BYTE PTR ds:[esi]
  409f6f:	65                   	gs
  409f70:	77 00                	ja     409f72 <.debug_info+0x18f6>
  409f72:	0b 18                	or     ebx,DWORD PTR [eax]
  409f74:	1c 18                	sbb    al,0x18
  409f76:	00 00                	add    BYTE PTR [eax],al
  409f78:	02 23                	add    ah,BYTE PTR [ebx]
  409f7a:	00 09                	add    BYTE PTR [ecx],cl
  409f7c:	6f                   	outs   dx,DWORD PTR ds:[esi]
  409f7d:	70 65                	jo     409fe4 <.debug_info+0x1968>
  409f7f:	72 5f                	jb     409fe0 <.debug_info+0x1964>
  409f81:	6e                   	outs   dx,BYTE PTR ds:[esi]
  409f82:	65                   	gs
  409f83:	77 5f                	ja     409fe4 <.debug_info+0x1968>
  409f85:	5f                   	pop    edi
  409f86:	00 0b                	add    BYTE PTR [ebx],cl
  409f88:	19 1c 18             	sbb    DWORD PTR [eax+ebx*1],ebx
  409f8b:	00 00                	add    BYTE PTR [eax],al
  409f8d:	02 23                	add    ah,BYTE PTR [ebx]
  409f8f:	04 09                	add    al,0x9
  409f91:	6f                   	outs   dx,DWORD PTR ds:[esi]
  409f92:	70 65                	jo     409ff9 <.debug_info+0x197d>
  409f94:	72 5f                	jb     409ff5 <.debug_info+0x1979>
  409f96:	64                   	fs
  409f97:	65                   	gs
  409f98:	6c                   	ins    BYTE PTR es:[edi],dx
  409f99:	65                   	gs
  409f9a:	74 65                	je     40a001 <.debug_info+0x1985>
  409f9c:	00 0b                	add    BYTE PTR [ebx],cl
  409f9e:	1a 2d 18 00 00 02    	sbb    ch,BYTE PTR ds:0x2000018
  409fa4:	23 08                	and    ecx,DWORD PTR [eax]
  409fa6:	09 6f 70             	or     DWORD PTR [edi+0x70],ebp
  409fa9:	65                   	gs
  409faa:	72 5f                	jb     40a00b <.debug_info+0x198f>
  409fac:	64                   	fs
  409fad:	65                   	gs
  409fae:	6c                   	ins    BYTE PTR es:[edi],dx
  409faf:	65                   	gs
  409fb0:	74 65                	je     40a017 <.debug_info+0x199b>
  409fb2:	5f                   	pop    edi
  409fb3:	5f                   	pop    edi
  409fb4:	00 0b                	add    BYTE PTR [ebx],cl
  409fb6:	1b 2d 18 00 00 02    	sbb    ebp,DWORD PTR ds:0x2000018
  409fbc:	23 0c 09             	and    ecx,DWORD PTR [ecx+ecx*1]
  409fbf:	6f                   	outs   dx,DWORD PTR ds:[esi]
  409fc0:	70 65                	jo     40a027 <.debug_info+0x19ab>
  409fc2:	72 5f                	jb     40a023 <.debug_info+0x19a7>
  409fc4:	6e                   	outs   dx,BYTE PTR ds:[esi]
  409fc5:	65                   	gs
  409fc6:	77 5f                	ja     40a027 <.debug_info+0x19ab>
  409fc8:	6e                   	outs   dx,BYTE PTR ds:[esi]
  409fc9:	74 00                	je     409fcb <.debug_info+0x194f>
  409fcb:	0b 1c 97             	or     ebx,DWORD PTR [edi+edx*4]
  409fce:	1b 00                	sbb    eax,DWORD PTR [eax]
  409fd0:	00 02                	add    BYTE PTR [edx],al
  409fd2:	23 10                	and    edx,DWORD PTR [eax]
  409fd4:	09 6f 70             	or     DWORD PTR [edi+0x70],ebp
  409fd7:	65                   	gs
  409fd8:	72 5f                	jb     40a039 <.debug_info+0x19bd>
  409fda:	6e                   	outs   dx,BYTE PTR ds:[esi]
  409fdb:	65                   	gs
  409fdc:	77 5f                	ja     40a03d <.debug_info+0x19c1>
  409fde:	5f                   	pop    edi
  409fdf:	5f                   	pop    edi
  409fe0:	6e                   	outs   dx,BYTE PTR ds:[esi]
  409fe1:	74 00                	je     409fe3 <.debug_info+0x1967>
  409fe3:	0b 1d 97 1b 00 00    	or     ebx,DWORD PTR ds:0x1b97
  409fe9:	02 23                	add    ah,BYTE PTR [ebx]
  409feb:	14 09                	adc    al,0x9
  409fed:	6f                   	outs   dx,DWORD PTR ds:[esi]
  409fee:	70 65                	jo     40a055 <.debug_info+0x19d9>
  409ff0:	72 5f                	jb     40a051 <.debug_info+0x19d5>
  409ff2:	64                   	fs
  409ff3:	65                   	gs
  409ff4:	6c                   	ins    BYTE PTR es:[edi],dx
  409ff5:	65                   	gs
  409ff6:	74 65                	je     40a05d <.debug_info+0x19e1>
  409ff8:	5f                   	pop    edi
  409ff9:	6e                   	outs   dx,BYTE PTR ds:[esi]
  409ffa:	74 00                	je     409ffc <.debug_info+0x1980>
  409ffc:	0b 1e                	or     ebx,DWORD PTR [esi]
  409ffe:	ad                   	lods   eax,DWORD PTR ds:[esi]
  409fff:	1b 00                	sbb    eax,DWORD PTR [eax]
  40a001:	00 02                	add    BYTE PTR [edx],al
  40a003:	23 18                	and    ebx,DWORD PTR [eax]
  40a005:	09 6f 70             	or     DWORD PTR [edi+0x70],ebp
  40a008:	65                   	gs
  40a009:	72 5f                	jb     40a06a <.debug_info+0x19ee>
  40a00b:	64                   	fs
  40a00c:	65                   	gs
  40a00d:	6c                   	ins    BYTE PTR es:[edi],dx
  40a00e:	65                   	gs
  40a00f:	74 65                	je     40a076 <.debug_info+0x19fa>
  40a011:	5f                   	pop    edi
  40a012:	5f                   	pop    edi
  40a013:	5f                   	pop    edi
  40a014:	6e                   	outs   dx,BYTE PTR ds:[esi]
  40a015:	74 00                	je     40a017 <.debug_info+0x199b>
  40a017:	0b 1f                	or     ebx,DWORD PTR [edi]
  40a019:	ad                   	lods   eax,DWORD PTR ds:[esi]
  40a01a:	1b 00                	sbb    eax,DWORD PTR [eax]
  40a01c:	00 02                	add    BYTE PTR [edx],al
  40a01e:	23 1c 00             	and    ebx,DWORD PTR [eax+eax*1]
  40a021:	0c 04                	or     al,0x4
  40a023:	cd 18                	int    0x18
  40a025:	00 00                	add    BYTE PTR [eax],al
  40a027:	26                   	es
  40a028:	4d                   	dec    ebp
  40a029:	54                   	push   esp
  40a02a:	69 6e 74 65 72 66 61 	imul   ebp,DWORD PTR [esi+0x74],0x61667265
  40a031:	63 65 00             	arpl   WORD PTR [ebp+0x0],sp
  40a034:	14 0c                	adc    al,0xc
  40a036:	a8 02                	test   al,0x2
  40a038:	f7 1a                	neg    DWORD PTR [edx]
  40a03a:	00 00                	add    BYTE PTR [eax],al
  40a03c:	24 63                	and    al,0x63
  40a03e:	6f                   	outs   dx,DWORD PTR ds:[esi]
  40a03f:	6e                   	outs   dx,BYTE PTR ds:[esi]
  40a040:	63 75 72             	arpl   WORD PTR [ebp+0x72],si
  40a043:	72 65                	jb     40a0aa <.debug_info+0x1a2e>
  40a045:	6e                   	outs   dx,BYTE PTR ds:[esi]
  40a046:	63 79 00             	arpl   WORD PTR [ecx+0x0],di
  40a049:	0c aa                	or     al,0xaa
  40a04b:	02 0f                	add    cl,BYTE PTR [edi]
  40a04d:	01 00                	add    DWORD PTR [eax],eax
  40a04f:	00 02                	add    BYTE PTR [edx],al
  40a051:	23 00                	and    eax,DWORD PTR [eax]
  40a053:	24 74                	and    al,0x74
  40a055:	68 72 65 61 64       	push   0x64616572
  40a05a:	63 6f 75             	arpl   WORD PTR [edi+0x75],bp
  40a05d:	6e                   	outs   dx,BYTE PTR ds:[esi]
  40a05e:	74 00                	je     40a060 <.debug_info+0x19e4>
  40a060:	0c ab                	or     al,0xab
  40a062:	02 62 01             	add    ah,BYTE PTR [edx+0x1]
  40a065:	00 00                	add    BYTE PTR [eax],al
  40a067:	02 23                	add    ah,BYTE PTR [ebx]
  40a069:	04 24                	add    al,0x24
  40a06b:	70 74                	jo     40a0e1 <.debug_info+0x1a65>
  40a06d:	68 72 65 61 64       	push   0x64616572
  40a072:	5f                   	pop    edi
  40a073:	70 72                	jo     40a0e7 <.debug_info+0x1a6b>
  40a075:	65                   	gs
  40a076:	70 61                	jo     40a0d9 <.debug_info+0x1a5d>
  40a078:	72 65                	jb     40a0df <.debug_info+0x1a63>
  40a07a:	00 0c ad 02 34 1b 00 	add    BYTE PTR [ebp*4+0x1b3402],cl
  40a081:	00 02                	add    BYTE PTR [edx],al
  40a083:	23 08                	and    ecx,DWORD PTR [eax]
  40a085:	24 70                	and    al,0x70
  40a087:	74 68                	je     40a0f1 <.debug_info+0x1a75>
  40a089:	72 65                	jb     40a0f0 <.debug_info+0x1a74>
  40a08b:	61                   	popa   
  40a08c:	64                   	fs
  40a08d:	5f                   	pop    edi
  40a08e:	63 68 69             	arpl   WORD PTR [eax+0x69],bp
  40a091:	6c                   	ins    BYTE PTR es:[edi],dx
  40a092:	64 00 0c ae          	add    BYTE PTR fs:[esi+ebp*4],cl
  40a096:	02 34 1b             	add    dh,BYTE PTR [ebx+ebx*1]
  40a099:	00 00                	add    BYTE PTR [eax],al
  40a09b:	02 23                	add    ah,BYTE PTR [ebx]
  40a09d:	0c 24                	or     al,0x24
  40a09f:	70 74                	jo     40a115 <.debug_info+0x1a99>
  40a0a1:	68 72 65 61 64       	push   0x64616572
  40a0a6:	5f                   	pop    edi
  40a0a7:	70 61                	jo     40a10a <.debug_info+0x1a8e>
  40a0a9:	72 65                	jb     40a110 <.debug_info+0x1a94>
  40a0ab:	6e                   	outs   dx,BYTE PTR ds:[esi]
  40a0ac:	74 00                	je     40a0ae <.debug_info+0x1a32>
  40a0ae:	0c af                	or     al,0xaf
  40a0b0:	02 34 1b             	add    dh,BYTE PTR [ebx+ebx*1]
  40a0b3:	00 00                	add    BYTE PTR [eax],al
  40a0b5:	02 23                	add    ah,BYTE PTR [ebx]
  40a0b7:	10 2a                	adc    BYTE PTR [edx],ch
  40a0b9:	01 49 6e             	add    DWORD PTR [ecx+0x6e],ecx
  40a0bc:	69 74 00 0c b1 02 5f 	imul   esi,DWORD PTR [eax+eax*1+0xc],0x5a5f02b1
  40a0c3:	5a 
  40a0c4:	4e                   	dec    esi
  40a0c5:	31 31                	xor    DWORD PTR [ecx],esi
  40a0c7:	4d                   	dec    ebp
  40a0c8:	54                   	push   esp
  40a0c9:	69 6e 74 65 72 66 61 	imul   ebp,DWORD PTR [esi+0x74],0x61667265
  40a0d0:	63 65 34             	arpl   WORD PTR [ebp+0x34],sp
  40a0d3:	49                   	dec    ecx
  40a0d4:	6e                   	outs   dx,BYTE PTR ds:[esi]
  40a0d5:	69 74 45 76 00 01 6a 	imul   esi,DWORD PTR [ebp+eax*2+0x76],0x1a6a0100
  40a0dc:	1a 
  40a0dd:	00 00                	add    BYTE PTR [eax],al
  40a0df:	11 f7                	adc    edi,esi
  40a0e1:	1a 00                	sbb    al,BYTE PTR [eax]
  40a0e3:	00 01                	add    BYTE PTR [ecx],al
  40a0e5:	00 2a                	add    BYTE PTR [edx],ch
  40a0e7:	01 66 69             	add    DWORD PTR [esi+0x69],esp
  40a0ea:	78 75                	js     40a161 <.debug_info+0x1ae5>
  40a0ec:	70 5f                	jo     40a14d <.debug_info+0x1ad1>
  40a0ee:	62 65 66             	bound  esp,QWORD PTR [ebp+0x66]
  40a0f1:	6f                   	outs   dx,DWORD PTR ds:[esi]
  40a0f2:	72 65                	jb     40a159 <.debug_info+0x1add>
  40a0f4:	5f                   	pop    edi
  40a0f5:	66 6f                	outs   dx,WORD PTR ds:[esi]
  40a0f7:	72 6b                	jb     40a164 <.debug_info+0x1ae8>
  40a0f9:	00 0c b2             	add    BYTE PTR [edx+esi*4],cl
  40a0fc:	02 5f 5a             	add    bl,BYTE PTR [edi+0x5a]
  40a0ff:	4e                   	dec    esi
  40a100:	31 31                	xor    DWORD PTR [ecx],esi
  40a102:	4d                   	dec    ebp
  40a103:	54                   	push   esp
  40a104:	69 6e 74 65 72 66 61 	imul   ebp,DWORD PTR [esi+0x74],0x61667265
  40a10b:	63 65 31             	arpl   WORD PTR [ebp+0x31],sp
  40a10e:	37                   	aaa    
  40a10f:	66 69 78 75 70 5f    	imul   di,WORD PTR [eax+0x75],0x5f70
  40a115:	62 65 66             	bound  esp,QWORD PTR [ebp+0x66]
  40a118:	6f                   	outs   dx,DWORD PTR ds:[esi]
  40a119:	72 65                	jb     40a180 <.debug_info+0x1b04>
  40a11b:	5f                   	pop    edi
  40a11c:	66 6f                	outs   dx,WORD PTR ds:[esi]
  40a11e:	72 6b                	jb     40a18b <.debug_info+0x1b0f>
  40a120:	45                   	inc    ebp
  40a121:	76 00                	jbe    40a123 <.debug_info+0x1aa7>
  40a123:	01 b3 1a 00 00 11    	add    DWORD PTR [ebx+0x1100001a],esi
  40a129:	f7 1a                	neg    DWORD PTR [edx]
  40a12b:	00 00                	add    BYTE PTR [eax],al
  40a12d:	01 00                	add    DWORD PTR [eax],eax
  40a12f:	2b 01                	sub    eax,DWORD PTR [ecx]
  40a131:	66 69 78 75 70 5f    	imul   di,WORD PTR [eax+0x75],0x5f70
  40a137:	61                   	popa   
  40a138:	66                   	data16
  40a139:	74 65                	je     40a1a0 <.debug_info+0x1b24>
  40a13b:	72 5f                	jb     40a19c <.debug_info+0x1b20>
  40a13d:	66 6f                	outs   dx,WORD PTR ds:[esi]
  40a13f:	72 6b                	jb     40a1ac <.debug_info+0x1b30>
  40a141:	00 0c b3             	add    BYTE PTR [ebx+esi*4],cl
  40a144:	02 5f 5a             	add    bl,BYTE PTR [edi+0x5a]
  40a147:	4e                   	dec    esi
  40a148:	31 31                	xor    DWORD PTR [ecx],esi
  40a14a:	4d                   	dec    ebp
  40a14b:	54                   	push   esp
  40a14c:	69 6e 74 65 72 66 61 	imul   ebp,DWORD PTR [esi+0x74],0x61667265
  40a153:	63 65 31             	arpl   WORD PTR [ebp+0x31],sp
  40a156:	36 66 69 78 75 70 5f 	imul   di,WORD PTR ss:[eax+0x75],0x5f70
  40a15d:	61                   	popa   
  40a15e:	66                   	data16
  40a15f:	74 65                	je     40a1c6 <.debug_info+0x1b4a>
  40a161:	72 5f                	jb     40a1c2 <.debug_info+0x1b46>
  40a163:	66 6f                	outs   dx,WORD PTR ds:[esi]
  40a165:	72 6b                	jb     40a1d2 <.debug_info+0x1b56>
  40a167:	45                   	inc    ebp
  40a168:	76 00                	jbe    40a16a <.debug_info+0x1aee>
  40a16a:	01 11                	add    DWORD PTR [ecx],edx
  40a16c:	f7 1a                	neg    DWORD PTR [edx]
  40a16e:	00 00                	add    BYTE PTR [eax],al
  40a170:	01 00                	add    DWORD PTR [eax],eax
  40a172:	00 0c 04             	add    BYTE PTR [esp+eax*1],cl
  40a175:	ab                   	stos   DWORD PTR es:[edi],eax
  40a176:	19 00                	sbb    DWORD PTR [eax],eax
  40a178:	00 2c 63             	add    BYTE PTR [ebx+eiz*2],ch
  40a17b:	61                   	popa   
  40a17c:	6c                   	ins    BYTE PTR es:[edi],dx
  40a17d:	6c                   	ins    BYTE PTR es:[edi],dx
  40a17e:	62 61 63             	bound  esp,QWORD PTR [ecx+0x63]
  40a181:	6b 00 08             	imul   eax,DWORD PTR [eax],0x8
  40a184:	0c a1                	or     al,0xa1
  40a186:	02 2e                	add    ch,BYTE PTR [esi]
  40a188:	1b 00                	sbb    eax,DWORD PTR [eax]
  40a18a:	00 24 63             	add    BYTE PTR [ebx+eiz*2],ah
  40a18d:	62 00                	bound  eax,QWORD PTR [eax]
  40a18f:	0c a3                	or     al,0xa3
  40a191:	02 6a 08             	add    ch,BYTE PTR [edx+0x8]
  40a194:	00 00                	add    BYTE PTR [eax],al
  40a196:	02 23                	add    ah,BYTE PTR [ebx]
  40a198:	00 24 6e             	add    BYTE PTR [esi+ebp*2],ah
  40a19b:	65                   	gs
  40a19c:	78 74                	js     40a212 <.debug_info+0x1b96>
  40a19e:	00 0c a4             	add    BYTE PTR [esp+eiz*4],cl
  40a1a1:	02 2e                	add    ch,BYTE PTR [esi]
  40a1a3:	1b 00                	sbb    eax,DWORD PTR [eax]
  40a1a5:	00 02                	add    BYTE PTR [edx],al
  40a1a7:	23 04 00             	and    eax,DWORD PTR [eax+eax*1]
  40a1aa:	0c 04                	or     al,0x4
  40a1ac:	fd                   	std    
  40a1ad:	1a 00                	sbb    al,BYTE PTR [eax]
  40a1af:	00 0c 04             	add    BYTE PTR [esp+eax*1],cl
  40a1b2:	fd                   	std    
  40a1b3:	1a 00                	sbb    al,BYTE PTR [eax]
  40a1b5:	00 03                	add    BYTE PTR [ebx],al
  40a1b7:	4d                   	dec    ebp
  40a1b8:	61                   	popa   
  40a1b9:	69 6e 46 75 6e 63 00 	imul   ebp,DWORD PTR [esi+0x46],0x636e75
  40a1c0:	0d 11 66 18 00       	or     eax,0x186611
  40a1c5:	00 2d 73 74 64 00    	add    BYTE PTR ds:0x647473,ch
  40a1cb:	14 00                	adc    al,0x0
  40a1cd:	70 1b                	jo     40a1ea <.debug_info+0x1b6e>
  40a1cf:	00 00                	add    BYTE PTR [eax],al
  40a1d1:	2e                   	cs
  40a1d2:	0e                   	push   cs
  40a1d3:	33 39                	xor    edi,DWORD PTR [ecx]
  40a1d5:	02 00                	add    al,BYTE PTR [eax]
  40a1d7:	00 2e                	add    BYTE PTR [esi],ch
  40a1d9:	0e                   	push   cs
  40a1da:	34 4a                	xor    al,0x4a
  40a1dc:	02 00                	add    al,BYTE PTR [eax]
  40a1de:	00 2f                	add    BYTE PTR [edi],ch
  40a1e0:	6e                   	outs   dx,BYTE PTR ds:[esi]
  40a1e1:	6f                   	outs   dx,DWORD PTR ds:[esi]
  40a1e2:	74 68                	je     40a24c <.debug_info+0x1bd0>
  40a1e4:	72 6f                	jb     40a255 <.debug_info+0x1bd9>
  40a1e6:	77 5f                	ja     40a247 <.debug_info+0x1bcb>
  40a1e8:	74 00                	je     40a1ea <.debug_info+0x1b6e>
  40a1ea:	01 00                	add    DWORD PTR [eax],eax
  40a1ec:	30 63 1b             	xor    BYTE PTR [ebx+0x1b],ah
  40a1ef:	00 00                	add    BYTE PTR [eax],al
  40a1f1:	01 15 45 20 60 01    	add    DWORD PTR ds:0x1602045,edx
  40a1f7:	00 00                	add    BYTE PTR [eax],al
  40a1f9:	8c 1b                	mov    WORD PTR [ebx],ds
  40a1fb:	00 00                	add    BYTE PTR [eax],al
  40a1fd:	12 4a 02             	adc    cl,BYTE PTR [edx+0x2]
  40a200:	00 00                	add    BYTE PTR [eax],al
  40a202:	12 8c 1b 00 00 00 1a 	adc    cl,BYTE PTR [ebx+ebx*1+0x1a000000]
  40a209:	04 92                	add    al,0x92
  40a20b:	1b 00                	sbb    eax,DWORD PTR [eax]
  40a20d:	00 19                	add    BYTE PTR [ecx],bl
  40a20f:	70 1b                	jo     40a22c <.debug_info+0x1bb0>
  40a211:	00 00                	add    BYTE PTR [eax],al
  40a213:	0c 04                	or     al,0x4
  40a215:	78 1b                	js     40a232 <.debug_info+0x1bb6>
  40a217:	00 00                	add    BYTE PTR [eax],al
  40a219:	27                   	daa    
  40a21a:	ad                   	lods   eax,DWORD PTR ds:[esi]
  40a21b:	1b 00                	sbb    eax,DWORD PTR [eax]
  40a21d:	00 12                	add    BYTE PTR [edx],dl
  40a21f:	60                   	pusha  
  40a220:	01 00                	add    DWORD PTR [eax],eax
  40a222:	00 12                	add    BYTE PTR [edx],dl
  40a224:	8c 1b                	mov    WORD PTR [ebx],ds
  40a226:	00 00                	add    BYTE PTR [eax],al
  40a228:	00 0c 04             	add    BYTE PTR [esp+eax*1],cl
  40a22b:	9d                   	popf   
  40a22c:	1b 00                	sbb    eax,DWORD PTR [eax]
  40a22e:	00 31                	add    BYTE PTR [ecx],dh
  40a230:	01 5f 63             	add    DWORD PTR [edi+0x63],ebx
  40a233:	79 67                	jns    40a29c <.debug_info+0x1c20>
  40a235:	77 69                	ja     40a2a0 <.debug_info+0x1c24>
  40a237:	6e                   	outs   dx,BYTE PTR ds:[esi]
  40a238:	5f                   	pop    edi
  40a239:	63 72 74             	arpl   WORD PTR [edx+0x74],si
  40a23c:	30 5f 63             	xor    BYTE PTR [edi+0x63],bl
  40a23f:	6f                   	outs   dx,DWORD PTR ds:[esi]
  40a240:	6d                   	ins    DWORD PTR es:[edi],dx
  40a241:	6d                   	ins    DWORD PTR es:[edi],dx
  40a242:	6f                   	outs   dx,DWORD PTR ds:[esi]
  40a243:	6e                   	outs   dx,BYTE PTR ds:[esi]
  40a244:	00 01                	add    BYTE PTR [ecx],al
  40a246:	45                   	inc    ebp
  40a247:	5f                   	pop    edi
  40a248:	63 79 67             	arpl   WORD PTR [ecx+0x67],di
  40a24b:	77 69                	ja     40a2b6 <.debug_info+0x1c3a>
  40a24d:	6e                   	outs   dx,BYTE PTR ds:[esi]
  40a24e:	5f                   	pop    edi
  40a24f:	63 72 74             	arpl   WORD PTR [edx+0x74],si
  40a252:	30 5f 63             	xor    BYTE PTR [edi+0x63],bl
  40a255:	6f                   	outs   dx,DWORD PTR ds:[esi]
  40a256:	6d                   	ins    DWORD PTR es:[edi],dx
  40a257:	6d                   	ins    DWORD PTR es:[edi],dx
  40a258:	6f                   	outs   dx,DWORD PTR ds:[esi]
  40a259:	6e                   	outs   dx,BYTE PTR ds:[esi]
  40a25a:	40                   	inc    eax
  40a25b:	38 00                	cmp    BYTE PTR [eax],al
  40a25d:	0f 01 00             	sgdtd  [eax]
  40a260:	00 b0 12 40 00 bc    	add    BYTE PTR [eax-0x43ffbfee],dh
  40a266:	15 40 00 44 01       	adc    eax,0x1440040
  40a26b:	00 00                	add    BYTE PTR [eax],al
  40a26d:	39 1c 00             	cmp    DWORD PTR [eax+eax*1],ebx
  40a270:	00 32                	add    BYTE PTR [edx],dh
  40a272:	66                   	data16
  40a273:	00 01                	add    BYTE PTR [ecx],al
  40a275:	45                   	inc    ebp
  40a276:	3a 1b                	cmp    bl,BYTE PTR [ebx]
  40a278:	00 00                	add    BYTE PTR [eax],al
  40a27a:	02 91 00 33 75 00    	add    dl,BYTE PTR [ecx+0x753300]
  40a280:	01 45 39             	add    DWORD PTR [ebp+0x39],eax
  40a283:	1c 00                	sbb    al,0x0
  40a285:	00 88 01 00 00 34    	add    BYTE PTR [eax+0x34000001],cl
  40a28b:	00 00                	add    BYTE PTR [eax],al
  40a28d:	00 00                	add    BYTE PTR [eax],al
  40a28f:	35 6e 65 77 75       	xor    eax,0x7577656e
  40a294:	00 01                	add    BYTE PTR [ecx],al
  40a296:	47                   	inc    edi
  40a297:	39 1c 00             	cmp    DWORD PTR [eax+eax*1],ebx
  40a29a:	00 bd 01 00 00 35    	add    BYTE PTR [ebp+0x35000001],bh
  40a2a0:	75 77                	jne    40a319 <.debug_info+0x1c9d>
  40a2a2:	61                   	popa   
  40a2a3:	73 6e                	jae    40a313 <.debug_info+0x1c97>
  40a2a5:	75 6c                	jne    40a313 <.debug_info+0x1c97>
  40a2a7:	6c                   	ins    BYTE PTR es:[edi],dx
  40a2a8:	00 01                	add    BYTE PTR [ecx],al
  40a2aa:	48                   	dec    eax
  40a2ab:	e4 05                	in     al,0x5
  40a2ad:	00 00                	add    BYTE PTR [eax],al
  40a2af:	e6 01                	out    0x1,al
  40a2b1:	00 00                	add    BYTE PTR [eax],al
  40a2b3:	00 00                	add    BYTE PTR [eax],al
  40a2b5:	0c 04                	or     al,0x4
  40a2b7:	5e                   	pop    esi
  40a2b8:	15 00 00 36 00       	adc    eax,0x360000
  40a2bd:	00 00                	add    BYTE PTR [eax],al
  40a2bf:	00 06                	add    BYTE PTR [esi],al
  40a2c1:	3a b8 02 00 00 01    	cmp    bh,BYTE PTR [eax+0x1000002]
  40a2c7:	01 37                	add    DWORD PTR [edi],esi
  40a2c9:	5f                   	pop    edi
  40a2ca:	69 6d 70 75 72 65 5f 	imul   ebp,DWORD PTR [ebp+0x70],0x5f657275
  40a2d1:	70 74                	jo     40a347 <.debug_info+0x1ccb>
  40a2d3:	72 00                	jb     40a2d5 <.debug_info+0x1c59>
  40a2d5:	01 29                	add    DWORD PTR [ecx],ebp
  40a2d7:	c4 08                	les    ecx,FWORD PTR [eax]
  40a2d9:	00 00                	add    BYTE PTR [eax],al
  40a2db:	01 01                	add    DWORD PTR [ecx],eax
  40a2dd:	38 5f 64             	cmp    BYTE PTR [edi+0x64],bl
  40a2e0:	61                   	popa   
  40a2e1:	74 61                	je     40a344 <.debug_info+0x1cc8>
  40a2e3:	5f                   	pop    edi
  40a2e4:	73 74                	jae    40a35a <.debug_info+0x1cde>
  40a2e6:	61                   	popa   
  40a2e7:	72 74                	jb     40a35d <.debug_info+0x1ce1>
  40a2e9:	5f                   	pop    edi
  40a2ea:	5f                   	pop    edi
  40a2eb:	00 0f                	add    BYTE PTR [edi],cl
  40a2ed:	25 01 73 02 00       	and    eax,0x27301
  40a2f2:	00 01                	add    BYTE PTR [ecx],al
  40a2f4:	01 38                	add    DWORD PTR [eax],edi
  40a2f6:	5f                   	pop    edi
  40a2f7:	64                   	fs
  40a2f8:	61                   	popa   
  40a2f9:	74 61                	je     40a35c <.debug_info+0x1ce0>
  40a2fb:	5f                   	pop    edi
  40a2fc:	65 6e                	outs   dx,BYTE PTR gs:[esi]
  40a2fe:	64                   	fs
  40a2ff:	5f                   	pop    edi
  40a300:	5f                   	pop    edi
  40a301:	00 0f                	add    BYTE PTR [edi],cl
  40a303:	25 01 73 02 00       	and    eax,0x27301
  40a308:	00 01                	add    BYTE PTR [ecx],al
  40a30a:	01 38                	add    DWORD PTR [eax],edi
  40a30c:	5f                   	pop    edi
  40a30d:	62 73 73             	bound  esi,QWORD PTR [ebx+0x73]
  40a310:	5f                   	pop    edi
  40a311:	73 74                	jae    40a387 <.debug_info+0x1d0b>
  40a313:	61                   	popa   
  40a314:	72 74                	jb     40a38a <.debug_info+0x1d0e>
  40a316:	5f                   	pop    edi
  40a317:	5f                   	pop    edi
  40a318:	00 0f                	add    BYTE PTR [edi],cl
  40a31a:	25 01 73 02 00       	and    eax,0x27301
  40a31f:	00 01                	add    BYTE PTR [ecx],al
  40a321:	01 38                	add    DWORD PTR [eax],edi
  40a323:	5f                   	pop    edi
  40a324:	62 73 73             	bound  esi,QWORD PTR [ebx+0x73]
  40a327:	5f                   	pop    edi
  40a328:	65 6e                	outs   dx,BYTE PTR gs:[esi]
  40a32a:	64                   	fs
  40a32b:	5f                   	pop    edi
  40a32c:	5f                   	pop    edi
  40a32d:	00 0f                	add    BYTE PTR [edi],cl
  40a32f:	25 01 73 02 00       	and    eax,0x27301
  40a334:	00 01                	add    BYTE PTR [ecx],al
  40a336:	01 38                	add    DWORD PTR [eax],edi
  40a338:	5f                   	pop    edi
  40a339:	5f                   	pop    edi
  40a33a:	43                   	inc    ebx
  40a33b:	54                   	push   esp
  40a33c:	4f                   	dec    edi
  40a33d:	52                   	push   edx
  40a33e:	5f                   	pop    edi
  40a33f:	4c                   	dec    esp
  40a340:	49                   	dec    ecx
  40a341:	53                   	push   ebx
  40a342:	54                   	push   esp
  40a343:	5f                   	pop    edi
  40a344:	5f                   	pop    edi
  40a345:	00 0f                	add    BYTE PTR [edi],cl
  40a347:	26 01 6a 08          	add    DWORD PTR es:[edx+0x8],ebp
  40a34b:	00 00                	add    BYTE PTR [eax],al
  40a34d:	01 01                	add    DWORD PTR [ecx],eax
  40a34f:	38 5f 5f             	cmp    BYTE PTR [edi+0x5f],bl
  40a352:	44                   	inc    esp
  40a353:	54                   	push   esp
  40a354:	4f                   	dec    edi
  40a355:	52                   	push   edx
  40a356:	5f                   	pop    edi
  40a357:	4c                   	dec    esp
  40a358:	49                   	dec    ecx
  40a359:	53                   	push   ebx
  40a35a:	54                   	push   esp
  40a35b:	5f                   	pop    edi
  40a35c:	5f                   	pop    edi
  40a35d:	00 0f                	add    BYTE PTR [edi],cl
  40a35f:	27                   	daa    
  40a360:	01 6a 08             	add    DWORD PTR [edx+0x8],ebp
  40a363:	00 00                	add    BYTE PTR [eax],al
  40a365:	01 01                	add    DWORD PTR [ecx],eax
  40a367:	38 73 65             	cmp    BYTE PTR [ebx+0x65],dh
  40a36a:	63 5f 6e             	arpl   WORD PTR [edi+0x6e],bx
  40a36d:	6f                   	outs   dx,DWORD PTR ds:[esi]
  40a36e:	6e                   	outs   dx,BYTE PTR ds:[esi]
  40a36f:	65                   	gs
  40a370:	5f                   	pop    edi
  40a371:	6e                   	outs   dx,BYTE PTR ds:[esi]
  40a372:	69 68 00 10 da 01 18 	imul   ebp,DWORD PTR [eax+0x0],0x1801da10
  40a379:	11 00                	adc    DWORD PTR [eax],eax
  40a37b:	00 01                	add    BYTE PTR [ecx],al
  40a37d:	01 39                	add    DWORD PTR [ecx],edi
  40a37f:	43                   	inc    ebx
  40a380:	59                   	pop    ecx
  40a381:	47                   	inc    edi
  40a382:	54                   	push   esp
  40a383:	4c                   	dec    esp
  40a384:	53                   	push   ebx
  40a385:	5f                   	pop    edi
  40a386:	50                   	push   eax
  40a387:	41                   	inc    ecx
  40a388:	44                   	inc    esp
  40a389:	53                   	push   ebx
  40a38a:	49                   	dec    ecx
  40a38b:	5a                   	pop    edx
  40a38c:	45                   	inc    ebp
  40a38d:	00 11                	add    BYTE PTR [ecx],dl
  40a38f:	07                   	pop    es
  40a390:	01 1b                	add    DWORD PTR [ebx],ebx
  40a392:	1d 00 00 9c 31       	sbb    eax,0x319c0000
  40a397:	19 0f                	sbb    DWORD PTR [edi],ecx
  40a399:	01 00                	add    DWORD PTR [eax],eax
  40a39b:	00 3a                	add    BYTE PTR [edx],bh
  40a39d:	5f                   	pop    edi
  40a39e:	74 6c                	je     40a40c <.debug_info+0x1d90>
  40a3a0:	73 62                	jae    40a404 <.debug_info+0x1d88>
  40a3a2:	61                   	popa   
  40a3a3:	73 65                	jae    40a40a <.debug_info+0x1d8e>
  40a3a5:	00 11                	add    BYTE PTR [ecx],dl
  40a3a7:	0b 01                	or     eax,DWORD PTR [ecx]
  40a3a9:	2a 25 66 73 3a 34    	sub    ah,BYTE PTR ds:0x343a7366
  40a3af:	00 6d 02             	add    BYTE PTR [ebp+0x2],ch
  40a3b2:	00 00                	add    BYTE PTR [eax],al
  40a3b4:	01 01                	add    DWORD PTR [ecx],eax
  40a3b6:	3b 63 77             	cmp    esp,DWORD PTR [ebx+0x77]
  40a3b9:	5f                   	pop    edi
  40a3ba:	73 74                	jae    40a430 <.debug_info+0x1db4>
  40a3bc:	64                   	fs
  40a3bd:	5f                   	pop    edi
  40a3be:	6d                   	ins    DWORD PTR es:[edi],dx
  40a3bf:	61                   	popa   
  40a3c0:	73 6b                	jae    40a42d <.debug_info+0x1db1>
  40a3c2:	00 12                	add    BYTE PTR [edx],dl
  40a3c4:	1d 4e 1d 00 00       	sbb    eax,0x1d4e
  40a3c9:	07                   	pop    es
  40a3ca:	19 16                	sbb    DWORD PTR [esi],edx
  40a3cc:	01 00                	add    DWORD PTR [eax],eax
  40a3ce:	00 37                	add    BYTE PTR [edi],dh
  40a3d0:	68 50 72 6f 63       	push   0x636f7250
  40a3d5:	49                   	dec    ecx
  40a3d6:	6d                   	ins    DWORD PTR es:[edi],dx
  40a3d7:	70 54                	jo     40a42d <.debug_info+0x1db1>
  40a3d9:	6f                   	outs   dx,DWORD PTR ds:[esi]
  40a3da:	6b 65 6e 00          	imul   esp,DWORD PTR [ebp+0x6e],0x0
  40a3de:	13 0d 9e 10 00 00    	adc    ecx,DWORD PTR ds:0x109e
  40a3e4:	01 01                	add    DWORD PTR [ecx],eax
  40a3e6:	37                   	aaa    
  40a3e7:	5f                   	pop    edi
  40a3e8:	5f                   	pop    edi
  40a3e9:	64                   	fs
  40a3ea:	79 6e                	jns    40a45a <.debug_info+0x1dde>
  40a3ec:	61                   	popa   
  40a3ed:	6d                   	ins    DWORD PTR es:[edi],dx
  40a3ee:	69 63 61 6c 6c 79 5f 	imul   esp,DWORD PTR [ebx+0x61],0x5f796c6c
  40a3f5:	6c                   	ins    BYTE PTR es:[edi],dx
  40a3f6:	6f                   	outs   dx,DWORD PTR ds:[esi]
  40a3f7:	61                   	popa   
  40a3f8:	64 65 64 00 01       	fs gs add BYTE PTR fs:gs:[ecx],al
  40a3fd:	2c 0f                	sub    al,0xf
  40a3ff:	01 00                	add    DWORD PTR [eax],eax
  40a401:	00 01                	add    BYTE PTR [ecx],al
  40a403:	01 3c 65 6e 76 69 72 	add    DWORD PTR [eiz*2+0x7269766e],edi
  40a40a:	6f                   	outs   dx,DWORD PTR ds:[esi]
  40a40b:	6e                   	outs   dx,BYTE PTR ds:[esi]
  40a40c:	00 01                	add    BYTE PTR [ecx],al
  40a40e:	32 8f 11 00 00 01    	xor    cl,BYTE PTR [edi+0x1000011]
  40a414:	05 03 00 30 40       	add    eax,0x40300003
  40a419:	00 3c 5f             	add    BYTE PTR [edi+ebx*2],bh
  40a41c:	66 6d                	ins    WORD PTR es:[edi],dx
  40a41e:	6f                   	outs   dx,DWORD PTR ds:[esi]
  40a41f:	64 65 00 01          	fs add BYTE PTR fs:gs:[ecx],al
  40a423:	33 0f                	xor    ecx,DWORD PTR [edi]
  40a425:	01 00                	add    DWORD PTR [eax],eax
  40a427:	00 01                	add    BYTE PTR [ecx],al
  40a429:	05 03 04 30 40       	add    eax,0x40300403
  40a42e:	00 37                	add    BYTE PTR [edi],dh
  40a430:	5f                   	pop    edi
  40a431:	5f                   	pop    edi
  40a432:	52                   	push   edx
  40a433:	55                   	push   ebp
  40a434:	4e                   	dec    esi
  40a435:	54                   	push   esp
  40a436:	49                   	dec    ecx
  40a437:	4d                   	dec    ebp
  40a438:	45                   	inc    ebp
  40a439:	5f                   	pop    edi
  40a43a:	50                   	push   eax
  40a43b:	53                   	push   ebx
  40a43c:	45                   	inc    ebp
  40a43d:	55                   	push   ebp
  40a43e:	44                   	inc    esp
  40a43f:	4f                   	dec    edi
  40a440:	5f                   	pop    edi
  40a441:	52                   	push   edx
  40a442:	45                   	inc    ebp
  40a443:	4c                   	dec    esp
  40a444:	4f                   	dec    edi
  40a445:	43                   	inc    ebx
  40a446:	5f                   	pop    edi
  40a447:	4c                   	dec    esp
  40a448:	49                   	dec    ecx
  40a449:	53                   	push   ebx
  40a44a:	54                   	push   esp
  40a44b:	5f                   	pop    edi
  40a44c:	5f                   	pop    edi
  40a44d:	00 01                	add    BYTE PTR [ecx],al
  40a44f:	35 73 02 00 00       	xor    eax,0x273
  40a454:	01 01                	add    DWORD PTR [ecx],eax
  40a456:	37                   	aaa    
  40a457:	5f                   	pop    edi
  40a458:	5f                   	pop    edi
  40a459:	52                   	push   edx
  40a45a:	55                   	push   ebp
  40a45b:	4e                   	dec    esi
  40a45c:	54                   	push   esp
  40a45d:	49                   	dec    ecx
  40a45e:	4d                   	dec    ebp
  40a45f:	45                   	inc    ebp
  40a460:	5f                   	pop    edi
  40a461:	50                   	push   eax
  40a462:	53                   	push   ebx
  40a463:	45                   	inc    ebp
  40a464:	55                   	push   ebp
  40a465:	44                   	inc    esp
  40a466:	4f                   	dec    edi
  40a467:	5f                   	pop    edi
  40a468:	52                   	push   edx
  40a469:	45                   	inc    ebp
  40a46a:	4c                   	dec    esp
  40a46b:	4f                   	dec    edi
  40a46c:	43                   	inc    ebx
  40a46d:	5f                   	pop    edi
  40a46e:	4c                   	dec    esp
  40a46f:	49                   	dec    ecx
  40a470:	53                   	push   ebx
  40a471:	54                   	push   esp
  40a472:	5f                   	pop    edi
  40a473:	45                   	inc    ebp
  40a474:	4e                   	dec    esi
  40a475:	44                   	inc    esp
  40a476:	5f                   	pop    edi
  40a477:	5f                   	pop    edi
  40a478:	00 01                	add    BYTE PTR [ecx],al
  40a47a:	36                   	ss
  40a47b:	73 02                	jae    40a47f <.debug_info+0x1e03>
  40a47d:	00 00                	add    BYTE PTR [eax],al
  40a47f:	01 01                	add    DWORD PTR [ecx],eax
  40a481:	37                   	aaa    
  40a482:	5f                   	pop    edi
  40a483:	69 6d 61 67 65 5f 62 	imul   ebp,DWORD PTR [ebp+0x61],0x625f6567
  40a48a:	61                   	popa   
  40a48b:	73 65                	jae    40a4f2 <.debug_info+0x37>
  40a48d:	5f                   	pop    edi
  40a48e:	5f                   	pop    edi
  40a48f:	00 01                	add    BYTE PTR [ecx],al
  40a491:	37                   	aaa    
  40a492:	73 02                	jae    40a496 <.debug_info+0x1e1a>
  40a494:	00 00                	add    BYTE PTR [eax],al
  40a496:	01 01                	add    DWORD PTR [ecx],eax
  40a498:	3c 5f                	cmp    al,0x5f
  40a49a:	5f                   	pop    edi
  40a49b:	63 79 67             	arpl   WORD PTR [ecx+0x67],di
  40a49e:	77 69                	ja     40a509 <.debug_info+0x4e>
  40a4a0:	6e                   	outs   dx,BYTE PTR ds:[esi]
  40a4a1:	5f                   	pop    edi
  40a4a2:	63 78 78             	arpl   WORD PTR [eax+0x78],di
  40a4a5:	5f                   	pop    edi
  40a4a6:	6d                   	ins    DWORD PTR es:[edi],dx
  40a4a7:	61                   	popa   
  40a4a8:	6c                   	ins    BYTE PTR es:[edi],dx
  40a4a9:	6c                   	ins    BYTE PTR es:[edi],dx
  40a4aa:	6f                   	outs   dx,DWORD PTR ds:[esi]
  40a4ab:	63 00                	arpl   WORD PTR [eax],ax
  40a4ad:	01 39                	add    DWORD PTR [ecx],edi
  40a4af:	cd 18                	int    0x18
  40a4b1:	00 00                	add    BYTE PTR [eax],al
  40a4b3:	01 05 03 00 20 40    	add    DWORD PTR ds:0x40200003,eax
	...

0040a4bb <.debug_info>:
  40a4bb:	d6                   	(bad)  
  40a4bc:	05 00 00 02 00       	add    eax,0x20000
  40a4c1:	0d 05 00 00 04       	or     eax,0x4000005
  40a4c6:	01 47 4e             	add    DWORD PTR [edi+0x4e],eax
  40a4c9:	55                   	push   ebp
  40a4ca:	20 43 20             	and    BYTE PTR [ebx+0x20],al
  40a4cd:	34 2e                	xor    al,0x2e
  40a4cf:	35 2e 33 20 32       	xor    eax,0x3220332e
  40a4d4:	30 31                	xor    BYTE PTR [ecx],dh
  40a4d6:	31 30                	xor    DWORD PTR [eax],esi
  40a4d8:	34 32                	xor    al,0x32
  40a4da:	38 20                	cmp    BYTE PTR [eax],ah
  40a4dc:	28 46 65             	sub    BYTE PTR [esi+0x65],al
  40a4df:	64 6f                	outs   dx,DWORD PTR fs:[esi]
  40a4e1:	72 61                	jb     40a544 <.debug_info+0x89>
  40a4e3:	20 43 79             	and    BYTE PTR [ebx+0x79],al
  40a4e6:	67 77 69             	addr16 ja 40a552 <.debug_info+0x97>
  40a4e9:	6e                   	outs   dx,BYTE PTR ds:[esi]
  40a4ea:	20 34 2e             	and    BYTE PTR [esi+ebp*1],dh
  40a4ed:	35 2e 33 2d 34       	xor    eax,0x342d332e
  40a4f2:	29 00                	sub    DWORD PTR [eax],eax
  40a4f4:	01 2f                	add    DWORD PTR [edi],ebp
  40a4f6:	75 73                	jne    40a56b <.debug_info+0xb0>
  40a4f8:	72 2f                	jb     40a529 <.debug_info+0x6e>
  40a4fa:	73 72                	jae    40a56e <.debug_info+0xb3>
  40a4fc:	63 2f                	arpl   WORD PTR [edi],bp
  40a4fe:	64 65 62 75 67       	fs bound esi,QWORD PTR fs:gs:[ebp+0x67]
  40a503:	2f                   	das    
  40a504:	63 79 67             	arpl   WORD PTR [ecx+0x67],di
  40a507:	77 69                	ja     40a572 <.debug_info+0xb7>
  40a509:	6e                   	outs   dx,BYTE PTR ds:[esi]
  40a50a:	2d 31 2e 37 2e       	sub    eax,0x2e372e31
  40a50f:	31 37                	xor    DWORD PTR [edi],esi
  40a511:	2d 31 2f 77 69       	sub    eax,0x69772f31
  40a516:	6e                   	outs   dx,BYTE PTR ds:[esi]
  40a517:	73 75                	jae    40a58e <.debug_info+0xd3>
  40a519:	70 2f                	jo     40a54a <.debug_info+0x8f>
  40a51b:	63 79 67             	arpl   WORD PTR [ecx+0x67],di
  40a51e:	77 69                	ja     40a589 <.debug_info+0xce>
  40a520:	6e                   	outs   dx,BYTE PTR ds:[esi]
  40a521:	2f                   	das    
  40a522:	6c                   	ins    BYTE PTR es:[edi],dx
  40a523:	69 62 2f 64 6c 6c 5f 	imul   esp,DWORD PTR [edx+0x2f],0x5f6c6c64
  40a52a:	65 6e                	outs   dx,BYTE PTR gs:[esi]
  40a52c:	74 72                	je     40a5a0 <.debug_info+0xe5>
  40a52e:	79 2e                	jns    40a55e <.debug_info+0xa3>
  40a530:	63 00                	arpl   WORD PTR [eax],ax
  40a532:	c0 15 40 00 dc 16 40 	rcl    BYTE PTR ds:0x16dc0040,0x40
  40a539:	00 cd                	add    ch,cl
  40a53b:	05 00 00 02 01       	add    eax,0x1020000
  40a540:	06                   	push   es
  40a541:	63 68 61             	arpl   WORD PTR [eax+0x61],bp
  40a544:	72 00                	jb     40a546 <.debug_info+0x8b>
  40a546:	03 44 57 4f          	add    eax,DWORD PTR [edi+edx*2+0x4f]
  40a54a:	52                   	push   edx
  40a54b:	44                   	inc    esp
  40a54c:	00 02                	add    BYTE PTR [edx],al
  40a54e:	e1 98                	loope  40a4e8 <.debug_info+0x2d>
  40a550:	00 00                	add    BYTE PTR [eax],al
  40a552:	00 02                	add    BYTE PTR [edx],al
  40a554:	04 07                	add    al,0x7
  40a556:	6c                   	ins    BYTE PTR es:[edi],dx
  40a557:	6f                   	outs   dx,DWORD PTR ds:[esi]
  40a558:	6e                   	outs   dx,BYTE PTR ds:[esi]
  40a559:	67 20 75 6e          	and    BYTE PTR [di+0x6e],dh
  40a55d:	73 69                	jae    40a5c8 <.debug_info+0x10d>
  40a55f:	67 6e                	outs   dx,BYTE PTR ds:[si]
  40a561:	65 64 20 69 6e       	gs and BYTE PTR fs:gs:[ecx+0x6e],ch
  40a566:	74 00                	je     40a568 <.debug_info+0xad>
  40a568:	02 04 05 69 6e 74 00 	add    al,BYTE PTR [eax*1+0x746e69]
  40a56f:	02 01                	add    al,BYTE PTR [ecx]
  40a571:	08 75 6e             	or     BYTE PTR [ebp+0x6e],dh
  40a574:	73 69                	jae    40a5df <.debug_info+0x124>
  40a576:	67 6e                	outs   dx,BYTE PTR ds:[si]
  40a578:	65 64 20 63 68       	gs and BYTE PTR fs:gs:[ebx+0x68],ah
  40a57d:	61                   	popa   
  40a57e:	72 00                	jb     40a580 <.debug_info+0xc5>
  40a580:	02 02                	add    al,BYTE PTR [edx]
  40a582:	07                   	pop    es
  40a583:	73 68                	jae    40a5ed <.debug_info+0x132>
  40a585:	6f                   	outs   dx,DWORD PTR ds:[esi]
  40a586:	72 74                	jb     40a5fc <.debug_info+0x141>
  40a588:	20 75 6e             	and    BYTE PTR [ebp+0x6e],dh
  40a58b:	73 69                	jae    40a5f6 <.debug_info+0x13b>
  40a58d:	67 6e                	outs   dx,BYTE PTR ds:[si]
  40a58f:	65 64 20 69 6e       	gs and BYTE PTR fs:gs:[ecx+0x6e],ch
  40a594:	74 00                	je     40a596 <.debug_info+0xdb>
  40a596:	02 04 04             	add    al,BYTE PTR [esp+eax*1]
  40a599:	66                   	data16
  40a59a:	6c                   	ins    BYTE PTR es:[edi],dx
  40a59b:	6f                   	outs   dx,DWORD PTR ds:[esi]
  40a59c:	61                   	popa   
  40a59d:	74 00                	je     40a59f <.debug_info+0xe4>
  40a59f:	02 04 05 6c 6f 6e 67 	add    al,BYTE PTR [eax*1+0x676e6f6c]
  40a5a6:	20 69 6e             	and    BYTE PTR [ecx+0x6e],ch
  40a5a9:	74 00                	je     40a5ab <.debug_info+0xf0>
  40a5ab:	02 04 07             	add    al,BYTE PTR [edi+eax*1]
  40a5ae:	75 6e                	jne    40a61e <.debug_info+0x163>
  40a5b0:	73 69                	jae    40a61b <.debug_info+0x160>
  40a5b2:	67 6e                	outs   dx,BYTE PTR ds:[si]
  40a5b4:	65 64 20 69 6e       	gs and BYTE PTR fs:gs:[ecx+0x6e],ch
  40a5b9:	74 00                	je     40a5bb <.debug_info+0x100>
  40a5bb:	02 01                	add    al,BYTE PTR [ecx]
  40a5bd:	06                   	push   es
  40a5be:	73 69                	jae    40a629 <.debug_info+0x16e>
  40a5c0:	67 6e                	outs   dx,BYTE PTR ds:[si]
  40a5c2:	65 64 20 63 68       	gs and BYTE PTR fs:gs:[ebx+0x68],ah
  40a5c7:	61                   	popa   
  40a5c8:	72 00                	jb     40a5ca <.debug_info+0x10f>
  40a5ca:	02 02                	add    al,BYTE PTR [edx]
  40a5cc:	05 73 68 6f 72       	add    eax,0x726f6873
  40a5d1:	74 20                	je     40a5f3 <.debug_info+0x138>
  40a5d3:	69 6e 74 00 02 08 05 	imul   ebp,DWORD PTR [esi+0x74],0x5080200
  40a5da:	6c                   	ins    BYTE PTR es:[edi],dx
  40a5db:	6f                   	outs   dx,DWORD PTR ds:[esi]
  40a5dc:	6e                   	outs   dx,BYTE PTR ds:[esi]
  40a5dd:	67 20 6c 6f          	and    BYTE PTR [si+0x6f],ch
  40a5e1:	6e                   	outs   dx,BYTE PTR ds:[esi]
  40a5e2:	67 20 69 6e          	and    BYTE PTR [bx+di+0x6e],ch
  40a5e6:	74 00                	je     40a5e8 <.debug_info+0x12d>
  40a5e8:	02 08                	add    cl,BYTE PTR [eax]
  40a5ea:	07                   	pop    es
  40a5eb:	6c                   	ins    BYTE PTR es:[edi],dx
  40a5ec:	6f                   	outs   dx,DWORD PTR ds:[esi]
  40a5ed:	6e                   	outs   dx,BYTE PTR ds:[esi]
  40a5ee:	67 20 6c 6f          	and    BYTE PTR [si+0x6f],ch
  40a5f2:	6e                   	outs   dx,BYTE PTR ds:[esi]
  40a5f3:	67 20 75 6e          	and    BYTE PTR [di+0x6e],dh
  40a5f7:	73 69                	jae    40a662 <.debug_info+0x1a7>
  40a5f9:	67 6e                	outs   dx,BYTE PTR ds:[si]
  40a5fb:	65 64 20 69 6e       	gs and BYTE PTR fs:gs:[ecx+0x6e],ch
  40a600:	74 00                	je     40a602 <.debug_info+0x147>
  40a602:	04 04                	add    al,0x4
  40a604:	05 04 83 00 00       	add    eax,0x8304
  40a609:	00 06                	add    BYTE PTR [esi],al
  40a60b:	48                   	dec    eax
  40a60c:	49                   	dec    ecx
  40a60d:	4e                   	dec    esi
  40a60e:	53                   	push   ebx
  40a60f:	54                   	push   esp
  40a610:	41                   	inc    ecx
  40a611:	4e                   	dec    esi
  40a612:	43                   	inc    ebx
  40a613:	45                   	inc    ebp
  40a614:	5f                   	pop    edi
  40a615:	5f                   	pop    edi
  40a616:	00 04 02             	add    BYTE PTR [edx+eax*1],al
  40a619:	1f                   	pop    ds
  40a61a:	01 72 01             	add    DWORD PTR [edx+0x1],esi
  40a61d:	00 00                	add    BYTE PTR [eax],al
  40a61f:	07                   	pop    es
  40a620:	69 00 02 1f 01 ad    	imul   eax,DWORD PTR [eax],0xad011f02
  40a626:	00 00                	add    BYTE PTR [eax],al
  40a628:	00 02                	add    BYTE PTR [edx],al
  40a62a:	23 00                	and    eax,DWORD PTR [eax]
  40a62c:	00 08                	add    BYTE PTR [eax],cl
  40a62e:	48                   	dec    eax
  40a62f:	49                   	dec    ecx
  40a630:	4e                   	dec    esi
  40a631:	53                   	push   ebx
  40a632:	54                   	push   esp
  40a633:	41                   	inc    ecx
  40a634:	4e                   	dec    esi
  40a635:	43                   	inc    ebx
  40a636:	45                   	inc    ebp
  40a637:	00 02                	add    BYTE PTR [edx],al
  40a639:	1f                   	pop    ds
  40a63a:	01 84 01 00 00 05 04 	add    DWORD PTR [ecx+eax*1+0x4050000],eax
  40a641:	4f                   	dec    edi
  40a642:	01 00                	add    DWORD PTR [eax],eax
  40a644:	00 02                	add    BYTE PTR [edx],al
  40a646:	08 04 64             	or     BYTE PTR [esp+eiz*2],al
  40a649:	6f                   	outs   dx,DWORD PTR ds:[esi]
  40a64a:	75 62                	jne    40a6ae <.debug_info+0x1f3>
  40a64c:	6c                   	ins    BYTE PTR es:[edi],dx
  40a64d:	65 00 09             	add    BYTE PTR gs:[ecx],cl
  40a650:	56                   	push   esi
  40a651:	41                   	inc    ecx
  40a652:	52                   	push   edx
  40a653:	45                   	inc    ebp
  40a654:	4e                   	dec    esi
  40a655:	55                   	push   ebp
  40a656:	4d                   	dec    ebp
  40a657:	00 04 03             	add    BYTE PTR [ebx+eax*1],al
  40a65a:	73 10                	jae    40a66c <.debug_info+0x1b1>
  40a65c:	04 00                	add    al,0x0
  40a65e:	00 0a                	add    BYTE PTR [edx],cl
  40a660:	56                   	push   esi
  40a661:	54                   	push   esp
  40a662:	5f                   	pop    edi
  40a663:	45                   	inc    ebp
  40a664:	4d                   	dec    ebp
  40a665:	50                   	push   eax
  40a666:	54                   	push   esp
  40a667:	59                   	pop    ecx
  40a668:	00 00                	add    BYTE PTR [eax],al
  40a66a:	0a 56 54             	or     dl,BYTE PTR [esi+0x54]
  40a66d:	5f                   	pop    edi
  40a66e:	4e                   	dec    esi
  40a66f:	55                   	push   ebp
  40a670:	4c                   	dec    esp
  40a671:	4c                   	dec    esp
  40a672:	00 01                	add    BYTE PTR [ecx],al
  40a674:	0a 56 54             	or     dl,BYTE PTR [esi+0x54]
  40a677:	5f                   	pop    edi
  40a678:	49                   	dec    ecx
  40a679:	32 00                	xor    al,BYTE PTR [eax]
  40a67b:	02 0a                	add    cl,BYTE PTR [edx]
  40a67d:	56                   	push   esi
  40a67e:	54                   	push   esp
  40a67f:	5f                   	pop    edi
  40a680:	49                   	dec    ecx
  40a681:	34 00                	xor    al,0x0
  40a683:	03 0a                	add    ecx,DWORD PTR [edx]
  40a685:	56                   	push   esi
  40a686:	54                   	push   esp
  40a687:	5f                   	pop    edi
  40a688:	52                   	push   edx
  40a689:	34 00                	xor    al,0x0
  40a68b:	04 0a                	add    al,0xa
  40a68d:	56                   	push   esi
  40a68e:	54                   	push   esp
  40a68f:	5f                   	pop    edi
  40a690:	52                   	push   edx
  40a691:	38 00                	cmp    BYTE PTR [eax],al
  40a693:	05 0a 56 54 5f       	add    eax,0x5f54560a
  40a698:	43                   	inc    ebx
  40a699:	59                   	pop    ecx
  40a69a:	00 06                	add    BYTE PTR [esi],al
  40a69c:	0a 56 54             	or     dl,BYTE PTR [esi+0x54]
  40a69f:	5f                   	pop    edi
  40a6a0:	44                   	inc    esp
  40a6a1:	41                   	inc    ecx
  40a6a2:	54                   	push   esp
  40a6a3:	45                   	inc    ebp
  40a6a4:	00 07                	add    BYTE PTR [edi],al
  40a6a6:	0a 56 54             	or     dl,BYTE PTR [esi+0x54]
  40a6a9:	5f                   	pop    edi
  40a6aa:	42                   	inc    edx
  40a6ab:	53                   	push   ebx
  40a6ac:	54                   	push   esp
  40a6ad:	52                   	push   edx
  40a6ae:	00 08                	add    BYTE PTR [eax],cl
  40a6b0:	0a 56 54             	or     dl,BYTE PTR [esi+0x54]
  40a6b3:	5f                   	pop    edi
  40a6b4:	44                   	inc    esp
  40a6b5:	49                   	dec    ecx
  40a6b6:	53                   	push   ebx
  40a6b7:	50                   	push   eax
  40a6b8:	41                   	inc    ecx
  40a6b9:	54                   	push   esp
  40a6ba:	43                   	inc    ebx
  40a6bb:	48                   	dec    eax
  40a6bc:	00 09                	add    BYTE PTR [ecx],cl
  40a6be:	0a 56 54             	or     dl,BYTE PTR [esi+0x54]
  40a6c1:	5f                   	pop    edi
  40a6c2:	45                   	inc    ebp
  40a6c3:	52                   	push   edx
  40a6c4:	52                   	push   edx
  40a6c5:	4f                   	dec    edi
  40a6c6:	52                   	push   edx
  40a6c7:	00 0a                	add    BYTE PTR [edx],cl
  40a6c9:	0a 56 54             	or     dl,BYTE PTR [esi+0x54]
  40a6cc:	5f                   	pop    edi
  40a6cd:	42                   	inc    edx
  40a6ce:	4f                   	dec    edi
  40a6cf:	4f                   	dec    edi
  40a6d0:	4c                   	dec    esp
  40a6d1:	00 0b                	add    BYTE PTR [ebx],cl
  40a6d3:	0a 56 54             	or     dl,BYTE PTR [esi+0x54]
  40a6d6:	5f                   	pop    edi
  40a6d7:	56                   	push   esi
  40a6d8:	41                   	inc    ecx
  40a6d9:	52                   	push   edx
  40a6da:	49                   	dec    ecx
  40a6db:	41                   	inc    ecx
  40a6dc:	4e                   	dec    esi
  40a6dd:	54                   	push   esp
  40a6de:	00 0c 0a             	add    BYTE PTR [edx+ecx*1],cl
  40a6e1:	56                   	push   esi
  40a6e2:	54                   	push   esp
  40a6e3:	5f                   	pop    edi
  40a6e4:	55                   	push   ebp
  40a6e5:	4e                   	dec    esi
  40a6e6:	4b                   	dec    ebx
  40a6e7:	4e                   	dec    esi
  40a6e8:	4f                   	dec    edi
  40a6e9:	57                   	push   edi
  40a6ea:	4e                   	dec    esi
  40a6eb:	00 0d 0a 56 54 5f    	add    BYTE PTR ds:0x5f54560a,cl
  40a6f1:	44                   	inc    esp
  40a6f2:	45                   	inc    ebp
  40a6f3:	43                   	inc    ebx
  40a6f4:	49                   	dec    ecx
  40a6f5:	4d                   	dec    ebp
  40a6f6:	41                   	inc    ecx
  40a6f7:	4c                   	dec    esp
  40a6f8:	00 0e                	add    BYTE PTR [esi],cl
  40a6fa:	0a 56 54             	or     dl,BYTE PTR [esi+0x54]
  40a6fd:	5f                   	pop    edi
  40a6fe:	49                   	dec    ecx
  40a6ff:	31 00                	xor    DWORD PTR [eax],eax
  40a701:	10 0a                	adc    BYTE PTR [edx],cl
  40a703:	56                   	push   esi
  40a704:	54                   	push   esp
  40a705:	5f                   	pop    edi
  40a706:	55                   	push   ebp
  40a707:	49                   	dec    ecx
  40a708:	31 00                	xor    DWORD PTR [eax],eax
  40a70a:	11 0a                	adc    DWORD PTR [edx],ecx
  40a70c:	56                   	push   esi
  40a70d:	54                   	push   esp
  40a70e:	5f                   	pop    edi
  40a70f:	55                   	push   ebp
  40a710:	49                   	dec    ecx
  40a711:	32 00                	xor    al,BYTE PTR [eax]
  40a713:	12 0a                	adc    cl,BYTE PTR [edx]
  40a715:	56                   	push   esi
  40a716:	54                   	push   esp
  40a717:	5f                   	pop    edi
  40a718:	55                   	push   ebp
  40a719:	49                   	dec    ecx
  40a71a:	34 00                	xor    al,0x0
  40a71c:	13 0a                	adc    ecx,DWORD PTR [edx]
  40a71e:	56                   	push   esi
  40a71f:	54                   	push   esp
  40a720:	5f                   	pop    edi
  40a721:	49                   	dec    ecx
  40a722:	38 00                	cmp    BYTE PTR [eax],al
  40a724:	14 0a                	adc    al,0xa
  40a726:	56                   	push   esi
  40a727:	54                   	push   esp
  40a728:	5f                   	pop    edi
  40a729:	55                   	push   ebp
  40a72a:	49                   	dec    ecx
  40a72b:	38 00                	cmp    BYTE PTR [eax],al
  40a72d:	15 0a 56 54 5f       	adc    eax,0x5f54560a
  40a732:	49                   	dec    ecx
  40a733:	4e                   	dec    esi
  40a734:	54                   	push   esp
  40a735:	00 16                	add    BYTE PTR [esi],dl
  40a737:	0a 56 54             	or     dl,BYTE PTR [esi+0x54]
  40a73a:	5f                   	pop    edi
  40a73b:	55                   	push   ebp
  40a73c:	49                   	dec    ecx
  40a73d:	4e                   	dec    esi
  40a73e:	54                   	push   esp
  40a73f:	00 17                	add    BYTE PTR [edi],dl
  40a741:	0a 56 54             	or     dl,BYTE PTR [esi+0x54]
  40a744:	5f                   	pop    edi
  40a745:	56                   	push   esi
  40a746:	4f                   	dec    edi
  40a747:	49                   	dec    ecx
  40a748:	44                   	inc    esp
  40a749:	00 18                	add    BYTE PTR [eax],bl
  40a74b:	0a 56 54             	or     dl,BYTE PTR [esi+0x54]
  40a74e:	5f                   	pop    edi
  40a74f:	48                   	dec    eax
  40a750:	52                   	push   edx
  40a751:	45                   	inc    ebp
  40a752:	53                   	push   ebx
  40a753:	55                   	push   ebp
  40a754:	4c                   	dec    esp
  40a755:	54                   	push   esp
  40a756:	00 19                	add    BYTE PTR [ecx],bl
  40a758:	0a 56 54             	or     dl,BYTE PTR [esi+0x54]
  40a75b:	5f                   	pop    edi
  40a75c:	50                   	push   eax
  40a75d:	54                   	push   esp
  40a75e:	52                   	push   edx
  40a75f:	00 1a                	add    BYTE PTR [edx],bl
  40a761:	0a 56 54             	or     dl,BYTE PTR [esi+0x54]
  40a764:	5f                   	pop    edi
  40a765:	53                   	push   ebx
  40a766:	41                   	inc    ecx
  40a767:	46                   	inc    esi
  40a768:	45                   	inc    ebp
  40a769:	41                   	inc    ecx
  40a76a:	52                   	push   edx
  40a76b:	52                   	push   edx
  40a76c:	41                   	inc    ecx
  40a76d:	59                   	pop    ecx
  40a76e:	00 1b                	add    BYTE PTR [ebx],bl
  40a770:	0a 56 54             	or     dl,BYTE PTR [esi+0x54]
  40a773:	5f                   	pop    edi
  40a774:	43                   	inc    ebx
  40a775:	41                   	inc    ecx
  40a776:	52                   	push   edx
  40a777:	52                   	push   edx
  40a778:	41                   	inc    ecx
  40a779:	59                   	pop    ecx
  40a77a:	00 1c 0a             	add    BYTE PTR [edx+ecx*1],bl
  40a77d:	56                   	push   esi
  40a77e:	54                   	push   esp
  40a77f:	5f                   	pop    edi
  40a780:	55                   	push   ebp
  40a781:	53                   	push   ebx
  40a782:	45                   	inc    ebp
  40a783:	52                   	push   edx
  40a784:	44                   	inc    esp
  40a785:	45                   	inc    ebp
  40a786:	46                   	inc    esi
  40a787:	49                   	dec    ecx
  40a788:	4e                   	dec    esi
  40a789:	45                   	inc    ebp
  40a78a:	44                   	inc    esp
  40a78b:	00 1d 0a 56 54 5f    	add    BYTE PTR ds:0x5f54560a,bl
  40a791:	4c                   	dec    esp
  40a792:	50                   	push   eax
  40a793:	53                   	push   ebx
  40a794:	54                   	push   esp
  40a795:	52                   	push   edx
  40a796:	00 1e                	add    BYTE PTR [esi],bl
  40a798:	0a 56 54             	or     dl,BYTE PTR [esi+0x54]
  40a79b:	5f                   	pop    edi
  40a79c:	4c                   	dec    esp
  40a79d:	50                   	push   eax
  40a79e:	57                   	push   edi
  40a79f:	53                   	push   ebx
  40a7a0:	54                   	push   esp
  40a7a1:	52                   	push   edx
  40a7a2:	00 1f                	add    BYTE PTR [edi],bl
  40a7a4:	0a 56 54             	or     dl,BYTE PTR [esi+0x54]
  40a7a7:	5f                   	pop    edi
  40a7a8:	52                   	push   edx
  40a7a9:	45                   	inc    ebp
  40a7aa:	43                   	inc    ebx
  40a7ab:	4f                   	dec    edi
  40a7ac:	52                   	push   edx
  40a7ad:	44                   	inc    esp
  40a7ae:	00 24 0a             	add    BYTE PTR [edx+ecx*1],ah
  40a7b1:	56                   	push   esi
  40a7b2:	54                   	push   esp
  40a7b3:	5f                   	pop    edi
  40a7b4:	49                   	dec    ecx
  40a7b5:	4e                   	dec    esi
  40a7b6:	54                   	push   esp
  40a7b7:	5f                   	pop    edi
  40a7b8:	50                   	push   eax
  40a7b9:	54                   	push   esp
  40a7ba:	52                   	push   edx
  40a7bb:	00 25 0a 56 54 5f    	add    BYTE PTR ds:0x5f54560a,ah
  40a7c1:	55                   	push   ebp
  40a7c2:	49                   	dec    ecx
  40a7c3:	4e                   	dec    esi
  40a7c4:	54                   	push   esp
  40a7c5:	5f                   	pop    edi
  40a7c6:	50                   	push   eax
  40a7c7:	54                   	push   esp
  40a7c8:	52                   	push   edx
  40a7c9:	00 26                	add    BYTE PTR [esi],ah
  40a7cb:	0a 56 54             	or     dl,BYTE PTR [esi+0x54]
  40a7ce:	5f                   	pop    edi
  40a7cf:	46                   	inc    esi
  40a7d0:	49                   	dec    ecx
  40a7d1:	4c                   	dec    esp
  40a7d2:	45                   	inc    ebp
  40a7d3:	54                   	push   esp
  40a7d4:	49                   	dec    ecx
  40a7d5:	4d                   	dec    ebp
  40a7d6:	45                   	inc    ebp
  40a7d7:	00 c0                	add    al,al
  40a7d9:	00 0a                	add    BYTE PTR [edx],cl
  40a7db:	56                   	push   esi
  40a7dc:	54                   	push   esp
  40a7dd:	5f                   	pop    edi
  40a7de:	42                   	inc    edx
  40a7df:	4c                   	dec    esp
  40a7e0:	4f                   	dec    edi
  40a7e1:	42                   	inc    edx
  40a7e2:	00 c1                	add    cl,al
  40a7e4:	00 0a                	add    BYTE PTR [edx],cl
  40a7e6:	56                   	push   esi
  40a7e7:	54                   	push   esp
  40a7e8:	5f                   	pop    edi
  40a7e9:	53                   	push   ebx
  40a7ea:	54                   	push   esp
  40a7eb:	52                   	push   edx
  40a7ec:	45                   	inc    ebp
  40a7ed:	41                   	inc    ecx
  40a7ee:	4d                   	dec    ebp
  40a7ef:	00 c2                	add    dl,al
  40a7f1:	00 0a                	add    BYTE PTR [edx],cl
  40a7f3:	56                   	push   esi
  40a7f4:	54                   	push   esp
  40a7f5:	5f                   	pop    edi
  40a7f6:	53                   	push   ebx
  40a7f7:	54                   	push   esp
  40a7f8:	4f                   	dec    edi
  40a7f9:	52                   	push   edx
  40a7fa:	41                   	inc    ecx
  40a7fb:	47                   	inc    edi
  40a7fc:	45                   	inc    ebp
  40a7fd:	00 c3                	add    bl,al
  40a7ff:	00 0a                	add    BYTE PTR [edx],cl
  40a801:	56                   	push   esi
  40a802:	54                   	push   esp
  40a803:	5f                   	pop    edi
  40a804:	53                   	push   ebx
  40a805:	54                   	push   esp
  40a806:	52                   	push   edx
  40a807:	45                   	inc    ebp
  40a808:	41                   	inc    ecx
  40a809:	4d                   	dec    ebp
  40a80a:	45                   	inc    ebp
  40a80b:	44                   	inc    esp
  40a80c:	5f                   	pop    edi
  40a80d:	4f                   	dec    edi
  40a80e:	42                   	inc    edx
  40a80f:	4a                   	dec    edx
  40a810:	45                   	inc    ebp
  40a811:	43                   	inc    ebx
  40a812:	54                   	push   esp
  40a813:	00 c4                	add    ah,al
  40a815:	00 0a                	add    BYTE PTR [edx],cl
  40a817:	56                   	push   esi
  40a818:	54                   	push   esp
  40a819:	5f                   	pop    edi
  40a81a:	53                   	push   ebx
  40a81b:	54                   	push   esp
  40a81c:	4f                   	dec    edi
  40a81d:	52                   	push   edx
  40a81e:	45                   	inc    ebp
  40a81f:	44                   	inc    esp
  40a820:	5f                   	pop    edi
  40a821:	4f                   	dec    edi
  40a822:	42                   	inc    edx
  40a823:	4a                   	dec    edx
  40a824:	45                   	inc    ebp
  40a825:	43                   	inc    ebx
  40a826:	54                   	push   esp
  40a827:	00 c5                	add    ch,al
  40a829:	00 0a                	add    BYTE PTR [edx],cl
  40a82b:	56                   	push   esi
  40a82c:	54                   	push   esp
  40a82d:	5f                   	pop    edi
  40a82e:	42                   	inc    edx
  40a82f:	4c                   	dec    esp
  40a830:	4f                   	dec    edi
  40a831:	42                   	inc    edx
  40a832:	5f                   	pop    edi
  40a833:	4f                   	dec    edi
  40a834:	42                   	inc    edx
  40a835:	4a                   	dec    edx
  40a836:	45                   	inc    ebp
  40a837:	43                   	inc    ebx
  40a838:	54                   	push   esp
  40a839:	00 c6                	add    dh,al
  40a83b:	00 0a                	add    BYTE PTR [edx],cl
  40a83d:	56                   	push   esi
  40a83e:	54                   	push   esp
  40a83f:	5f                   	pop    edi
  40a840:	43                   	inc    ebx
  40a841:	46                   	inc    esi
  40a842:	00 c7                	add    bh,al
  40a844:	00 0a                	add    BYTE PTR [edx],cl
  40a846:	56                   	push   esi
  40a847:	54                   	push   esp
  40a848:	5f                   	pop    edi
  40a849:	43                   	inc    ebx
  40a84a:	4c                   	dec    esp
  40a84b:	53                   	push   ebx
  40a84c:	49                   	dec    ecx
  40a84d:	44                   	inc    esp
  40a84e:	00 c8                	add    al,cl
  40a850:	00 0a                	add    BYTE PTR [edx],cl
  40a852:	56                   	push   esi
  40a853:	54                   	push   esp
  40a854:	5f                   	pop    edi
  40a855:	42                   	inc    edx
  40a856:	53                   	push   ebx
  40a857:	54                   	push   esp
  40a858:	52                   	push   edx
  40a859:	5f                   	pop    edi
  40a85a:	42                   	inc    edx
  40a85b:	4c                   	dec    esp
  40a85c:	4f                   	dec    edi
  40a85d:	42                   	inc    edx
  40a85e:	00 ff                	add    bh,bh
  40a860:	1f                   	pop    ds
  40a861:	0a 56 54             	or     dl,BYTE PTR [esi+0x54]
  40a864:	5f                   	pop    edi
  40a865:	56                   	push   esi
  40a866:	45                   	inc    ebp
  40a867:	43                   	inc    ebx
  40a868:	54                   	push   esp
  40a869:	4f                   	dec    edi
  40a86a:	52                   	push   edx
  40a86b:	00 80 20 0a 56 54    	add    BYTE PTR [eax+0x54560a20],al
  40a871:	5f                   	pop    edi
  40a872:	41                   	inc    ecx
  40a873:	52                   	push   edx
  40a874:	52                   	push   edx
  40a875:	41                   	inc    ecx
  40a876:	59                   	pop    ecx
  40a877:	00 80 c0 00 0a 56    	add    BYTE PTR [eax+0x560a00c0],al
  40a87d:	54                   	push   esp
  40a87e:	5f                   	pop    edi
  40a87f:	42                   	inc    edx
  40a880:	59                   	pop    ecx
  40a881:	52                   	push   edx
  40a882:	45                   	inc    ebp
  40a883:	46                   	inc    esi
  40a884:	00 80 80 01 0a 56    	add    BYTE PTR [eax+0x560a0180],al
  40a88a:	54                   	push   esp
  40a88b:	5f                   	pop    edi
  40a88c:	52                   	push   edx
  40a88d:	45                   	inc    ebp
  40a88e:	53                   	push   ebx
  40a88f:	45                   	inc    ebp
  40a890:	52                   	push   edx
  40a891:	56                   	push   esi
  40a892:	45                   	inc    ebp
  40a893:	44                   	inc    esp
  40a894:	00 80 80 02 0a 56    	add    BYTE PTR [eax+0x560a0280],al
  40a89a:	54                   	push   esp
  40a89b:	5f                   	pop    edi
  40a89c:	49                   	dec    ecx
  40a89d:	4c                   	dec    esp
  40a89e:	4c                   	dec    esp
  40a89f:	45                   	inc    ebp
  40a8a0:	47                   	inc    edi
  40a8a1:	41                   	inc    ecx
  40a8a2:	4c                   	dec    esp
  40a8a3:	00 ff                	add    bh,bh
  40a8a5:	ff 03                	inc    DWORD PTR [ebx]
  40a8a7:	0a 56 54             	or     dl,BYTE PTR [esi+0x54]
  40a8aa:	5f                   	pop    edi
  40a8ab:	49                   	dec    ecx
  40a8ac:	4c                   	dec    esp
  40a8ad:	4c                   	dec    esp
  40a8ae:	45                   	inc    ebp
  40a8af:	47                   	inc    edi
  40a8b0:	41                   	inc    ecx
  40a8b1:	4c                   	dec    esp
  40a8b2:	4d                   	dec    ebp
  40a8b3:	41                   	inc    ecx
  40a8b4:	53                   	push   ebx
  40a8b5:	4b                   	dec    ebx
  40a8b6:	45                   	inc    ebp
  40a8b7:	44                   	inc    esp
  40a8b8:	00 ff                	add    bh,bh
  40a8ba:	1f                   	pop    ds
  40a8bb:	0a 56 54             	or     dl,BYTE PTR [esi+0x54]
  40a8be:	5f                   	pop    edi
  40a8bf:	54                   	push   esp
  40a8c0:	59                   	pop    ecx
  40a8c1:	50                   	push   eax
  40a8c2:	45                   	inc    ebp
  40a8c3:	4d                   	dec    ebp
  40a8c4:	41                   	inc    ecx
  40a8c5:	53                   	push   ebx
  40a8c6:	4b                   	dec    ebx
  40a8c7:	00 ff                	add    bh,bh
  40a8c9:	1f                   	pop    ds
  40a8ca:	00 05 04 49 01 00    	add    BYTE PTR ds:0x14904,al
  40a8d0:	00 0b                	add    BYTE PTR [ebx],cl
  40a8d2:	5f                   	pop    edi
  40a8d3:	5f                   	pop    edi
  40a8d4:	64                   	fs
  40a8d5:	6c                   	ins    BYTE PTR es:[edi],dx
  40a8d6:	6c                   	ins    BYTE PTR es:[edi],dx
  40a8d7:	4d                   	dec    ebp
  40a8d8:	61                   	popa   
  40a8d9:	69 6e 00 01 11 01 ad 	imul   ebp,DWORD PTR [esi+0x0],0xad011101
  40a8e0:	00 00                	add    BYTE PTR [eax],al
  40a8e2:	00 c0                	add    al,al
  40a8e4:	15 40 00 ea 15       	adc    eax,0x15ea0040
  40a8e9:	40                   	inc    eax
  40a8ea:	00 06                	add    BYTE PTR [esi],al
  40a8ec:	02 00                	add    al,BYTE PTR [eax]
  40a8ee:	00 5d 04             	add    BYTE PTR [ebp+0x4],bl
  40a8f1:	00 00                	add    BYTE PTR [eax],al
  40a8f3:	0c 61                	or     al,0x61
  40a8f5:	00 01                	add    BYTE PTR [ecx],al
  40a8f7:	11 ad 00 00 00 02    	adc    DWORD PTR [ebp+0x2000000],ebp
  40a8fd:	91                   	xchg   ecx,eax
  40a8fe:	00 0c 62             	add    BYTE PTR [edx+eiz*2],cl
  40a901:	00 01                	add    BYTE PTR [ecx],al
  40a903:	11 10                	adc    DWORD PTR [eax],edx
  40a905:	04 00                	add    al,0x0
  40a907:	00 02                	add    BYTE PTR [edx],al
  40a909:	91                   	xchg   ecx,eax
  40a90a:	04 0c                	add    al,0xc
  40a90c:	63 00                	arpl   WORD PTR [eax],ax
  40a90e:	01 11                	add    DWORD PTR [ecx],edx
  40a910:	10 04 00             	adc    BYTE PTR [eax+eax*1],al
  40a913:	00 02                	add    BYTE PTR [edx],al
  40a915:	91                   	xchg   ecx,eax
  40a916:	08 00                	or     BYTE PTR [eax],al
  40a918:	0d 01 5f 63 79       	or     eax,0x79635f01
  40a91d:	67 77 69             	addr16 ja 40a989 <.debug_info+0x4ce>
  40a920:	6e                   	outs   dx,BYTE PTR ds:[esi]
  40a921:	5f                   	pop    edi
  40a922:	64                   	fs
  40a923:	6c                   	ins    BYTE PTR es:[edi],dx
  40a924:	6c                   	ins    BYTE PTR es:[edi],dx
  40a925:	5f                   	pop    edi
  40a926:	65 6e                	outs   dx,BYTE PTR gs:[esi]
  40a928:	74 72                	je     40a99c <.debug_info+0x4e1>
  40a92a:	79 00                	jns    40a92c <.debug_info+0x471>
  40a92c:	01 11                	add    DWORD PTR [ecx],edx
  40a92e:	5f                   	pop    edi
  40a92f:	63 79 67             	arpl   WORD PTR [ecx+0x67],di
  40a932:	77 69                	ja     40a99d <.debug_info+0x4e2>
  40a934:	6e                   	outs   dx,BYTE PTR ds:[esi]
  40a935:	5f                   	pop    edi
  40a936:	64                   	fs
  40a937:	6c                   	ins    BYTE PTR es:[edi],dx
  40a938:	6c                   	ins    BYTE PTR es:[edi],dx
  40a939:	5f                   	pop    edi
  40a93a:	65 6e                	outs   dx,BYTE PTR gs:[esi]
  40a93c:	74 72                	je     40a9b0 <.debug_info+0x4f5>
  40a93e:	79 40                	jns    40a980 <.debug_info+0x4c5>
  40a940:	31 32                	xor    DWORD PTR [edx],esi
  40a942:	00 01                	add    BYTE PTR [ecx],al
  40a944:	ad                   	lods   eax,DWORD PTR ds:[esi]
  40a945:	00 00                	add    BYTE PTR [eax],al
  40a947:	00 f0                	add    al,dh
  40a949:	15 40 00 ca 16       	adc    eax,0x16ca0040
  40a94e:	40                   	inc    eax
  40a94f:	00 3e                	add    BYTE PTR [esi],bh
  40a951:	02 00                	add    al,BYTE PTR [eax]
  40a953:	00 d8                	add    al,bl
  40a955:	04 00                	add    al,0x0
  40a957:	00 0c 68             	add    BYTE PTR [eax+ebp*2],cl
  40a95a:	00 01                	add    BYTE PTR [ecx],al
  40a95c:	11 72 01             	adc    DWORD PTR [edx+0x1],esi
  40a95f:	00 00                	add    BYTE PTR [eax],al
  40a961:	02 91 00 0c 72 65    	add    dl,BYTE PTR [ecx+0x65720c00]
  40a967:	61                   	popa   
  40a968:	73 6f                	jae    40a9d9 <.debug_info+0x51e>
  40a96a:	6e                   	outs   dx,BYTE PTR ds:[esi]
  40a96b:	00 01                	add    BYTE PTR [ecx],al
  40a96d:	11 8b 00 00 00 02    	adc    DWORD PTR [ebx+0x2000000],ecx
  40a973:	91                   	xchg   ecx,eax
  40a974:	04 0c                	add    al,0xc
  40a976:	70 74                	jo     40a9ec <.debug_info+0x531>
  40a978:	72 00                	jb     40a97a <.debug_info+0x4bf>
  40a97a:	01 11                	add    DWORD PTR [ecx],edx
  40a97c:	47                   	inc    edi
  40a97d:	01 00                	add    DWORD PTR [eax],eax
  40a97f:	00 02                	add    BYTE PTR [edx],al
  40a981:	91                   	xchg   ecx,eax
  40a982:	08 0e                	or     BYTE PTR [esi],cl
  40a984:	72 65                	jb     40a9eb <.debug_info+0x530>
  40a986:	74 00                	je     40a988 <.debug_info+0x4cd>
  40a988:	01 11                	add    DWORD PTR [ecx],edx
  40a98a:	ad                   	lods   eax,DWORD PTR ds:[esi]
  40a98b:	00 00                	add    BYTE PTR [eax],al
  40a98d:	00 be 02 00 00 00    	add    BYTE PTR [esi+0x2],bh
  40a993:	0d 01 5f 63 79       	or     eax,0x79635f01
  40a998:	67 77 69             	addr16 ja 40aa04 <.debug_info+0x549>
  40a99b:	6e                   	outs   dx,BYTE PTR ds:[esi]
  40a99c:	5f                   	pop    edi
  40a99d:	6e                   	outs   dx,BYTE PTR ds:[esi]
  40a99e:	6f                   	outs   dx,DWORD PTR ds:[esi]
  40a99f:	6e                   	outs   dx,BYTE PTR ds:[esi]
  40a9a0:	63 79 67             	arpl   WORD PTR [ecx+0x67],di
  40a9a3:	77 69                	ja     40aa0e <.debug_info+0x553>
  40a9a5:	6e                   	outs   dx,BYTE PTR ds:[esi]
  40a9a6:	5f                   	pop    edi
  40a9a7:	64                   	fs
  40a9a8:	6c                   	ins    BYTE PTR es:[edi],dx
  40a9a9:	6c                   	ins    BYTE PTR es:[edi],dx
  40a9aa:	5f                   	pop    edi
  40a9ab:	65 6e                	outs   dx,BYTE PTR gs:[esi]
  40a9ad:	74 72                	je     40aa21 <.debug_info+0x566>
  40a9af:	79 00                	jns    40a9b1 <.debug_info+0x4f6>
  40a9b1:	01 11                	add    DWORD PTR [ecx],edx
  40a9b3:	5f                   	pop    edi
  40a9b4:	63 79 67             	arpl   WORD PTR [ecx+0x67],di
  40a9b7:	77 69                	ja     40aa22 <.debug_info+0x567>
  40a9b9:	6e                   	outs   dx,BYTE PTR ds:[esi]
  40a9ba:	5f                   	pop    edi
  40a9bb:	6e                   	outs   dx,BYTE PTR ds:[esi]
  40a9bc:	6f                   	outs   dx,DWORD PTR ds:[esi]
  40a9bd:	6e                   	outs   dx,BYTE PTR ds:[esi]
  40a9be:	63 79 67             	arpl   WORD PTR [ecx+0x67],di
  40a9c1:	77 69                	ja     40aa2c <.debug_info+0x571>
  40a9c3:	6e                   	outs   dx,BYTE PTR ds:[esi]
  40a9c4:	5f                   	pop    edi
  40a9c5:	64                   	fs
  40a9c6:	6c                   	ins    BYTE PTR es:[edi],dx
  40a9c7:	6c                   	ins    BYTE PTR es:[edi],dx
  40a9c8:	5f                   	pop    edi
  40a9c9:	65 6e                	outs   dx,BYTE PTR gs:[esi]
  40a9cb:	74 72                	je     40aa3f <.debug_info+0x584>
  40a9cd:	79 40                	jns    40aa0f <.debug_info+0x554>
  40a9cf:	31 32                	xor    DWORD PTR [edx],esi
  40a9d1:	00 01                	add    BYTE PTR [ecx],al
  40a9d3:	ad                   	lods   eax,DWORD PTR ds:[esi]
  40a9d4:	00 00                	add    BYTE PTR [eax],al
  40a9d6:	00 d0                	add    al,dl
  40a9d8:	16                   	push   ss
  40a9d9:	40                   	inc    eax
  40a9da:	00 dc                	add    ah,bl
  40a9dc:	16                   	push   ss
  40a9dd:	40                   	inc    eax
  40a9de:	00 17                	add    BYTE PTR [edi],dl
  40a9e0:	03 00                	add    eax,DWORD PTR [eax]
  40a9e2:	00 58 05             	add    BYTE PTR [eax+0x5],bl
  40a9e5:	00 00                	add    BYTE PTR [eax],al
  40a9e7:	0c 68                	or     al,0x68
  40a9e9:	00 01                	add    BYTE PTR [ecx],al
  40a9eb:	11 72 01             	adc    DWORD PTR [edx+0x1],esi
  40a9ee:	00 00                	add    BYTE PTR [eax],al
  40a9f0:	02 91 00 0c 72 65    	add    dl,BYTE PTR [ecx+0x65720c00]
  40a9f6:	61                   	popa   
  40a9f7:	73 6f                	jae    40aa68 <.debug_info+0x5ad>
  40a9f9:	6e                   	outs   dx,BYTE PTR ds:[esi]
  40a9fa:	00 01                	add    BYTE PTR [ecx],al
  40a9fc:	11 8b 00 00 00 02    	adc    DWORD PTR [ebx+0x2000000],ecx
  40aa02:	91                   	xchg   ecx,eax
  40aa03:	04 0c                	add    al,0xc
  40aa05:	70 74                	jo     40aa7b <.debug_info+0x5c0>
  40aa07:	72 00                	jb     40aa09 <.debug_info+0x54e>
  40aa09:	01 11                	add    DWORD PTR [ecx],edx
  40aa0b:	47                   	inc    edi
  40aa0c:	01 00                	add    DWORD PTR [eax],eax
  40aa0e:	00 02                	add    BYTE PTR [edx],al
  40aa10:	91                   	xchg   ecx,eax
  40aa11:	08 00                	or     BYTE PTR [eax],al
  40aa13:	0f 73                	(bad)  
  40aa15:	74 6f                	je     40aa86 <.debug_info+0x5cb>
  40aa17:	72 65                	jb     40aa7e <.debug_info+0x5c3>
  40aa19:	64                   	fs
  40aa1a:	48                   	dec    eax
  40aa1b:	61                   	popa   
  40aa1c:	6e                   	outs   dx,BYTE PTR ds:[esi]
  40aa1d:	64                   	fs
  40aa1e:	6c                   	ins    BYTE PTR es:[edi],dx
  40aa1f:	65 00 01             	add    BYTE PTR gs:[ecx],al
  40aa22:	11 72 01             	adc    DWORD PTR [edx+0x1],esi
  40aa25:	00 00                	add    BYTE PTR [eax],al
  40aa27:	05 03 0c 30 40       	add    eax,0x40300c03
  40aa2c:	00 0f                	add    BYTE PTR [edi],cl
  40aa2e:	73 74                	jae    40aaa4 <.debug_info+0xf>
  40aa30:	6f                   	outs   dx,DWORD PTR ds:[esi]
  40aa31:	72 65                	jb     40aa98 <.debug_info+0x3>
  40aa33:	64                   	fs
  40aa34:	52                   	push   edx
  40aa35:	65                   	gs
  40aa36:	61                   	popa   
  40aa37:	73 6f                	jae    40aaa8 <.debug_info+0x13>
  40aa39:	6e                   	outs   dx,BYTE PTR ds:[esi]
  40aa3a:	00 01                	add    BYTE PTR [ecx],al
  40aa3c:	11 8b 00 00 00 05    	adc    DWORD PTR [ebx+0x5000000],ecx
  40aa42:	03 10                	add    edx,DWORD PTR [eax]
  40aa44:	30 40 00             	xor    BYTE PTR [eax+0x0],al
  40aa47:	0f 73                	(bad)  
  40aa49:	74 6f                	je     40aaba <.debug_info+0x25>
  40aa4b:	72 65                	jb     40aab2 <.debug_info+0x1d>
  40aa4d:	64                   	fs
  40aa4e:	50                   	push   eax
  40aa4f:	74 72                	je     40aac3 <.debug_info+0x2e>
  40aa51:	00 01                	add    BYTE PTR [ecx],al
  40aa53:	11 47 01             	adc    DWORD PTR [edi+0x1],eax
  40aa56:	00 00                	add    BYTE PTR [eax],al
  40aa58:	05 03 14 30 40       	add    eax,0x40301403
  40aa5d:	00 10                	add    BYTE PTR [eax],dl
  40aa5f:	15 00 00 00 01       	adc    eax,0x1000000
  40aa64:	11 ad 00 00 00 01    	adc    DWORD PTR [ebp+0x1000000],ebp
  40aa6a:	01 0f                	add    DWORD PTR [edi],ecx
  40aa6c:	64                   	fs
  40aa6d:	6c                   	ins    BYTE PTR es:[edi],dx
  40aa6e:	6c                   	ins    BYTE PTR es:[edi],dx
  40aa6f:	5f                   	pop    edi
  40aa70:	69 6e 64 65 78 00 01 	imul   ebp,DWORD PTR [esi+0x64],0x1007865
  40aa77:	11 8b 00 00 00 05    	adc    DWORD PTR [ebx+0x5000000],ecx
  40aa7d:	03 18                	add    ebx,DWORD PTR [eax]
  40aa7f:	30 40 00             	xor    BYTE PTR [eax+0x0],al
  40aa82:	11 15 00 00 00 01    	adc    DWORD PTR ds:0x1000000,edx
  40aa88:	11 ad 00 00 00 01    	adc    DWORD PTR [ebp+0x1000000],ebp
  40aa8e:	05 03 08 30 40       	add    eax,0x40300803
	...

0040aa95 <.debug_info>:
  40aa95:	b3 00                	mov    bl,0x0
  40aa97:	00 00                	add    BYTE PTR [eax],al
  40aa99:	02 00                	add    al,BYTE PTR [eax]
  40aa9b:	0c 06                	or     al,0x6
  40aa9d:	00 00                	add    BYTE PTR [eax],al
  40aa9f:	04 01                	add    al,0x1
  40aaa1:	47                   	inc    edi
  40aaa2:	4e                   	dec    esi
  40aaa3:	55                   	push   ebp
  40aaa4:	20 43 20             	and    BYTE PTR [ebx+0x20],al
  40aaa7:	34 2e                	xor    al,0x2e
  40aaa9:	35 2e 33 20 32       	xor    eax,0x3220332e
  40aaae:	30 31                	xor    BYTE PTR [ecx],dh
  40aab0:	31 30                	xor    DWORD PTR [eax],esi
  40aab2:	34 32                	xor    al,0x32
  40aab4:	38 20                	cmp    BYTE PTR [eax],ah
  40aab6:	28 46 65             	sub    BYTE PTR [esi+0x65],al
  40aab9:	64 6f                	outs   dx,DWORD PTR fs:[esi]
  40aabb:	72 61                	jb     40ab1e <.debug_info+0x89>
  40aabd:	20 43 79             	and    BYTE PTR [ebx+0x79],al
  40aac0:	67 77 69             	addr16 ja 40ab2c <.debug_info+0x97>
  40aac3:	6e                   	outs   dx,BYTE PTR ds:[esi]
  40aac4:	20 34 2e             	and    BYTE PTR [esi+ebp*1],dh
  40aac7:	35 2e 33 2d 34       	xor    eax,0x342d332e
  40aacc:	29 00                	sub    DWORD PTR [eax],eax
  40aace:	01 2f                	add    DWORD PTR [edi],ebp
  40aad0:	75 73                	jne    40ab45 <.debug_info+0xb0>
  40aad2:	72 2f                	jb     40ab03 <.debug_info+0x6e>
  40aad4:	73 72                	jae    40ab48 <.debug_info+0xb3>
  40aad6:	63 2f                	arpl   WORD PTR [edi],bp
  40aad8:	64 65 62 75 67       	fs bound esi,QWORD PTR fs:gs:[ebp+0x67]
  40aadd:	2f                   	das    
  40aade:	63 79 67             	arpl   WORD PTR [ecx+0x67],di
  40aae1:	77 69                	ja     40ab4c <.debug_info>
  40aae3:	6e                   	outs   dx,BYTE PTR ds:[esi]
  40aae4:	2d 31 2e 37 2e       	sub    eax,0x2e372e31
  40aae9:	31 37                	xor    DWORD PTR [edi],esi
  40aaeb:	2d 31 2f 77 69       	sub    eax,0x69772f31
  40aaf0:	6e                   	outs   dx,BYTE PTR ds:[esi]
  40aaf1:	73 75                	jae    40ab68 <.debug_info+0x1c>
  40aaf3:	70 2f                	jo     40ab24 <.debug_info+0x8f>
  40aaf5:	63 79 67             	arpl   WORD PTR [ecx+0x67],di
  40aaf8:	77 69                	ja     40ab63 <.debug_info+0x17>
  40aafa:	6e                   	outs   dx,BYTE PTR ds:[esi]
  40aafb:	2f                   	das    
  40aafc:	6c                   	ins    BYTE PTR es:[edi],dx
  40aafd:	69 62 2f 70 73 65 75 	imul   esp,DWORD PTR [edx+0x2f],0x75657370
  40ab04:	64 6f                	outs   dx,DWORD PTR fs:[esi]
  40ab06:	2d 72 65 6c 6f       	sub    eax,0x6f6c6572
  40ab0b:	63 2d 64 75 6d 6d    	arpl   WORD PTR ds:0x6d6d7564,bp
  40ab11:	79 2e                	jns    40ab41 <.debug_info+0xac>
  40ab13:	63 00                	arpl   WORD PTR [eax],ax
  40ab15:	10 17                	adc    BYTE PTR [edi],dl
  40ab17:	40                   	inc    eax
  40ab18:	00 15 17 40 00 b6    	add    BYTE PTR ds:0xb6004017,dl
  40ab1e:	06                   	push   es
  40ab1f:	00 00                	add    BYTE PTR [eax],al
  40ab21:	02 01                	add    al,BYTE PTR [ecx]
  40ab23:	5f                   	pop    edi
  40ab24:	70 65                	jo     40ab8b <.debug_info+0x3f>
  40ab26:	69 33 38 36 5f 72    	imul   esi,DWORD PTR [ebx],0x725f3638
  40ab2c:	75 6e                	jne    40ab9c <.debug_info+0x50>
  40ab2e:	74 69                	je     40ab99 <.debug_info+0x4d>
  40ab30:	6d                   	ins    DWORD PTR es:[edi],dx
  40ab31:	65                   	gs
  40ab32:	5f                   	pop    edi
  40ab33:	72 65                	jb     40ab9a <.debug_info+0x4e>
  40ab35:	6c                   	ins    BYTE PTR es:[edi],dx
  40ab36:	6f                   	outs   dx,DWORD PTR ds:[esi]
  40ab37:	63 61 74             	arpl   WORD PTR [ecx+0x74],sp
  40ab3a:	6f                   	outs   dx,DWORD PTR ds:[esi]
  40ab3b:	72 00                	jb     40ab3d <.debug_info+0xa8>
  40ab3d:	01 07                	add    DWORD PTR [edi],eax
  40ab3f:	10 17                	adc    BYTE PTR [edi],dl
  40ab41:	40                   	inc    eax
  40ab42:	00 15 17 40 00 4f    	add    BYTE PTR ds:0x4f004017,dl
  40ab48:	03 00                	add    eax,DWORD PTR [eax]
	...

0040ab4c <.debug_info>:
  40ab4c:	13 02                	adc    eax,DWORD PTR [edx]
  40ab4e:	00 00                	add    BYTE PTR [eax],al
  40ab50:	02 00                	add    al,BYTE PTR [eax]
  40ab52:	31 06                	xor    DWORD PTR [esi],eax
  40ab54:	00 00                	add    BYTE PTR [eax],al
  40ab56:	04 01                	add    al,0x1
  40ab58:	47                   	inc    edi
  40ab59:	4e                   	dec    esi
  40ab5a:	55                   	push   ebp
  40ab5b:	20 43 2b             	and    BYTE PTR [ebx+0x2b],al
  40ab5e:	2b 20                	sub    esp,DWORD PTR [eax]
  40ab60:	34 2e                	xor    al,0x2e
  40ab62:	35 2e 33 20 32       	xor    eax,0x3220332e
  40ab67:	30 31                	xor    BYTE PTR [ecx],dh
  40ab69:	31 30                	xor    DWORD PTR [eax],esi
  40ab6b:	34 32                	xor    al,0x32
  40ab6d:	38 20                	cmp    BYTE PTR [eax],ah
  40ab6f:	28 46 65             	sub    BYTE PTR [esi+0x65],al
  40ab72:	64 6f                	outs   dx,DWORD PTR fs:[esi]
  40ab74:	72 61                	jb     40abd7 <.debug_info+0x8b>
  40ab76:	20 43 79             	and    BYTE PTR [ebx+0x79],al
  40ab79:	67 77 69             	addr16 ja 40abe5 <.debug_info+0x99>
  40ab7c:	6e                   	outs   dx,BYTE PTR ds:[esi]
  40ab7d:	20 34 2e             	and    BYTE PTR [esi+ebp*1],dh
  40ab80:	35 2e 33 2d 34       	xor    eax,0x342d332e
  40ab85:	29 00                	sub    DWORD PTR [eax],eax
  40ab87:	04 2f                	add    al,0x2f
  40ab89:	75 73                	jne    40abfe <.debug_info+0xb2>
  40ab8b:	72 2f                	jb     40abbc <.debug_info+0x70>
  40ab8d:	73 72                	jae    40ac01 <.debug_info+0xb5>
  40ab8f:	63 2f                	arpl   WORD PTR [edi],bp
  40ab91:	64 65 62 75 67       	fs bound esi,QWORD PTR fs:gs:[ebp+0x67]
  40ab96:	2f                   	das    
  40ab97:	63 79 67             	arpl   WORD PTR [ecx+0x67],di
  40ab9a:	77 69                	ja     40ac05 <.debug_info+0xb9>
  40ab9c:	6e                   	outs   dx,BYTE PTR ds:[esi]
  40ab9d:	2d 31 2e 37 2e       	sub    eax,0x2e372e31
  40aba2:	31 37                	xor    DWORD PTR [edi],esi
  40aba4:	2d 31 2f 77 69       	sub    eax,0x69772f31
  40aba9:	6e                   	outs   dx,BYTE PTR ds:[esi]
  40abaa:	73 75                	jae    40ac21 <.debug_info+0xd5>
  40abac:	70 2f                	jo     40abdd <.debug_info+0x91>
  40abae:	63 79 67             	arpl   WORD PTR [ecx+0x67],di
  40abb1:	77 69                	ja     40ac1c <.debug_info+0xd0>
  40abb3:	6e                   	outs   dx,BYTE PTR ds:[esi]
  40abb4:	2f                   	das    
  40abb5:	6c                   	ins    BYTE PTR es:[edi],dx
  40abb6:	69 62 2f 64 6c 6c 5f 	imul   esp,DWORD PTR [edx+0x2f],0x5f6c6c64
  40abbd:	6d                   	ins    DWORD PTR es:[edi],dx
  40abbe:	61                   	popa   
  40abbf:	69 6e 2e 63 63 00 20 	imul   ebp,DWORD PTR [esi+0x2e],0x20006363
  40abc6:	17                   	pop    ss
  40abc7:	40                   	inc    eax
  40abc8:	00 2c 17             	add    BYTE PTR [edi+edx*1],ch
  40abcb:	40                   	inc    eax
  40abcc:	00 2a                	add    BYTE PTR [edx],ch
  40abce:	07                   	pop    es
  40abcf:	00 00                	add    BYTE PTR [eax],al
  40abd1:	02 01                	add    al,BYTE PTR [ecx]
  40abd3:	06                   	push   es
  40abd4:	63 68 61             	arpl   WORD PTR [eax+0x61],bp
  40abd7:	72 00                	jb     40abd9 <.debug_info+0x8d>
  40abd9:	03 44 57 4f          	add    eax,DWORD PTR [edi+edx*2+0x4f]
  40abdd:	52                   	push   edx
  40abde:	44                   	inc    esp
  40abdf:	00 02                	add    BYTE PTR [edx],al
  40abe1:	e1 9a                	loope  40ab7d <.debug_info+0x31>
  40abe3:	00 00                	add    BYTE PTR [eax],al
  40abe5:	00 02                	add    BYTE PTR [edx],al
  40abe7:	04 07                	add    al,0x7
  40abe9:	6c                   	ins    BYTE PTR es:[edi],dx
  40abea:	6f                   	outs   dx,DWORD PTR ds:[esi]
  40abeb:	6e                   	outs   dx,BYTE PTR ds:[esi]
  40abec:	67 20 75 6e          	and    BYTE PTR [di+0x6e],dh
  40abf0:	73 69                	jae    40ac5b <.debug_info+0x10f>
  40abf2:	67 6e                	outs   dx,BYTE PTR ds:[si]
  40abf4:	65 64 20 69 6e       	gs and BYTE PTR fs:gs:[ecx+0x6e],ch
  40abf9:	74 00                	je     40abfb <.debug_info+0xaf>
  40abfb:	03 57 49             	add    edx,DWORD PTR [edi+0x49]
  40abfe:	4e                   	dec    esi
  40abff:	42                   	inc    edx
  40ac00:	4f                   	dec    edi
  40ac01:	4f                   	dec    edi
  40ac02:	4c                   	dec    esp
  40ac03:	00 02                	add    BYTE PTR [edx],al
  40ac05:	e2 be                	loop   40abc5 <.debug_info+0x79>
  40ac07:	00 00                	add    BYTE PTR [eax],al
  40ac09:	00 02                	add    BYTE PTR [edx],al
  40ac0b:	04 05                	add    al,0x5
  40ac0d:	69 6e 74 00 03 42 4f 	imul   ebp,DWORD PTR [esi+0x74],0x4f420300
  40ac14:	4f                   	dec    edi
  40ac15:	4c                   	dec    esp
  40ac16:	00 02                	add    BYTE PTR [edx],al
  40ac18:	e6 af                	out    0xaf,al
  40ac1a:	00 00                	add    BYTE PTR [eax],al
  40ac1c:	00 02                	add    BYTE PTR [edx],al
  40ac1e:	01 08                	add    DWORD PTR [eax],ecx
  40ac20:	75 6e                	jne    40ac90 <.debug_info+0x144>
  40ac22:	73 69                	jae    40ac8d <.debug_info+0x141>
  40ac24:	67 6e                	outs   dx,BYTE PTR ds:[si]
  40ac26:	65 64 20 63 68       	gs and BYTE PTR fs:gs:[ebx+0x68],ah
  40ac2b:	61                   	popa   
  40ac2c:	72 00                	jb     40ac2e <.debug_info+0xe2>
  40ac2e:	02 02                	add    al,BYTE PTR [edx]
  40ac30:	07                   	pop    es
  40ac31:	73 68                	jae    40ac9b <.debug_info+0x14f>
  40ac33:	6f                   	outs   dx,DWORD PTR ds:[esi]
  40ac34:	72 74                	jb     40acaa <.debug_info+0x15e>
  40ac36:	20 75 6e             	and    BYTE PTR [ebp+0x6e],dh
  40ac39:	73 69                	jae    40aca4 <.debug_info+0x158>
  40ac3b:	67 6e                	outs   dx,BYTE PTR ds:[si]
  40ac3d:	65 64 20 69 6e       	gs and BYTE PTR fs:gs:[ecx+0x6e],ch
  40ac42:	74 00                	je     40ac44 <.debug_info+0xf8>
  40ac44:	02 04 04             	add    al,BYTE PTR [esp+eax*1]
  40ac47:	66                   	data16
  40ac48:	6c                   	ins    BYTE PTR es:[edi],dx
  40ac49:	6f                   	outs   dx,DWORD PTR ds:[esi]
  40ac4a:	61                   	popa   
  40ac4b:	74 00                	je     40ac4d <.debug_info+0x101>
  40ac4d:	02 04 05 6c 6f 6e 67 	add    al,BYTE PTR [eax*1+0x676e6f6c]
  40ac54:	20 69 6e             	and    BYTE PTR [ecx+0x6e],ch
  40ac57:	74 00                	je     40ac59 <.debug_info+0x10d>
  40ac59:	02 04 07             	add    al,BYTE PTR [edi+eax*1]
  40ac5c:	75 6e                	jne    40accc <.debug_info+0x180>
  40ac5e:	73 69                	jae    40acc9 <.debug_info+0x17d>
  40ac60:	67 6e                	outs   dx,BYTE PTR ds:[si]
  40ac62:	65 64 20 69 6e       	gs and BYTE PTR fs:gs:[ecx+0x6e],ch
  40ac67:	74 00                	je     40ac69 <.debug_info+0x11d>
  40ac69:	02 01                	add    al,BYTE PTR [ecx]
  40ac6b:	06                   	push   es
  40ac6c:	73 69                	jae    40acd7 <.debug_info+0x18b>
  40ac6e:	67 6e                	outs   dx,BYTE PTR ds:[si]
  40ac70:	65 64 20 63 68       	gs and BYTE PTR fs:gs:[ebx+0x68],ah
  40ac75:	61                   	popa   
  40ac76:	72 00                	jb     40ac78 <.debug_info+0x12c>
  40ac78:	02 02                	add    al,BYTE PTR [edx]
  40ac7a:	05 73 68 6f 72       	add    eax,0x726f6873
  40ac7f:	74 20                	je     40aca1 <.debug_info+0x155>
  40ac81:	69 6e 74 00 02 08 05 	imul   ebp,DWORD PTR [esi+0x74],0x5080200
  40ac88:	6c                   	ins    BYTE PTR es:[edi],dx
  40ac89:	6f                   	outs   dx,DWORD PTR ds:[esi]
  40ac8a:	6e                   	outs   dx,BYTE PTR ds:[esi]
  40ac8b:	67 20 6c 6f          	and    BYTE PTR [si+0x6f],ch
  40ac8f:	6e                   	outs   dx,BYTE PTR ds:[esi]
  40ac90:	67 20 69 6e          	and    BYTE PTR [bx+di+0x6e],ch
  40ac94:	74 00                	je     40ac96 <.debug_info+0x14a>
  40ac96:	02 08                	add    cl,BYTE PTR [eax]
  40ac98:	07                   	pop    es
  40ac99:	6c                   	ins    BYTE PTR es:[edi],dx
  40ac9a:	6f                   	outs   dx,DWORD PTR ds:[esi]
  40ac9b:	6e                   	outs   dx,BYTE PTR ds:[esi]
  40ac9c:	67 20 6c 6f          	and    BYTE PTR [si+0x6f],ch
  40aca0:	6e                   	outs   dx,BYTE PTR ds:[esi]
  40aca1:	67 20 75 6e          	and    BYTE PTR [di+0x6e],dh
  40aca5:	73 69                	jae    40ad10 <.debug_info+0x1c4>
  40aca7:	67 6e                	outs   dx,BYTE PTR ds:[si]
  40aca9:	65 64 20 69 6e       	gs and BYTE PTR fs:gs:[ecx+0x6e],ch
  40acae:	74 00                	je     40acb0 <.debug_info+0x164>
  40acb0:	04 04                	add    al,0x4
  40acb2:	03 4c 50 56          	add    ecx,DWORD PTR [eax+edx*2+0x56]
  40acb6:	4f                   	dec    edi
  40acb7:	49                   	dec    ecx
  40acb8:	44                   	inc    esp
  40acb9:	00 03                	add    BYTE PTR [ebx],al
  40acbb:	56                   	push   esi
  40acbc:	64 01 00             	add    DWORD PTR fs:[eax],eax
  40acbf:	00 02                	add    BYTE PTR [edx],al
  40acc1:	02 07                	add    al,BYTE PTR [edi]
  40acc3:	77 63                	ja     40ad28 <.debug_info+0x1dc>
  40acc5:	68 61 72 5f 74       	push   0x745f7261
  40acca:	00 05 48 49 4e 53    	add    BYTE PTR ds:0x534e4948,al
  40acd0:	54                   	push   esp
  40acd1:	41                   	inc    ecx
  40acd2:	4e                   	dec    esi
  40acd3:	43                   	inc    ebx
  40acd4:	45                   	inc    ebp
  40acd5:	5f                   	pop    edi
  40acd6:	5f                   	pop    edi
  40acd7:	00 04 02             	add    BYTE PTR [edx+eax*1],al
  40acda:	1f                   	pop    ds
  40acdb:	01 a2 01 00 00 06    	add    DWORD PTR [edx+0x6000001],esp
  40ace1:	69 00 02 1f 01 be    	imul   eax,DWORD PTR [eax],0xbe011f02
  40ace7:	00 00                	add    BYTE PTR [eax],al
  40ace9:	00 02                	add    BYTE PTR [edx],al
  40aceb:	23 00                	and    eax,DWORD PTR [eax]
  40aced:	00 07                	add    BYTE PTR [edi],al
  40acef:	48                   	dec    eax
  40acf0:	49                   	dec    ecx
  40acf1:	4e                   	dec    esi
  40acf2:	53                   	push   ebx
  40acf3:	54                   	push   esp
  40acf4:	41                   	inc    ecx
  40acf5:	4e                   	dec    esi
  40acf6:	43                   	inc    ebx
  40acf7:	45                   	inc    ebp
  40acf8:	00 02                	add    BYTE PTR [edx],al
  40acfa:	1f                   	pop    ds
  40acfb:	01 b4 01 00 00 08 04 	add    DWORD PTR [ecx+eax*1+0x4080000],esi
  40ad02:	7f 01                	jg     40ad05 <.debug_info+0x1b9>
  40ad04:	00 00                	add    BYTE PTR [eax],al
  40ad06:	09 01                	or     DWORD PTR [ecx],eax
  40ad08:	44                   	inc    esp
  40ad09:	6c                   	ins    BYTE PTR es:[edi],dx
  40ad0a:	6c                   	ins    BYTE PTR es:[edi],dx
  40ad0b:	4d                   	dec    ebp
  40ad0c:	61                   	popa   
  40ad0d:	69 6e 00 01 11 44 6c 	imul   ebp,DWORD PTR [esi+0x0],0x6c441101
  40ad14:	6c                   	ins    BYTE PTR es:[edi],dx
  40ad15:	4d                   	dec    ebp
  40ad16:	61                   	popa   
  40ad17:	69 6e 40 31 32 00 c5 	imul   ebp,DWORD PTR [esi+0x40],0xc5003231
  40ad1e:	00 00                	add    BYTE PTR [eax],al
  40ad20:	00 20                	add    BYTE PTR [eax],ah
  40ad22:	17                   	pop    ss
  40ad23:	40                   	inc    eax
  40ad24:	00 2c 17             	add    BYTE PTR [edi+edx*1],ch
  40ad27:	40                   	inc    eax
  40ad28:	00 87 03 00 00 0a    	add    BYTE PTR [edi+0xa000003],al
  40ad2e:	68 49 6e 73 74       	push   0x74736e49
  40ad33:	00 01                	add    BYTE PTR [ecx],al
  40ad35:	12 a2 01 00 00 02    	adc    ah,BYTE PTR [edx+0x2000001]
  40ad3b:	91                   	xchg   ecx,eax
  40ad3c:	00 0a                	add    BYTE PTR [edx],cl
  40ad3e:	72 65                	jb     40ada5 <.debug_info+0x42>
  40ad40:	61                   	popa   
  40ad41:	73 6f                	jae    40adb2 <.debug_info+0x4f>
  40ad43:	6e                   	outs   dx,BYTE PTR ds:[esi]
  40ad44:	00 01                	add    BYTE PTR [ecx],al
  40ad46:	13 8d 00 00 00 02    	adc    ecx,DWORD PTR [ebp+0x2000000]
  40ad4c:	91                   	xchg   ecx,eax
  40ad4d:	04 0a                	add    al,0xa
  40ad4f:	72 65                	jb     40adb6 <.debug_info+0x53>
  40ad51:	73 65                	jae    40adb8 <.debug_info+0x55>
  40ad53:	72 76                	jb     40adcb <.debug_info+0x68>
  40ad55:	65 64 00 01          	gs add BYTE PTR fs:gs:[ecx],al
  40ad59:	14 66                	adc    al,0x66
  40ad5b:	01 00                	add    DWORD PTR [eax],eax
  40ad5d:	00 02                	add    BYTE PTR [edx],al
  40ad5f:	91                   	xchg   ecx,eax
  40ad60:	08 00                	or     BYTE PTR [eax],al
	...

0040ad63 <.debug_info>:
  40ad63:	de 10                	ficom  WORD PTR [eax]
  40ad65:	00 00                	add    BYTE PTR [eax],al
  40ad67:	02 00                	add    al,BYTE PTR [eax]
  40ad69:	bd 06 00 00 04       	mov    ebp,0x4000006
  40ad6e:	01 47 4e             	add    DWORD PTR [edi+0x4e],eax
  40ad71:	55                   	push   ebp
  40ad72:	20 43 20             	and    BYTE PTR [ebx+0x20],al
  40ad75:	34 2e                	xor    al,0x2e
  40ad77:	35 2e 33 20 32       	xor    eax,0x3220332e
  40ad7c:	30 31                	xor    BYTE PTR [ecx],dh
  40ad7e:	31 30                	xor    DWORD PTR [eax],esi
  40ad80:	34 32                	xor    al,0x32
  40ad82:	38 20                	cmp    BYTE PTR [eax],ah
  40ad84:	28 46 65             	sub    BYTE PTR [esi+0x65],al
  40ad87:	64 6f                	outs   dx,DWORD PTR fs:[esi]
  40ad89:	72 61                	jb     40adec <.debug_info+0x89>
  40ad8b:	20 43 79             	and    BYTE PTR [ebx+0x79],al
  40ad8e:	67 77 69             	addr16 ja 40adfa <.debug_info+0x97>
  40ad91:	6e                   	outs   dx,BYTE PTR ds:[esi]
  40ad92:	20 34 2e             	and    BYTE PTR [esi+ebp*1],dh
  40ad95:	35 2e 33 2d 34       	xor    eax,0x342d332e
  40ad9a:	29 00                	sub    DWORD PTR [eax],eax
  40ad9c:	01 2f                	add    DWORD PTR [edi],ebp
  40ad9e:	75 73                	jne    40ae13 <.debug_info+0xb0>
  40ada0:	72 2f                	jb     40add1 <.debug_info+0x6e>
  40ada2:	73 72                	jae    40ae16 <.debug_info+0xb3>
  40ada4:	63 2f                	arpl   WORD PTR [edi],bp
  40ada6:	64 65 62 75 67       	fs bound esi,QWORD PTR fs:gs:[ebp+0x67]
  40adab:	2f                   	das    
  40adac:	63 79 67             	arpl   WORD PTR [ecx+0x67],di
  40adaf:	77 69                	ja     40ae1a <.debug_info+0xb7>
  40adb1:	6e                   	outs   dx,BYTE PTR ds:[esi]
  40adb2:	2d 31 2e 37 2e       	sub    eax,0x2e372e31
  40adb7:	31 37                	xor    DWORD PTR [edi],esi
  40adb9:	2d 31 2f 77 69       	sub    eax,0x69772f31
  40adbe:	6e                   	outs   dx,BYTE PTR ds:[esi]
  40adbf:	73 75                	jae    40ae36 <.debug_info+0xd3>
  40adc1:	70 2f                	jo     40adf2 <.debug_info+0x8f>
  40adc3:	63 79 67             	arpl   WORD PTR [ecx+0x67],di
  40adc6:	77 69                	ja     40ae31 <.debug_info+0xce>
  40adc8:	6e                   	outs   dx,BYTE PTR ds:[esi]
  40adc9:	2f                   	das    
  40adca:	6c                   	ins    BYTE PTR es:[edi],dx
  40adcb:	69 62 2f 63 79 67 77 	imul   esp,DWORD PTR [edx+0x2f],0x77677963
  40add2:	69 6e 5f 61 74 74 61 	imul   ebp,DWORD PTR [esi+0x5f],0x61747461
  40add9:	63 68 5f             	arpl   WORD PTR [eax+0x5f],bp
  40addc:	64                   	fs
  40addd:	6c                   	ins    BYTE PTR es:[edi],dx
  40adde:	6c                   	ins    BYTE PTR es:[edi],dx
  40addf:	2e 63 00             	arpl   WORD PTR cs:[eax],ax
  40ade2:	40                   	inc    eax
  40ade3:	17                   	pop    ss
  40ade4:	40                   	inc    eax
  40ade5:	00 73 17             	add    BYTE PTR [ebx+0x17],dh
  40ade8:	40                   	inc    eax
  40ade9:	00 eb                	add    bl,ch
  40adeb:	07                   	pop    es
  40adec:	00 00                	add    BYTE PTR [eax],al
  40adee:	02 01                	add    al,BYTE PTR [ecx]
  40adf0:	06                   	push   es
  40adf1:	63 68 61             	arpl   WORD PTR [eax+0x61],bp
  40adf4:	72 00                	jb     40adf6 <.debug_info+0x93>
  40adf6:	03 44 57 4f          	add    eax,DWORD PTR [edi+edx*2+0x4f]
  40adfa:	52                   	push   edx
  40adfb:	44                   	inc    esp
  40adfc:	00 02                	add    BYTE PTR [edx],al
  40adfe:	e1 a0                	loope  40ada0 <.debug_info+0x3d>
  40ae00:	00 00                	add    BYTE PTR [eax],al
  40ae02:	00 02                	add    BYTE PTR [edx],al
  40ae04:	04 07                	add    al,0x7
  40ae06:	6c                   	ins    BYTE PTR es:[edi],dx
  40ae07:	6f                   	outs   dx,DWORD PTR ds:[esi]
  40ae08:	6e                   	outs   dx,BYTE PTR ds:[esi]
  40ae09:	67 20 75 6e          	and    BYTE PTR [di+0x6e],dh
  40ae0d:	73 69                	jae    40ae78 <.debug_info+0x115>
  40ae0f:	67 6e                	outs   dx,BYTE PTR ds:[si]
  40ae11:	65 64 20 69 6e       	gs and BYTE PTR fs:gs:[ecx+0x6e],ch
  40ae16:	74 00                	je     40ae18 <.debug_info+0xb5>
  40ae18:	02 04 05 69 6e 74 00 	add    al,BYTE PTR [eax*1+0x746e69]
  40ae1f:	04 04                	add    al,0x4
  40ae21:	b5 00                	mov    ch,0x0
  40ae23:	00 00                	add    BYTE PTR [eax],al
  40ae25:	02 01                	add    al,BYTE PTR [ecx]
  40ae27:	08 75 6e             	or     BYTE PTR [ebp+0x6e],dh
  40ae2a:	73 69                	jae    40ae95 <.debug_info+0x132>
  40ae2c:	67 6e                	outs   dx,BYTE PTR ds:[si]
  40ae2e:	65 64 20 63 68       	gs and BYTE PTR fs:gs:[ebx+0x68],ah
  40ae33:	61                   	popa   
  40ae34:	72 00                	jb     40ae36 <.debug_info+0xd3>
  40ae36:	02 02                	add    al,BYTE PTR [edx]
  40ae38:	07                   	pop    es
  40ae39:	73 68                	jae    40aea3 <.debug_info+0x140>
  40ae3b:	6f                   	outs   dx,DWORD PTR ds:[esi]
  40ae3c:	72 74                	jb     40aeb2 <.debug_info+0x14f>
  40ae3e:	20 75 6e             	and    BYTE PTR [ebp+0x6e],dh
  40ae41:	73 69                	jae    40aeac <.debug_info+0x149>
  40ae43:	67 6e                	outs   dx,BYTE PTR ds:[si]
  40ae45:	65 64 20 69 6e       	gs and BYTE PTR fs:gs:[ecx+0x6e],ch
  40ae4a:	74 00                	je     40ae4c <.debug_info+0xe9>
  40ae4c:	02 04 04             	add    al,BYTE PTR [esp+eax*1]
  40ae4f:	66                   	data16
  40ae50:	6c                   	ins    BYTE PTR es:[edi],dx
  40ae51:	6f                   	outs   dx,DWORD PTR ds:[esi]
  40ae52:	61                   	popa   
  40ae53:	74 00                	je     40ae55 <.debug_info+0xf2>
  40ae55:	02 04 05 6c 6f 6e 67 	add    al,BYTE PTR [eax*1+0x676e6f6c]
  40ae5c:	20 69 6e             	and    BYTE PTR [ecx+0x6e],ch
  40ae5f:	74 00                	je     40ae61 <.debug_info+0xfe>
  40ae61:	02 04 07             	add    al,BYTE PTR [edi+eax*1]
  40ae64:	75 6e                	jne    40aed4 <.debug_info+0x171>
  40ae66:	73 69                	jae    40aed1 <.debug_info+0x16e>
  40ae68:	67 6e                	outs   dx,BYTE PTR ds:[si]
  40ae6a:	65 64 20 69 6e       	gs and BYTE PTR fs:gs:[ecx+0x6e],ch
  40ae6f:	74 00                	je     40ae71 <.debug_info+0x10e>
  40ae71:	02 01                	add    al,BYTE PTR [ecx]
  40ae73:	06                   	push   es
  40ae74:	73 69                	jae    40aedf <.debug_info+0x17c>
  40ae76:	67 6e                	outs   dx,BYTE PTR ds:[si]
  40ae78:	65 64 20 63 68       	gs and BYTE PTR fs:gs:[ebx+0x68],ah
  40ae7d:	61                   	popa   
  40ae7e:	72 00                	jb     40ae80 <.debug_info+0x11d>
  40ae80:	02 02                	add    al,BYTE PTR [edx]
  40ae82:	05 73 68 6f 72       	add    eax,0x726f6873
  40ae87:	74 20                	je     40aea9 <.debug_info+0x146>
  40ae89:	69 6e 74 00 02 08 05 	imul   ebp,DWORD PTR [esi+0x74],0x5080200
  40ae90:	6c                   	ins    BYTE PTR es:[edi],dx
  40ae91:	6f                   	outs   dx,DWORD PTR ds:[esi]
  40ae92:	6e                   	outs   dx,BYTE PTR ds:[esi]
  40ae93:	67 20 6c 6f          	and    BYTE PTR [si+0x6f],ch
  40ae97:	6e                   	outs   dx,BYTE PTR ds:[esi]
  40ae98:	67 20 69 6e          	and    BYTE PTR [bx+di+0x6e],ch
  40ae9c:	74 00                	je     40ae9e <.debug_info+0x13b>
  40ae9e:	02 08                	add    cl,BYTE PTR [eax]
  40aea0:	07                   	pop    es
  40aea1:	6c                   	ins    BYTE PTR es:[edi],dx
  40aea2:	6f                   	outs   dx,DWORD PTR ds:[esi]
  40aea3:	6e                   	outs   dx,BYTE PTR ds:[esi]
  40aea4:	67 20 6c 6f          	and    BYTE PTR [si+0x6f],ch
  40aea8:	6e                   	outs   dx,BYTE PTR ds:[esi]
  40aea9:	67 20 75 6e          	and    BYTE PTR [di+0x6e],dh
  40aead:	73 69                	jae    40af18 <.debug_info+0x1b5>
  40aeaf:	67 6e                	outs   dx,BYTE PTR ds:[si]
  40aeb1:	65 64 20 69 6e       	gs and BYTE PTR fs:gs:[ecx+0x6e],ch
  40aeb6:	74 00                	je     40aeb8 <.debug_info+0x155>
  40aeb8:	03 5f 4c             	add    ebx,DWORD PTR [edi+0x4c]
  40aebb:	4f                   	dec    edi
  40aebc:	43                   	inc    ebx
  40aebd:	4b                   	dec    ebx
  40aebe:	5f                   	pop    edi
  40aebf:	54                   	push   esp
  40aec0:	00 03                	add    BYTE PTR [ebx],al
  40aec2:	0e                   	push   cs
  40aec3:	64 01 00             	add    DWORD PTR fs:[eax],eax
  40aec6:	00 05 04 03 5f 6f    	add    BYTE PTR ds:0x6f5f0304,al
  40aecc:	66                   	data16
  40aecd:	66                   	data16
  40aece:	36                   	ss
  40aecf:	34 5f                	xor    al,0x5f
  40aed1:	74 00                	je     40aed3 <.debug_info+0x170>
  40aed3:	04 24                	add    al,0x24
  40aed5:	2a 01                	sub    al,BYTE PTR [ecx]
  40aed7:	00 00                	add    BYTE PTR [eax],al
  40aed9:	03 5f 66             	add    ebx,DWORD PTR [edi+0x66]
  40aedc:	70 6f                	jo     40af4d <.debug_info+0x1ea>
  40aede:	73 5f                	jae    40af3f <.debug_info+0x1dc>
  40aee0:	74 00                	je     40aee2 <.debug_info+0x17f>
  40aee2:	04 2c                	add    al,0x2c
  40aee4:	f2 00 00             	repnz add BYTE PTR [eax],al
  40aee7:	00 03                	add    BYTE PTR [ebx],al
  40aee9:	5f                   	pop    edi
  40aeea:	66                   	data16
  40aeeb:	70 6f                	jo     40af5c <.debug_info+0x1f9>
  40aeed:	73 36                	jae    40af25 <.debug_info+0x1c2>
  40aeef:	34 5f                	xor    al,0x5f
  40aef1:	74 00                	je     40aef3 <.debug_info+0x190>
  40aef3:	04 32                	add    al,0x32
  40aef5:	66 01 00             	add    WORD PTR [eax],ax
  40aef8:	00 03                	add    BYTE PTR [ebx],al
  40aefa:	5f                   	pop    edi
  40aefb:	73 73                	jae    40af70 <.debug_info+0x20d>
  40aefd:	69 7a 65 5f 74 00 04 	imul   edi,DWORD PTR [edx+0x65],0x400745f
  40af04:	38 b5 00 00 00 06    	cmp    BYTE PTR [ebp+0x6000000],dh
  40af0a:	77 69                	ja     40af75 <.debug_info+0x212>
  40af0c:	6e                   	outs   dx,BYTE PTR ds:[esi]
  40af0d:	74 5f                	je     40af6e <.debug_info+0x20b>
  40af0f:	74 00                	je     40af11 <.debug_info+0x1ae>
  40af11:	05 60 01 fe 00       	add    eax,0xfe0160
  40af16:	00 00                	add    BYTE PTR [eax],al
  40af18:	07                   	pop    es
  40af19:	04 04                	add    al,0x4
  40af1b:	46                   	inc    esi
  40af1c:	d9 01                	fld    DWORD PTR [ecx]
  40af1e:	00 00                	add    BYTE PTR [eax],al
  40af20:	08 5f 5f             	or     BYTE PTR [edi+0x5f],bl
  40af23:	77 63                	ja     40af88 <.debug_info+0x225>
  40af25:	68 00 04 48 a6       	push   0xa6480400
  40af2a:	01 00                	add    DWORD PTR [eax],eax
  40af2c:	00 08                	add    BYTE PTR [eax],cl
  40af2e:	5f                   	pop    edi
  40af2f:	5f                   	pop    edi
  40af30:	77 63                	ja     40af95 <.debug_info+0x232>
  40af32:	68 62 00 04 49       	push   0x49040062
  40af37:	d9 01                	fld    DWORD PTR [ecx]
  40af39:	00 00                	add    BYTE PTR [eax],al
  40af3b:	00 09                	add    BYTE PTR [ecx],cl
  40af3d:	c2 00 00             	ret    0x0
  40af40:	00 e9                	add    cl,ch
  40af42:	01 00                	add    DWORD PTR [eax],eax
  40af44:	00 0a                	add    BYTE PTR [edx],cl
  40af46:	fe 00                	inc    BYTE PTR [eax]
  40af48:	00 00                	add    BYTE PTR [eax],al
  40af4a:	03 00                	add    eax,DWORD PTR [eax]
  40af4c:	0b 08                	or     ecx,DWORD PTR [eax]
  40af4e:	04 43                	add    al,0x43
  40af50:	16                   	push   ss
  40af51:	02 00                	add    al,BYTE PTR [eax]
  40af53:	00 0c 5f             	add    BYTE PTR [edi+ebx*2],cl
  40af56:	5f                   	pop    edi
  40af57:	63 6f 75             	arpl   WORD PTR [edi+0x75],bp
  40af5a:	6e                   	outs   dx,BYTE PTR ds:[esi]
  40af5b:	74 00                	je     40af5d <.debug_info+0x1fa>
  40af5d:	04 45                	add    al,0x45
  40af5f:	b5 00                	mov    ch,0x0
  40af61:	00 00                	add    BYTE PTR [eax],al
  40af63:	02 23                	add    ah,BYTE PTR [ebx]
  40af65:	00 0c 5f             	add    BYTE PTR [edi+ebx*2],cl
  40af68:	5f                   	pop    edi
  40af69:	76 61                	jbe    40afcc <.debug_info+0x269>
  40af6b:	6c                   	ins    BYTE PTR es:[edi],dx
  40af6c:	75 65                	jne    40afd3 <.debug_info+0x270>
  40af6e:	00 04 4a             	add    BYTE PTR [edx+ecx*2],al
  40af71:	b5 01                	mov    ch,0x1
  40af73:	00 00                	add    BYTE PTR [eax],al
  40af75:	02 23                	add    ah,BYTE PTR [ebx]
  40af77:	04 00                	add    al,0x0
  40af79:	03 5f 6d             	add    ebx,DWORD PTR [edi+0x6d]
  40af7c:	62 73 74             	bound  esi,QWORD PTR [ebx+0x74]
  40af7f:	61                   	popa   
  40af80:	74 65                	je     40afe7 <.debug_info+0x284>
  40af82:	5f                   	pop    edi
  40af83:	74 00                	je     40af85 <.debug_info+0x222>
  40af85:	04 4b                	add    al,0x4b
  40af87:	e9 01 00 00 03       	jmp    340af8d <.debug_ranges+0x2ff9f8d>
  40af8c:	5f                   	pop    edi
  40af8d:	66                   	data16
  40af8e:	6c                   	ins    BYTE PTR es:[edi],dx
  40af8f:	6f                   	outs   dx,DWORD PTR ds:[esi]
  40af90:	63 6b 5f             	arpl   WORD PTR [ebx+0x5f],bp
  40af93:	74 00                	je     40af95 <.debug_info+0x232>
  40af95:	04 4f                	add    al,0x4f
  40af97:	55                   	push   ebp
  40af98:	01 00                	add    DWORD PTR [eax],eax
  40af9a:	00 03                	add    BYTE PTR [ebx],al
  40af9c:	5f                   	pop    edi
  40af9d:	5f                   	pop    edi
  40af9e:	55                   	push   ebp
  40af9f:	4c                   	dec    esp
  40afa0:	6f                   	outs   dx,DWORD PTR ds:[esi]
  40afa1:	6e                   	outs   dx,BYTE PTR ds:[esi]
  40afa2:	67 00 06 15 a0       	add    BYTE PTR ds:0xa015,al
  40afa7:	00 00                	add    BYTE PTR [eax],al
  40afa9:	00 0d 5f 42 69 67    	add    BYTE PTR ds:0x6769425f,cl
  40afaf:	69 6e 74 00 18 06 2c 	imul   ebp,DWORD PTR [esi+0x74],0x2c061800
  40afb6:	b3 02                	mov    bl,0x2
  40afb8:	00 00                	add    BYTE PTR [eax],al
  40afba:	0c 5f                	or     al,0x5f
  40afbc:	6e                   	outs   dx,BYTE PTR ds:[esi]
  40afbd:	65                   	gs
  40afbe:	78 74                	js     40b034 <.debug_info+0x2d1>
  40afc0:	00 06                	add    BYTE PTR [esi],al
  40afc2:	2e                   	cs
  40afc3:	b3 02                	mov    bl,0x2
  40afc5:	00 00                	add    BYTE PTR [eax],al
  40afc7:	02 23                	add    ah,BYTE PTR [ebx]
  40afc9:	00 0c 5f             	add    BYTE PTR [edi+ebx*2],cl
  40afcc:	6b 00 06             	imul   eax,DWORD PTR [eax],0x6
  40afcf:	2f                   	das    
  40afd0:	b5 00                	mov    ch,0x0
  40afd2:	00 00                	add    BYTE PTR [eax],al
  40afd4:	02 23                	add    ah,BYTE PTR [ebx]
  40afd6:	04 0c                	add    al,0xc
  40afd8:	5f                   	pop    edi
  40afd9:	6d                   	ins    DWORD PTR es:[edi],dx
  40afda:	61                   	popa   
  40afdb:	78 77                	js     40b054 <.debug_info+0x2f1>
  40afdd:	64                   	fs
  40afde:	73 00                	jae    40afe0 <.debug_info+0x27d>
  40afe0:	06                   	push   es
  40afe1:	2f                   	das    
  40afe2:	b5 00                	mov    ch,0x0
  40afe4:	00 00                	add    BYTE PTR [eax],al
  40afe6:	02 23                	add    ah,BYTE PTR [ebx]
  40afe8:	08 0c 5f             	or     BYTE PTR [edi+ebx*2],cl
  40afeb:	73 69                	jae    40b056 <.debug_info+0x2f3>
  40afed:	67 6e                	outs   dx,BYTE PTR ds:[si]
  40afef:	00 06                	add    BYTE PTR [esi],al
  40aff1:	2f                   	das    
  40aff2:	b5 00                	mov    ch,0x0
  40aff4:	00 00                	add    BYTE PTR [eax],al
  40aff6:	02 23                	add    ah,BYTE PTR [ebx]
  40aff8:	0c 0c                	or     al,0xc
  40affa:	5f                   	pop    edi
  40affb:	77 64                	ja     40b061 <.debug_info+0x2fe>
  40affd:	73 00                	jae    40afff <.debug_info+0x29c>
  40afff:	06                   	push   es
  40b000:	2f                   	das    
  40b001:	b5 00                	mov    ch,0x0
  40b003:	00 00                	add    BYTE PTR [eax],al
  40b005:	02 23                	add    ah,BYTE PTR [ebx]
  40b007:	10 0c 5f             	adc    BYTE PTR [edi+ebx*2],cl
  40b00a:	78 00                	js     40b00c <.debug_info+0x2a9>
  40b00c:	06                   	push   es
  40b00d:	30 b9 02 00 00 02    	xor    BYTE PTR [ecx+0x2000002],bh
  40b013:	23 14 00             	and    edx,DWORD PTR [eax+eax*1]
  40b016:	04 04                	add    al,0x4
  40b018:	47                   	inc    edi
  40b019:	02 00                	add    al,BYTE PTR [eax]
  40b01b:	00 09                	add    BYTE PTR [ecx],cl
  40b01d:	38 02                	cmp    BYTE PTR [edx],al
  40b01f:	00 00                	add    BYTE PTR [eax],al
  40b021:	c9                   	leave  
  40b022:	02 00                	add    al,BYTE PTR [eax]
  40b024:	00 0a                	add    BYTE PTR [edx],cl
  40b026:	fe 00                	inc    BYTE PTR [eax]
  40b028:	00 00                	add    BYTE PTR [eax],al
  40b02a:	00 00                	add    BYTE PTR [eax],al
  40b02c:	0d 5f 5f 74 6d       	or     eax,0x6d745f5f
  40b031:	00 24 06             	add    BYTE PTR [esi+eax*1],ah
  40b034:	34 89                	xor    al,0x89
  40b036:	03 00                	add    eax,DWORD PTR [eax]
  40b038:	00 0c 5f             	add    BYTE PTR [edi+ebx*2],cl
  40b03b:	5f                   	pop    edi
  40b03c:	74 6d                	je     40b0ab <.debug_info+0x348>
  40b03e:	5f                   	pop    edi
  40b03f:	73 65                	jae    40b0a6 <.debug_info+0x343>
  40b041:	63 00                	arpl   WORD PTR [eax],ax
  40b043:	06                   	push   es
  40b044:	36                   	ss
  40b045:	b5 00                	mov    ch,0x0
  40b047:	00 00                	add    BYTE PTR [eax],al
  40b049:	02 23                	add    ah,BYTE PTR [ebx]
  40b04b:	00 0c 5f             	add    BYTE PTR [edi+ebx*2],cl
  40b04e:	5f                   	pop    edi
  40b04f:	74 6d                	je     40b0be <.debug_info+0x35b>
  40b051:	5f                   	pop    edi
  40b052:	6d                   	ins    DWORD PTR es:[edi],dx
  40b053:	69 6e 00 06 37 b5 00 	imul   ebp,DWORD PTR [esi+0x0],0xb53706
  40b05a:	00 00                	add    BYTE PTR [eax],al
  40b05c:	02 23                	add    ah,BYTE PTR [ebx]
  40b05e:	04 0c                	add    al,0xc
  40b060:	5f                   	pop    edi
  40b061:	5f                   	pop    edi
  40b062:	74 6d                	je     40b0d1 <.debug_info+0x36e>
  40b064:	5f                   	pop    edi
  40b065:	68 6f 75 72 00       	push   0x72756f
  40b06a:	06                   	push   es
  40b06b:	38 b5 00 00 00 02    	cmp    BYTE PTR [ebp+0x2000000],dh
  40b071:	23 08                	and    ecx,DWORD PTR [eax]
  40b073:	0c 5f                	or     al,0x5f
  40b075:	5f                   	pop    edi
  40b076:	74 6d                	je     40b0e5 <.debug_info+0x382>
  40b078:	5f                   	pop    edi
  40b079:	6d                   	ins    DWORD PTR es:[edi],dx
  40b07a:	64                   	fs
  40b07b:	61                   	popa   
  40b07c:	79 00                	jns    40b07e <.debug_info+0x31b>
  40b07e:	06                   	push   es
  40b07f:	39 b5 00 00 00 02    	cmp    DWORD PTR [ebp+0x2000000],esi
  40b085:	23 0c 0c             	and    ecx,DWORD PTR [esp+ecx*1]
  40b088:	5f                   	pop    edi
  40b089:	5f                   	pop    edi
  40b08a:	74 6d                	je     40b0f9 <.debug_info+0x396>
  40b08c:	5f                   	pop    edi
  40b08d:	6d                   	ins    DWORD PTR es:[edi],dx
  40b08e:	6f                   	outs   dx,DWORD PTR ds:[esi]
  40b08f:	6e                   	outs   dx,BYTE PTR ds:[esi]
  40b090:	00 06                	add    BYTE PTR [esi],al
  40b092:	3a b5 00 00 00 02    	cmp    dh,BYTE PTR [ebp+0x2000000]
  40b098:	23 10                	and    edx,DWORD PTR [eax]
  40b09a:	0c 5f                	or     al,0x5f
  40b09c:	5f                   	pop    edi
  40b09d:	74 6d                	je     40b10c <.debug_info+0x3a9>
  40b09f:	5f                   	pop    edi
  40b0a0:	79 65                	jns    40b107 <.debug_info+0x3a4>
  40b0a2:	61                   	popa   
  40b0a3:	72 00                	jb     40b0a5 <.debug_info+0x342>
  40b0a5:	06                   	push   es
  40b0a6:	3b b5 00 00 00 02    	cmp    esi,DWORD PTR [ebp+0x2000000]
  40b0ac:	23 14 0c             	and    edx,DWORD PTR [esp+ecx*1]
  40b0af:	5f                   	pop    edi
  40b0b0:	5f                   	pop    edi
  40b0b1:	74 6d                	je     40b120 <.debug_info+0x3bd>
  40b0b3:	5f                   	pop    edi
  40b0b4:	77 64                	ja     40b11a <.debug_info+0x3b7>
  40b0b6:	61                   	popa   
  40b0b7:	79 00                	jns    40b0b9 <.debug_info+0x356>
  40b0b9:	06                   	push   es
  40b0ba:	3c b5                	cmp    al,0xb5
  40b0bc:	00 00                	add    BYTE PTR [eax],al
  40b0be:	00 02                	add    BYTE PTR [edx],al
  40b0c0:	23 18                	and    ebx,DWORD PTR [eax]
  40b0c2:	0c 5f                	or     al,0x5f
  40b0c4:	5f                   	pop    edi
  40b0c5:	74 6d                	je     40b134 <.debug_info+0x3d1>
  40b0c7:	5f                   	pop    edi
  40b0c8:	79 64                	jns    40b12e <.debug_info+0x3cb>
  40b0ca:	61                   	popa   
  40b0cb:	79 00                	jns    40b0cd <.debug_info+0x36a>
  40b0cd:	06                   	push   es
  40b0ce:	3d b5 00 00 00       	cmp    eax,0xb5
  40b0d3:	02 23                	add    ah,BYTE PTR [ebx]
  40b0d5:	1c 0c                	sbb    al,0xc
  40b0d7:	5f                   	pop    edi
  40b0d8:	5f                   	pop    edi
  40b0d9:	74 6d                	je     40b148 <.debug_info+0x3e5>
  40b0db:	5f                   	pop    edi
  40b0dc:	69 73 64 73 74 00 06 	imul   esi,DWORD PTR [ebx+0x64],0x6007473
  40b0e3:	3e                   	ds
  40b0e4:	b5 00                	mov    ch,0x0
  40b0e6:	00 00                	add    BYTE PTR [eax],al
  40b0e8:	02 23                	add    ah,BYTE PTR [ebx]
  40b0ea:	20 00                	and    BYTE PTR [eax],al
  40b0ec:	0e                   	push   cs
  40b0ed:	2a 00                	sub    al,BYTE PTR [eax]
  40b0ef:	00 00                	add    BYTE PTR [eax],al
  40b0f1:	08 01                	or     BYTE PTR [ecx],al
  40b0f3:	06                   	push   es
  40b0f4:	47                   	inc    edi
  40b0f5:	e7 03                	out    0x3,eax
  40b0f7:	00 00                	add    BYTE PTR [eax],al
  40b0f9:	0c 5f                	or     al,0x5f
  40b0fb:	66                   	data16
  40b0fc:	6e                   	outs   dx,BYTE PTR ds:[esi]
  40b0fd:	61                   	popa   
  40b0fe:	72 67                	jb     40b167 <.debug_info+0x404>
  40b100:	73 00                	jae    40b102 <.debug_info+0x39f>
  40b102:	06                   	push   es
  40b103:	48                   	dec    eax
  40b104:	e7 03                	out    0x3,eax
  40b106:	00 00                	add    BYTE PTR [eax],al
  40b108:	02 23                	add    ah,BYTE PTR [ebx]
  40b10a:	00 0c 5f             	add    BYTE PTR [edi+ebx*2],cl
  40b10d:	64                   	fs
  40b10e:	73 6f                	jae    40b17f <.debug_info+0x41c>
  40b110:	5f                   	pop    edi
  40b111:	68 61 6e 64 6c       	push   0x6c646e61
  40b116:	65 00 06             	add    BYTE PTR gs:[esi],al
  40b119:	49                   	dec    ecx
  40b11a:	e7 03                	out    0x3,eax
  40b11c:	00 00                	add    BYTE PTR [eax],al
  40b11e:	03 23                	add    esp,DWORD PTR [ebx]
  40b120:	80 01 0c             	add    BYTE PTR [ecx],0xc
  40b123:	5f                   	pop    edi
  40b124:	66                   	data16
  40b125:	6e                   	outs   dx,BYTE PTR ds:[esi]
  40b126:	74 79                	je     40b1a1 <.debug_info+0x43e>
  40b128:	70 65                	jo     40b18f <.debug_info+0x42c>
  40b12a:	73 00                	jae    40b12c <.debug_info+0x3c9>
  40b12c:	06                   	push   es
  40b12d:	4b                   	dec    ebx
  40b12e:	38 02                	cmp    BYTE PTR [edx],al
  40b130:	00 00                	add    BYTE PTR [eax],al
  40b132:	03 23                	add    esp,DWORD PTR [ebx]
  40b134:	80 02 0c             	add    BYTE PTR [edx],0xc
  40b137:	5f                   	pop    edi
  40b138:	69 73 5f 63 78 61 00 	imul   esi,DWORD PTR [ebx+0x5f],0x617863
  40b13f:	06                   	push   es
  40b140:	4e                   	dec    esi
  40b141:	38 02                	cmp    BYTE PTR [edx],al
  40b143:	00 00                	add    BYTE PTR [eax],al
  40b145:	03 23                	add    esp,DWORD PTR [ebx]
  40b147:	84 02                	test   BYTE PTR [edx],al
  40b149:	00 09                	add    BYTE PTR [ecx],cl
  40b14b:	64 01 00             	add    DWORD PTR fs:[eax],eax
  40b14e:	00 f7                	add    bh,dh
  40b150:	03 00                	add    eax,DWORD PTR [eax]
  40b152:	00 0a                	add    BYTE PTR [edx],cl
  40b154:	fe 00                	inc    BYTE PTR [eax]
  40b156:	00 00                	add    BYTE PTR [eax],al
  40b158:	1f                   	pop    ds
  40b159:	00 0f                	add    BYTE PTR [edi],cl
  40b15b:	5f                   	pop    edi
  40b15c:	61                   	popa   
  40b15d:	74 65                	je     40b1c4 <.debug_info+0x461>
  40b15f:	78 69                	js     40b1ca <.debug_info+0x467>
  40b161:	74 00                	je     40b163 <.debug_info+0x400>
  40b163:	90                   	nop
  40b164:	01 06                	add    DWORD PTR [esi],eax
  40b166:	59                   	pop    ecx
  40b167:	46                   	inc    esi
  40b168:	04 00                	add    al,0x0
  40b16a:	00 0c 5f             	add    BYTE PTR [edi+ebx*2],cl
  40b16d:	6e                   	outs   dx,BYTE PTR ds:[esi]
  40b16e:	65                   	gs
  40b16f:	78 74                	js     40b1e5 <.debug_info+0x482>
  40b171:	00 06                	add    BYTE PTR [esi],al
  40b173:	5a                   	pop    edx
  40b174:	46                   	inc    esi
  40b175:	04 00                	add    al,0x0
  40b177:	00 02                	add    BYTE PTR [edx],al
  40b179:	23 00                	and    eax,DWORD PTR [eax]
  40b17b:	0c 5f                	or     al,0x5f
  40b17d:	69 6e 64 00 06 5b b5 	imul   ebp,DWORD PTR [esi+0x64],0xb55b0600
  40b184:	00 00                	add    BYTE PTR [eax],al
  40b186:	00 02                	add    BYTE PTR [edx],al
  40b188:	23 04 0c             	and    eax,DWORD PTR [esp+ecx*1]
  40b18b:	5f                   	pop    edi
  40b18c:	66                   	data16
  40b18d:	6e                   	outs   dx,BYTE PTR ds:[esi]
  40b18e:	73 00                	jae    40b190 <.debug_info+0x42d>
  40b190:	06                   	push   es
  40b191:	5d                   	pop    ebp
  40b192:	4c                   	dec    esp
  40b193:	04 00                	add    al,0x0
  40b195:	00 02                	add    BYTE PTR [edx],al
  40b197:	23 08                	and    ecx,DWORD PTR [eax]
  40b199:	10 2a                	adc    BYTE PTR [edx],ch
  40b19b:	00 00                	add    BYTE PTR [eax],al
  40b19d:	00 06                	add    BYTE PTR [esi],al
  40b19f:	5e                   	pop    esi
  40b1a0:	89 03                	mov    DWORD PTR [ebx],eax
  40b1a2:	00 00                	add    BYTE PTR [eax],al
  40b1a4:	03 23                	add    esp,DWORD PTR [ebx]
  40b1a6:	88 01                	mov    BYTE PTR [ecx],al
  40b1a8:	00 04 04             	add    BYTE PTR [esp+eax*1],al
  40b1ab:	f7 03 00 00 09 5e    	test   DWORD PTR [ebx],0x5e090000
  40b1b1:	04 00                	add    al,0x0
  40b1b3:	00 5c 04 00          	add    BYTE PTR [esp+eax*1+0x0],bl
  40b1b7:	00 0a                	add    BYTE PTR [edx],cl
  40b1b9:	fe 00                	inc    BYTE PTR [eax]
  40b1bb:	00 00                	add    BYTE PTR [eax],al
  40b1bd:	1f                   	pop    ds
  40b1be:	00 11                	add    BYTE PTR [ecx],dl
  40b1c0:	01 04 04             	add    DWORD PTR [esp+eax*1],eax
  40b1c3:	5c                   	pop    esp
  40b1c4:	04 00                	add    al,0x0
  40b1c6:	00 0d 5f 5f 73 62    	add    BYTE PTR ds:0x62735f5f,cl
  40b1cc:	75 66                	jne    40b234 <.debug_info+0x4d1>
  40b1ce:	00 08                	add    BYTE PTR [eax],cl
  40b1d0:	06                   	push   es
  40b1d1:	69 94 04 00 00 0c 5f 	imul   edx,DWORD PTR [esp+eax*1+0x5f0c0000],0x65736162
  40b1d8:	62 61 73 65 
  40b1dc:	00 06                	add    BYTE PTR [esi],al
  40b1de:	6a 94                	push   0xffffff94
  40b1e0:	04 00                	add    al,0x0
  40b1e2:	00 02                	add    BYTE PTR [edx],al
  40b1e4:	23 00                	and    eax,DWORD PTR [eax]
  40b1e6:	0c 5f                	or     al,0x5f
  40b1e8:	73 69                	jae    40b253 <.debug_info+0x4f0>
  40b1ea:	7a 65                	jp     40b251 <.debug_info+0x4ee>
  40b1ec:	00 06                	add    BYTE PTR [esi],al
  40b1ee:	6b b5 00 00 00 02 23 	imul   esi,DWORD PTR [ebp+0x2000000],0x23
  40b1f5:	04 00                	add    al,0x0
  40b1f7:	04 04                	add    al,0x4
  40b1f9:	c2 00 00             	ret    0x0
  40b1fc:	00 12                	add    BYTE PTR [edx],dl
  40b1fe:	01 96 01 00 00 b9    	add    DWORD PTR [esi-0x46ffffff],edx
  40b204:	04 00                	add    al,0x0
  40b206:	00 13                	add    BYTE PTR [ebx],dl
  40b208:	b9 04 00 00 13       	mov    ecx,0x13000004
  40b20d:	64 01 00             	add    DWORD PTR fs:[eax],eax
  40b210:	00 13                	add    BYTE PTR [ebx],dl
  40b212:	8b 06                	mov    eax,DWORD PTR [esi]
  40b214:	00 00                	add    BYTE PTR [eax],al
  40b216:	13 b5 00 00 00 00    	adc    esi,DWORD PTR [ebp+0x0]
  40b21c:	04 04                	add    al,0x4
  40b21e:	bf 04 00 00 14       	mov    edi,0x14000004
  40b223:	5f                   	pop    edi
  40b224:	72 65                	jb     40b28b <.debug_info+0x528>
  40b226:	65 6e                	outs   dx,BYTE PTR gs:[esi]
  40b228:	74 00                	je     40b22a <.debug_info+0x4c7>
  40b22a:	40                   	inc    eax
  40b22b:	04 06                	add    al,0x6
  40b22d:	44                   	inc    esp
  40b22e:	02 8b 06 00 00 15    	add    cl,BYTE PTR [ebx+0x15000006]
  40b234:	5f                   	pop    edi
  40b235:	65                   	gs
  40b236:	72 72                	jb     40b2aa <.debug_info+0x547>
  40b238:	6e                   	outs   dx,BYTE PTR ds:[esi]
  40b239:	6f                   	outs   dx,DWORD PTR ds:[esi]
  40b23a:	00 06                	add    BYTE PTR [esi],al
  40b23c:	46                   	inc    esi
  40b23d:	02 b5 00 00 00 02    	add    dh,BYTE PTR [ebp+0x2000000]
  40b243:	23 00                	and    eax,DWORD PTR [eax]
  40b245:	15 5f 73 74 64       	adc    eax,0x6474735f
  40b24a:	69 6e 00 06 4b 02 50 	imul   ebp,DWORD PTR [esi+0x0],0x50024b06
  40b251:	09 00                	or     DWORD PTR [eax],eax
  40b253:	00 02                	add    BYTE PTR [edx],al
  40b255:	23 04 15 5f 73 74 64 	and    eax,DWORD PTR [edx*1+0x6474735f]
  40b25c:	6f                   	outs   dx,DWORD PTR ds:[esi]
  40b25d:	75 74                	jne    40b2d3 <.debug_info+0x570>
  40b25f:	00 06                	add    BYTE PTR [esi],al
  40b261:	4b                   	dec    ebx
  40b262:	02 50 09             	add    dl,BYTE PTR [eax+0x9]
  40b265:	00 00                	add    BYTE PTR [eax],al
  40b267:	02 23                	add    ah,BYTE PTR [ebx]
  40b269:	08 15 5f 73 74 64    	or     BYTE PTR ds:0x6474735f,dl
  40b26f:	65                   	gs
  40b270:	72 72                	jb     40b2e4 <.debug_info+0x581>
  40b272:	00 06                	add    BYTE PTR [esi],al
  40b274:	4b                   	dec    ebx
  40b275:	02 50 09             	add    dl,BYTE PTR [eax+0x9]
  40b278:	00 00                	add    BYTE PTR [eax],al
  40b27a:	02 23                	add    ah,BYTE PTR [ebx]
  40b27c:	0c 15                	or     al,0x15
  40b27e:	5f                   	pop    edi
  40b27f:	69 6e 63 00 06 4d 02 	imul   ebp,DWORD PTR [esi+0x63],0x24d0600
  40b286:	b5 00                	mov    ch,0x0
  40b288:	00 00                	add    BYTE PTR [eax],al
  40b28a:	02 23                	add    ah,BYTE PTR [ebx]
  40b28c:	10 15 5f 65 6d 65    	adc    BYTE PTR ds:0x656d655f,dl
  40b292:	72 67                	jb     40b2fb <.debug_info+0x598>
  40b294:	65 6e                	outs   dx,BYTE PTR gs:[esi]
  40b296:	63 79 00             	arpl   WORD PTR [ecx+0x0],di
  40b299:	06                   	push   es
  40b29a:	4e                   	dec    esi
  40b29b:	02 2f                	add    ch,BYTE PTR [edi]
  40b29d:	0c 00                	or     al,0x0
  40b29f:	00 02                	add    BYTE PTR [edx],al
  40b2a1:	23 14 15 5f 63 75 72 	and    edx,DWORD PTR [edx*1+0x7275635f]
  40b2a8:	72 65                	jb     40b30f <.debug_info+0x5ac>
  40b2aa:	6e                   	outs   dx,BYTE PTR ds:[esi]
  40b2ab:	74 5f                	je     40b30c <.debug_info+0x5a9>
  40b2ad:	63 61 74             	arpl   WORD PTR [ecx+0x74],sp
  40b2b0:	65 67 6f             	outs   dx,DWORD PTR gs:[si]
  40b2b3:	72 79                	jb     40b32e <.debug_info+0x5cb>
  40b2b5:	00 06                	add    BYTE PTR [esi],al
  40b2b7:	50                   	push   eax
  40b2b8:	02 b5 00 00 00 02    	add    dh,BYTE PTR [ebp+0x2000000]
  40b2be:	23 30                	and    esi,DWORD PTR [eax]
  40b2c0:	15 5f 63 75 72       	adc    eax,0x7275635f
  40b2c5:	72 65                	jb     40b32c <.debug_info+0x5c9>
  40b2c7:	6e                   	outs   dx,BYTE PTR ds:[esi]
  40b2c8:	74 5f                	je     40b329 <.debug_info+0x5c6>
  40b2ca:	6c                   	ins    BYTE PTR es:[edi],dx
  40b2cb:	6f                   	outs   dx,DWORD PTR ds:[esi]
  40b2cc:	63 61 6c             	arpl   WORD PTR [ecx+0x6c],sp
  40b2cf:	65 00 06             	add    BYTE PTR gs:[esi],al
  40b2d2:	51                   	push   ecx
  40b2d3:	02 b6 06 00 00 02    	add    dh,BYTE PTR [esi+0x2000006]
  40b2d9:	23 34 15 5f 5f 73 64 	and    esi,DWORD PTR [edx*1+0x64735f5f]
  40b2e0:	69 64 69 6e 69 74 00 	imul   esp,DWORD PTR [ecx+ebp*2+0x6e],0x6007469
  40b2e7:	06 
  40b2e8:	53                   	push   ebx
  40b2e9:	02 b5 00 00 00 02    	add    dh,BYTE PTR [ebp+0x2000000]
  40b2ef:	23 38                	and    edi,DWORD PTR [eax]
  40b2f1:	15 5f 5f 63 6c       	adc    eax,0x6c635f5f
  40b2f6:	65                   	gs
  40b2f7:	61                   	popa   
  40b2f8:	6e                   	outs   dx,BYTE PTR ds:[esi]
  40b2f9:	75 70                	jne    40b36b <.debug_info+0x608>
  40b2fb:	00 06                	add    BYTE PTR [esi],al
  40b2fd:	55                   	push   ebp
  40b2fe:	02 4b 0c             	add    cl,BYTE PTR [ebx+0xc]
  40b301:	00 00                	add    BYTE PTR [eax],al
  40b303:	02 23                	add    ah,BYTE PTR [ebx]
  40b305:	3c 15                	cmp    al,0x15
  40b307:	5f                   	pop    edi
  40b308:	72 65                	jb     40b36f <.debug_info+0x60c>
  40b30a:	73 75                	jae    40b381 <.debug_info+0x61e>
  40b30c:	6c                   	ins    BYTE PTR es:[edi],dx
  40b30d:	74 00                	je     40b30f <.debug_info+0x5ac>
  40b30f:	06                   	push   es
  40b310:	58                   	pop    eax
  40b311:	02 b3 02 00 00 02    	add    dh,BYTE PTR [ebx+0x2000002]
  40b317:	23 40 15             	and    eax,DWORD PTR [eax+0x15]
  40b31a:	5f                   	pop    edi
  40b31b:	72 65                	jb     40b382 <.debug_info+0x61f>
  40b31d:	73 75                	jae    40b394 <.debug_info+0x631>
  40b31f:	6c                   	ins    BYTE PTR es:[edi],dx
  40b320:	74 5f                	je     40b381 <.debug_info+0x61e>
  40b322:	6b 00 06             	imul   eax,DWORD PTR [eax],0x6
  40b325:	59                   	pop    ecx
  40b326:	02 b5 00 00 00 02    	add    dh,BYTE PTR [ebp+0x2000000]
  40b32c:	23 44 15 5f          	and    eax,DWORD PTR [ebp+edx*1+0x5f]
  40b330:	70 35                	jo     40b367 <.debug_info+0x604>
  40b332:	73 00                	jae    40b334 <.debug_info+0x5d1>
  40b334:	06                   	push   es
  40b335:	5a                   	pop    edx
  40b336:	02 b3 02 00 00 02    	add    dh,BYTE PTR [ebx+0x2000002]
  40b33c:	23 48 15             	and    ecx,DWORD PTR [eax+0x15]
  40b33f:	5f                   	pop    edi
  40b340:	66                   	data16
  40b341:	72 65                	jb     40b3a8 <.debug_info+0x645>
  40b343:	65                   	gs
  40b344:	6c                   	ins    BYTE PTR es:[edi],dx
  40b345:	69 73 74 00 06 5b 02 	imul   esi,DWORD PTR [ebx+0x74],0x25b0600
  40b34c:	51                   	push   ecx
  40b34d:	0c 00                	or     al,0x0
  40b34f:	00 02                	add    BYTE PTR [edx],al
  40b351:	23 4c 15 5f          	and    ecx,DWORD PTR [ebp+edx*1+0x5f]
  40b355:	63 76 74             	arpl   WORD PTR [esi+0x74],si
  40b358:	6c                   	ins    BYTE PTR es:[edi],dx
  40b359:	65 6e                	outs   dx,BYTE PTR gs:[esi]
  40b35b:	00 06                	add    BYTE PTR [esi],al
  40b35d:	5e                   	pop    esi
  40b35e:	02 b5 00 00 00 02    	add    dh,BYTE PTR [ebp+0x2000000]
  40b364:	23 50 15             	and    edx,DWORD PTR [eax+0x15]
  40b367:	5f                   	pop    edi
  40b368:	63 76 74             	arpl   WORD PTR [esi+0x74],si
  40b36b:	62 75 66             	bound  esi,QWORD PTR [ebp+0x66]
  40b36e:	00 06                	add    BYTE PTR [esi],al
  40b370:	5f                   	pop    edi
  40b371:	02 8b 06 00 00 02    	add    cl,BYTE PTR [ebx+0x2000006]
  40b377:	23 54 15 5f          	and    edx,DWORD PTR [ebp+edx*1+0x5f]
  40b37b:	6e                   	outs   dx,BYTE PTR ds:[esi]
  40b37c:	65                   	gs
  40b37d:	77 00                	ja     40b37f <.debug_info+0x61c>
  40b37f:	06                   	push   es
  40b380:	82                   	(bad)  
  40b381:	02 06                	add    al,BYTE PTR [esi]
  40b383:	0c 00                	or     al,0x0
  40b385:	00 02                	add    BYTE PTR [edx],al
  40b387:	23 58 15             	and    ebx,DWORD PTR [eax+0x15]
  40b38a:	5f                   	pop    edi
  40b38b:	61                   	popa   
  40b38c:	74 65                	je     40b3f3 <.debug_info+0x690>
  40b38e:	78 69                	js     40b3f9 <.debug_info+0x696>
  40b390:	74 00                	je     40b392 <.debug_info+0x62f>
  40b392:	06                   	push   es
  40b393:	85 02                	test   DWORD PTR [edx],eax
  40b395:	46                   	inc    esi
  40b396:	04 00                	add    al,0x0
  40b398:	00 03                	add    BYTE PTR [ebx],al
  40b39a:	23 c8                	and    ecx,eax
  40b39c:	02 15 5f 61 74 65    	add    dl,BYTE PTR ds:0x6574615f
  40b3a2:	78 69                	js     40b40d <.debug_info+0x6aa>
  40b3a4:	74 30                	je     40b3d6 <.debug_info+0x673>
  40b3a6:	00 06                	add    BYTE PTR [esi],al
  40b3a8:	86 02                	xchg   BYTE PTR [edx],al
  40b3aa:	f7 03 00 00 03 23    	test   DWORD PTR [ebx],0x23030000
  40b3b0:	cc                   	int3   
  40b3b1:	02 15 5f 73 69 67    	add    dl,BYTE PTR ds:0x6769735f
  40b3b7:	5f                   	pop    edi
  40b3b8:	66                   	data16
  40b3b9:	75 6e                	jne    40b429 <.debug_info+0x6c6>
  40b3bb:	63 00                	arpl   WORD PTR [eax],ax
  40b3bd:	06                   	push   es
  40b3be:	89 02                	mov    DWORD PTR [edx],eax
  40b3c0:	63 0c 00             	arpl   WORD PTR [eax+eax*1],cx
  40b3c3:	00 03                	add    BYTE PTR [ebx],al
  40b3c5:	23 dc                	and    ebx,esp
  40b3c7:	05 15 5f 5f 73       	add    eax,0x735f5f15
  40b3cc:	67 6c                	ins    BYTE PTR es:[di],dx
  40b3ce:	75 65                	jne    40b435 <.debug_info+0x6d2>
  40b3d0:	00 06                	add    BYTE PTR [esi],al
  40b3d2:	8e 02                	mov    es,WORD PTR [edx]
  40b3d4:	06                   	push   es
  40b3d5:	09 00                	or     DWORD PTR [eax],eax
  40b3d7:	00 03                	add    BYTE PTR [ebx],al
  40b3d9:	23 e0                	and    esp,eax
  40b3db:	05 15 5f 5f 73       	add    eax,0x735f5f15
  40b3e0:	66                   	data16
  40b3e1:	00 06                	add    BYTE PTR [esi],al
  40b3e3:	8f 02                	pop    DWORD PTR [edx]
  40b3e5:	6f                   	outs   dx,DWORD PTR ds:[esi]
  40b3e6:	0c 00                	or     al,0x0
  40b3e8:	00 03                	add    BYTE PTR [ebx],al
  40b3ea:	23 f0                	and    esi,eax
  40b3ec:	05 00 04 04 8b       	add    eax,0x8b040400
  40b3f1:	00 00                	add    BYTE PTR [eax],al
  40b3f3:	00 04 04             	add    BYTE PTR [esp+eax*1],al
  40b3f6:	9a 04 00 00 12 01 96 	call   0x9601:0x12000004
  40b3fd:	01 00                	add    DWORD PTR [eax],eax
  40b3ff:	00 b6 06 00 00 13    	add    BYTE PTR [esi+0x13000006],dh
  40b405:	b9 04 00 00 13       	mov    ecx,0x13000004
  40b40a:	64 01 00             	add    DWORD PTR fs:[eax],eax
  40b40d:	00 13                	add    BYTE PTR [ebx],dl
  40b40f:	b6 06                	mov    dh,0x6
  40b411:	00 00                	add    BYTE PTR [eax],al
  40b413:	13 b5 00 00 00 00    	adc    esi,DWORD PTR [ebp+0x0]
  40b419:	04 04                	add    al,0x4
  40b41b:	bc 06 00 00 16       	mov    esp,0x16000006
  40b420:	8b 00                	mov    eax,DWORD PTR [eax]
  40b422:	00 00                	add    BYTE PTR [eax],al
  40b424:	04 04                	add    al,0x4
  40b426:	97                   	xchg   edi,eax
  40b427:	06                   	push   es
  40b428:	00 00                	add    BYTE PTR [eax],al
  40b42a:	12 01                	adc    al,BYTE PTR [ecx]
  40b42c:	76 01                	jbe    40b42f <.debug_info+0x6cc>
  40b42e:	00 00                	add    BYTE PTR [eax],al
  40b430:	e6 06                	out    0x6,al
  40b432:	00 00                	add    BYTE PTR [eax],al
  40b434:	13 b9 04 00 00 13    	adc    edi,DWORD PTR [ecx+0x13000004]
  40b43a:	64 01 00             	add    DWORD PTR fs:[eax],eax
  40b43d:	00 13                	add    BYTE PTR [ebx],dl
  40b43f:	76 01                	jbe    40b442 <.debug_info+0x6df>
  40b441:	00 00                	add    BYTE PTR [eax],al
  40b443:	13 b5 00 00 00 00    	adc    esi,DWORD PTR [ebp+0x0]
  40b449:	04 04                	add    al,0x4
  40b44b:	c7 06 00 00 12 01    	mov    DWORD PTR [esi],0x1120000
  40b451:	b5 00                	mov    ch,0x0
  40b453:	00 00                	add    BYTE PTR [eax],al
  40b455:	01 07                	add    DWORD PTR [edi],eax
  40b457:	00 00                	add    BYTE PTR [eax],al
  40b459:	13 b9 04 00 00 13    	adc    edi,DWORD PTR [ecx+0x13000004]
  40b45f:	64 01 00             	add    DWORD PTR fs:[eax],eax
  40b462:	00 00                	add    BYTE PTR [eax],al
  40b464:	04 04                	add    al,0x4
  40b466:	ec                   	in     al,dx
  40b467:	06                   	push   es
  40b468:	00 00                	add    BYTE PTR [eax],al
  40b46a:	09 c2                	or     edx,eax
  40b46c:	00 00                	add    BYTE PTR [eax],al
  40b46e:	00 17                	add    BYTE PTR [edi],dl
  40b470:	07                   	pop    es
  40b471:	00 00                	add    BYTE PTR [eax],al
  40b473:	0a fe                	or     bh,dh
  40b475:	00 00                	add    BYTE PTR [eax],al
  40b477:	00 02                	add    BYTE PTR [edx],al
  40b479:	00 09                	add    BYTE PTR [ecx],cl
  40b47b:	c2 00 00             	ret    0x0
  40b47e:	00 27                	add    BYTE PTR [edi],ah
  40b480:	07                   	pop    es
  40b481:	00 00                	add    BYTE PTR [eax],al
  40b483:	0a fe                	or     bh,dh
  40b485:	00 00                	add    BYTE PTR [eax],al
  40b487:	00 00                	add    BYTE PTR [eax],al
  40b489:	00 0d 5f 5f 73 46    	add    BYTE PTR ds:0x46735f5f,cl
  40b48f:	49                   	dec    ecx
  40b490:	4c                   	dec    esp
  40b491:	45                   	inc    ebp
  40b492:	36                   	ss
  40b493:	34 00                	xor    al,0x0
  40b495:	70 06                	jo     40b49d <.debug_info+0x73a>
  40b497:	e2 d2                	loop   40b46b <.debug_info+0x708>
  40b499:	08 00                	or     BYTE PTR [eax],al
  40b49b:	00 0c 5f             	add    BYTE PTR [edi+ebx*2],cl
  40b49e:	70 00                	jo     40b4a0 <.debug_info+0x73d>
  40b4a0:	06                   	push   es
  40b4a1:	e3 94                	jecxz  40b437 <.debug_info+0x6d4>
  40b4a3:	04 00                	add    al,0x0
  40b4a5:	00 02                	add    BYTE PTR [edx],al
  40b4a7:	23 00                	and    eax,DWORD PTR [eax]
  40b4a9:	0c 5f                	or     al,0x5f
  40b4ab:	72 00                	jb     40b4ad <.debug_info+0x74a>
  40b4ad:	06                   	push   es
  40b4ae:	e4 b5                	in     al,0xb5
  40b4b0:	00 00                	add    BYTE PTR [eax],al
  40b4b2:	00 02                	add    BYTE PTR [edx],al
  40b4b4:	23 04 0c             	and    eax,DWORD PTR [esp+ecx*1]
  40b4b7:	5f                   	pop    edi
  40b4b8:	77 00                	ja     40b4ba <.debug_info+0x757>
  40b4ba:	06                   	push   es
  40b4bb:	e5 b5                	in     eax,0xb5
  40b4bd:	00 00                	add    BYTE PTR [eax],al
  40b4bf:	00 02                	add    BYTE PTR [edx],al
  40b4c1:	23 08                	and    ecx,DWORD PTR [eax]
  40b4c3:	0c 5f                	or     al,0x5f
  40b4c5:	66                   	data16
  40b4c6:	6c                   	ins    BYTE PTR es:[edi],dx
  40b4c7:	61                   	popa   
  40b4c8:	67 73 00             	addr16 jae 40b4cb <.debug_info+0x768>
  40b4cb:	06                   	push   es
  40b4cc:	e6 1d                	out    0x1d,al
  40b4ce:	01 00                	add    DWORD PTR [eax],eax
  40b4d0:	00 02                	add    BYTE PTR [edx],al
  40b4d2:	23 0c 0c             	and    ecx,DWORD PTR [esp+ecx*1]
  40b4d5:	5f                   	pop    edi
  40b4d6:	66 69 6c 65 00 06 e7 	imul   bp,WORD PTR [ebp+eiz*2+0x0],0xe706
  40b4dd:	1d 01 00 00 02       	sbb    eax,0x2000001
  40b4e2:	23 0e                	and    ecx,DWORD PTR [esi]
  40b4e4:	0c 5f                	or     al,0x5f
  40b4e6:	62 66 00             	bound  esp,QWORD PTR [esi+0x0]
  40b4e9:	06                   	push   es
  40b4ea:	e8 64 04 00 00       	call   40b953 <.debug_info+0xbf0>
  40b4ef:	02 23                	add    ah,BYTE PTR [ebx]
  40b4f1:	10 0c 5f             	adc    BYTE PTR [edi+ebx*2],cl
  40b4f4:	6c                   	ins    BYTE PTR es:[edi],dx
  40b4f5:	62 66 73             	bound  esp,QWORD PTR [esi+0x73]
  40b4f8:	69 7a 65 00 06 e9 b5 	imul   edi,DWORD PTR [edx+0x65],0xb5e90600
  40b4ff:	00 00                	add    BYTE PTR [eax],al
  40b501:	00 02                	add    BYTE PTR [edx],al
  40b503:	23 18                	and    ebx,DWORD PTR [eax]
  40b505:	0c 5f                	or     al,0x5f
  40b507:	64                   	fs
  40b508:	61                   	popa   
  40b509:	74 61                	je     40b56c <.debug_info+0x809>
  40b50b:	00 06                	add    BYTE PTR [esi],al
  40b50d:	eb b9                	jmp    40b4c8 <.debug_info+0x765>
  40b50f:	04 00                	add    al,0x0
  40b511:	00 02                	add    BYTE PTR [edx],al
  40b513:	23 1c 0c             	and    ebx,DWORD PTR [esp+ecx*1]
  40b516:	5f                   	pop    edi
  40b517:	63 6f 6f             	arpl   WORD PTR [edi+0x6f],bp
  40b51a:	6b 69 65 00          	imul   ebp,DWORD PTR [ecx+0x65],0x0
  40b51e:	06                   	push   es
  40b51f:	ee                   	out    dx,al
  40b520:	64 01 00             	add    DWORD PTR fs:[eax],eax
  40b523:	00 02                	add    BYTE PTR [edx],al
  40b525:	23 20                	and    esp,DWORD PTR [eax]
  40b527:	0c 5f                	or     al,0x5f
  40b529:	72 65                	jb     40b590 <.debug_info+0x82d>
  40b52b:	61                   	popa   
  40b52c:	64 00 06             	add    BYTE PTR fs:[esi],al
  40b52f:	f0 91                	lock xchg ecx,eax
  40b531:	06                   	push   es
  40b532:	00 00                	add    BYTE PTR [eax],al
  40b534:	02 23                	add    ah,BYTE PTR [ebx]
  40b536:	24 0c                	and    al,0xc
  40b538:	5f                   	pop    edi
  40b539:	77 72                	ja     40b5ad <.debug_info+0x84a>
  40b53b:	69 74 65 00 06 f2 c1 	imul   esi,DWORD PTR [ebp+eiz*2+0x0],0x6c1f206
  40b542:	06 
  40b543:	00 00                	add    BYTE PTR [eax],al
  40b545:	02 23                	add    ah,BYTE PTR [ebx]
  40b547:	28 0c 5f             	sub    BYTE PTR [edi+ebx*2],cl
  40b54a:	73 65                	jae    40b5b1 <.debug_info+0x84e>
  40b54c:	65 6b 00 06          	imul   eax,DWORD PTR gs:[eax],0x6
  40b550:	f4                   	hlt    
  40b551:	e6 06                	out    0x6,al
  40b553:	00 00                	add    BYTE PTR [eax],al
  40b555:	02 23                	add    ah,BYTE PTR [ebx]
  40b557:	2c 0c                	sub    al,0xc
  40b559:	5f                   	pop    edi
  40b55a:	63 6c 6f 73          	arpl   WORD PTR [edi+ebp*2+0x73],bp
  40b55e:	65 00 06             	add    BYTE PTR gs:[esi],al
  40b561:	f5                   	cmc    
  40b562:	01 07                	add    DWORD PTR [edi],eax
  40b564:	00 00                	add    BYTE PTR [eax],al
  40b566:	02 23                	add    ah,BYTE PTR [ebx]
  40b568:	30 0c 5f             	xor    BYTE PTR [edi+ebx*2],cl
  40b56b:	75 62                	jne    40b5cf <.debug_info+0x86c>
  40b56d:	00 06                	add    BYTE PTR [esi],al
  40b56f:	f8                   	clc    
  40b570:	64                   	fs
  40b571:	04 00                	add    al,0x0
  40b573:	00 02                	add    BYTE PTR [edx],al
  40b575:	23 34 0c             	and    esi,DWORD PTR [esp+ecx*1]
  40b578:	5f                   	pop    edi
  40b579:	75 70                	jne    40b5eb <.debug_info+0x888>
  40b57b:	00 06                	add    BYTE PTR [esi],al
  40b57d:	f9                   	stc    
  40b57e:	94                   	xchg   esp,eax
  40b57f:	04 00                	add    al,0x0
  40b581:	00 02                	add    BYTE PTR [edx],al
  40b583:	23 3c 0c             	and    edi,DWORD PTR [esp+ecx*1]
  40b586:	5f                   	pop    edi
  40b587:	75 72                	jne    40b5fb <.debug_info+0x898>
  40b589:	00 06                	add    BYTE PTR [esi],al
  40b58b:	fa                   	cli    
  40b58c:	b5 00                	mov    ch,0x0
  40b58e:	00 00                	add    BYTE PTR [eax],al
  40b590:	02 23                	add    ah,BYTE PTR [ebx]
  40b592:	40                   	inc    eax
  40b593:	0c 5f                	or     al,0x5f
  40b595:	75 62                	jne    40b5f9 <.debug_info+0x896>
  40b597:	75 66                	jne    40b5ff <.debug_info+0x89c>
  40b599:	00 06                	add    BYTE PTR [esi],al
  40b59b:	fd                   	std    
  40b59c:	07                   	pop    es
  40b59d:	07                   	pop    es
  40b59e:	00 00                	add    BYTE PTR [eax],al
  40b5a0:	02 23                	add    ah,BYTE PTR [ebx]
  40b5a2:	44                   	inc    esp
  40b5a3:	0c 5f                	or     al,0x5f
  40b5a5:	6e                   	outs   dx,BYTE PTR ds:[esi]
  40b5a6:	62 75 66             	bound  esi,QWORD PTR [ebp+0x66]
  40b5a9:	00 06                	add    BYTE PTR [esi],al
  40b5ab:	fe                   	(bad)  
  40b5ac:	17                   	pop    ss
  40b5ad:	07                   	pop    es
  40b5ae:	00 00                	add    BYTE PTR [eax],al
  40b5b0:	02 23                	add    ah,BYTE PTR [ebx]
  40b5b2:	47                   	inc    edi
  40b5b3:	15 5f 6c 62 00       	adc    eax,0x626c5f
  40b5b8:	06                   	push   es
  40b5b9:	01 01                	add    DWORD PTR [ecx],eax
  40b5bb:	64                   	fs
  40b5bc:	04 00                	add    al,0x0
  40b5be:	00 02                	add    BYTE PTR [edx],al
  40b5c0:	23 48 15             	and    ecx,DWORD PTR [eax+0x15]
  40b5c3:	5f                   	pop    edi
  40b5c4:	62 6c 6b 73          	bound  ebp,QWORD PTR [ebx+ebp*2+0x73]
  40b5c8:	69 7a 65 00 06 04 01 	imul   edi,DWORD PTR [edx+0x65],0x1040600
  40b5cf:	b5 00                	mov    ch,0x0
  40b5d1:	00 00                	add    BYTE PTR [eax],al
  40b5d3:	02 23                	add    ah,BYTE PTR [ebx]
  40b5d5:	50                   	push   eax
  40b5d6:	15 5f 66 6c 61       	adc    eax,0x616c665f
  40b5db:	67 73 32             	addr16 jae 40b610 <.debug_info+0x8ad>
  40b5de:	00 06                	add    BYTE PTR [esi],al
  40b5e0:	05 01 b5 00 00       	add    eax,0xb501
  40b5e5:	00 02                	add    BYTE PTR [edx],al
  40b5e7:	23 54 15 5f          	and    edx,DWORD PTR [ebp+edx*1+0x5f]
  40b5eb:	6f                   	outs   dx,DWORD PTR ds:[esi]
  40b5ec:	66                   	data16
  40b5ed:	66                   	data16
  40b5ee:	73 65                	jae    40b655 <.debug_info+0x8f2>
  40b5f0:	74 00                	je     40b5f2 <.debug_info+0x88f>
  40b5f2:	06                   	push   es
  40b5f3:	07                   	pop    es
  40b5f4:	01 66 01             	add    DWORD PTR [esi+0x1],esp
  40b5f7:	00 00                	add    BYTE PTR [eax],al
  40b5f9:	02 23                	add    ah,BYTE PTR [ebx]
  40b5fb:	58                   	pop    eax
  40b5fc:	15 5f 73 65 65       	adc    eax,0x6565735f
  40b601:	6b 36 34             	imul   esi,DWORD PTR [esi],0x34
  40b604:	00 06                	add    BYTE PTR [esi],al
  40b606:	08 01                	or     BYTE PTR [ecx],al
  40b608:	f1                   	icebp  
  40b609:	08 00                	or     BYTE PTR [eax],al
  40b60b:	00 02                	add    BYTE PTR [edx],al
  40b60d:	23 60 15             	and    esp,DWORD PTR [eax+0x15]
  40b610:	5f                   	pop    edi
  40b611:	6c                   	ins    BYTE PTR es:[edi],dx
  40b612:	6f                   	outs   dx,DWORD PTR ds:[esi]
  40b613:	63 6b 00             	arpl   WORD PTR [ebx+0x0],bp
  40b616:	06                   	push   es
  40b617:	0b 01                	or     eax,DWORD PTR [ecx]
  40b619:	28 02                	sub    BYTE PTR [edx],al
  40b61b:	00 00                	add    BYTE PTR [eax],al
  40b61d:	02 23                	add    ah,BYTE PTR [ebx]
  40b61f:	64                   	fs
  40b620:	15 5f 6d 62 73       	adc    eax,0x73626d5f
  40b625:	74 61                	je     40b688 <.debug_info+0x925>
  40b627:	74 65                	je     40b68e <.debug_info+0x92b>
  40b629:	00 06                	add    BYTE PTR [esi],al
  40b62b:	0d 01 16 02 00       	or     eax,0x21601
  40b630:	00 02                	add    BYTE PTR [edx],al
  40b632:	23 68 00             	and    ebp,DWORD PTR [eax+0x0]
  40b635:	12 01                	adc    al,BYTE PTR [ecx]
  40b637:	85 01                	test   DWORD PTR [ecx],eax
  40b639:	00 00                	add    BYTE PTR [eax],al
  40b63b:	f1                   	icebp  
  40b63c:	08 00                	or     BYTE PTR [eax],al
  40b63e:	00 13                	add    BYTE PTR [ebx],dl
  40b640:	b9 04 00 00 13       	mov    ecx,0x13000004
  40b645:	64 01 00             	add    DWORD PTR fs:[eax],eax
  40b648:	00 13                	add    BYTE PTR [ebx],dl
  40b64a:	85 01                	test   DWORD PTR [ecx],eax
  40b64c:	00 00                	add    BYTE PTR [eax],al
  40b64e:	13 b5 00 00 00 00    	adc    esi,DWORD PTR [ebp+0x0]
  40b654:	04 04                	add    al,0x4
  40b656:	d2 08                	ror    BYTE PTR [eax],cl
  40b658:	00 00                	add    BYTE PTR [eax],al
  40b65a:	06                   	push   es
  40b65b:	5f                   	pop    edi
  40b65c:	5f                   	pop    edi
  40b65d:	46                   	inc    esi
  40b65e:	49                   	dec    ecx
  40b65f:	4c                   	dec    esp
  40b660:	45                   	inc    ebp
  40b661:	00 06                	add    BYTE PTR [esi],al
  40b663:	0f 01 27             	smsw   WORD PTR [edi]
  40b666:	07                   	pop    es
  40b667:	00 00                	add    BYTE PTR [eax],al
  40b669:	17                   	pop    ss
  40b66a:	5f                   	pop    edi
  40b66b:	67 6c                	ins    BYTE PTR es:[di],dx
  40b66d:	75 65                	jne    40b6d4 <.debug_info+0x971>
  40b66f:	00 0c 06             	add    BYTE PTR [esi+eax*1],cl
  40b672:	15 01 4a 09 00       	adc    eax,0x94a01
  40b677:	00 15 5f 6e 65 78    	add    BYTE PTR ds:0x78656e5f,dl
  40b67d:	74 00                	je     40b67f <.debug_info+0x91c>
  40b67f:	06                   	push   es
  40b680:	17                   	pop    ss
  40b681:	01 4a 09             	add    DWORD PTR [edx+0x9],ecx
  40b684:	00 00                	add    BYTE PTR [eax],al
  40b686:	02 23                	add    ah,BYTE PTR [ebx]
  40b688:	00 15 5f 6e 69 6f    	add    BYTE PTR ds:0x6f696e5f,dl
  40b68e:	62 73 00             	bound  esi,QWORD PTR [ebx+0x0]
  40b691:	06                   	push   es
  40b692:	18 01                	sbb    BYTE PTR [ecx],al
  40b694:	b5 00                	mov    ch,0x0
  40b696:	00 00                	add    BYTE PTR [eax],al
  40b698:	02 23                	add    ah,BYTE PTR [ebx]
  40b69a:	04 15                	add    al,0x15
  40b69c:	5f                   	pop    edi
  40b69d:	69 6f 62 73 00 06 19 	imul   ebp,DWORD PTR [edi+0x62],0x19060073
  40b6a4:	01 50 09             	add    DWORD PTR [eax+0x9],edx
  40b6a7:	00 00                	add    BYTE PTR [eax],al
  40b6a9:	02 23                	add    ah,BYTE PTR [ebx]
  40b6ab:	08 00                	or     BYTE PTR [eax],al
  40b6ad:	04 04                	add    al,0x4
  40b6af:	06                   	push   es
  40b6b0:	09 00                	or     DWORD PTR [eax],eax
  40b6b2:	00 04 04             	add    BYTE PTR [esp+eax*1],al
  40b6b5:	f7                   	(bad)  
  40b6b6:	08 00                	or     BYTE PTR [eax],al
  40b6b8:	00 17                	add    BYTE PTR [edi],dl
  40b6ba:	5f                   	pop    edi
  40b6bb:	72 61                	jb     40b71e <.debug_info+0x9bb>
  40b6bd:	6e                   	outs   dx,BYTE PTR ds:[esi]
  40b6be:	64                   	fs
  40b6bf:	34 38                	xor    al,0x38
  40b6c1:	00 0e                	add    BYTE PTR [esi],cl
  40b6c3:	06                   	push   es
  40b6c4:	31 01                	xor    DWORD PTR [ecx],eax
  40b6c6:	9a 09 00 00 15 5f 73 	call   0x735f:0x15000009
  40b6cd:	65 65 64 00 06       	gs gs add BYTE PTR fs:gs:[esi],al
  40b6d2:	32 01                	xor    al,BYTE PTR [ecx]
  40b6d4:	9a 09 00 00 02 23 00 	call   0x23:0x2000009
  40b6db:	15 5f 6d 75 6c       	adc    eax,0x6c756d5f
  40b6e0:	74 00                	je     40b6e2 <.debug_info+0x97f>
  40b6e2:	06                   	push   es
  40b6e3:	33 01                	xor    eax,DWORD PTR [ecx]
  40b6e5:	9a 09 00 00 02 23 06 	call   0x623:0x2000009
  40b6ec:	15 5f 61 64 64       	adc    eax,0x6464615f
  40b6f1:	00 06                	add    BYTE PTR [esi],al
  40b6f3:	34 01                	xor    al,0x1
  40b6f5:	d3 00                	rol    DWORD PTR [eax],cl
  40b6f7:	00 00                	add    BYTE PTR [eax],al
  40b6f9:	02 23                	add    ah,BYTE PTR [ebx]
  40b6fb:	0c 00                	or     al,0x0
  40b6fd:	09 d3                	or     ebx,edx
  40b6ff:	00 00                	add    BYTE PTR [eax],al
  40b701:	00 aa 09 00 00 0a    	add    BYTE PTR [edx+0xa000009],ch
  40b707:	fe 00                	inc    BYTE PTR [eax]
  40b709:	00 00                	add    BYTE PTR [eax],al
  40b70b:	02 00                	add    al,BYTE PTR [eax]
  40b70d:	18 d0                	sbb    al,dl
  40b70f:	06                   	push   es
  40b710:	63 02                	arpl   WORD PTR [edx],ax
  40b712:	86 0b                	xchg   BYTE PTR [ebx],cl
  40b714:	00 00                	add    BYTE PTR [eax],al
  40b716:	15 5f 75 6e 75       	adc    eax,0x756e755f
  40b71b:	73 65                	jae    40b782 <.debug_info+0xa1f>
  40b71d:	64                   	fs
  40b71e:	5f                   	pop    edi
  40b71f:	72 61                	jb     40b782 <.debug_info+0xa1f>
  40b721:	6e                   	outs   dx,BYTE PTR ds:[esi]
  40b722:	64 00 06             	add    BYTE PTR fs:[esi],al
  40b725:	65                   	gs
  40b726:	02 fe                	add    bh,dh
  40b728:	00 00                	add    BYTE PTR [eax],al
  40b72a:	00 02                	add    BYTE PTR [edx],al
  40b72c:	23 00                	and    eax,DWORD PTR [eax]
  40b72e:	15 5f 73 74 72       	adc    eax,0x7274735f
  40b733:	74 6f                	je     40b7a4 <.debug_info+0xa41>
  40b735:	6b 5f 6c 61          	imul   ebx,DWORD PTR [edi+0x6c],0x61
  40b739:	73 74                	jae    40b7af <.debug_info+0xa4c>
  40b73b:	00 06                	add    BYTE PTR [esi],al
  40b73d:	66                   	data16
  40b73e:	02 8b 06 00 00 02    	add    cl,BYTE PTR [ebx+0x2000006]
  40b744:	23 04 15 5f 61 73 63 	and    eax,DWORD PTR [edx*1+0x6373615f]
  40b74b:	74 69                	je     40b7b6 <.debug_info+0xa53>
  40b74d:	6d                   	ins    DWORD PTR es:[edi],dx
  40b74e:	65                   	gs
  40b74f:	5f                   	pop    edi
  40b750:	62 75 66             	bound  esi,QWORD PTR [ebp+0x66]
  40b753:	00 06                	add    BYTE PTR [esi],al
  40b755:	67 02 86 0b 00       	add    al,BYTE PTR [bp+0xb]
  40b75a:	00 02                	add    BYTE PTR [edx],al
  40b75c:	23 08                	and    ecx,DWORD PTR [eax]
  40b75e:	15 5f 6c 6f 63       	adc    eax,0x636f6c5f
  40b763:	61                   	popa   
  40b764:	6c                   	ins    BYTE PTR es:[edi],dx
  40b765:	74 69                	je     40b7d0 <.debug_info+0xa6d>
  40b767:	6d                   	ins    DWORD PTR es:[edi],dx
  40b768:	65                   	gs
  40b769:	5f                   	pop    edi
  40b76a:	62 75 66             	bound  esi,QWORD PTR [ebp+0x66]
  40b76d:	00 06                	add    BYTE PTR [esi],al
  40b76f:	68 02 c9 02 00       	push   0x2c902
  40b774:	00 02                	add    BYTE PTR [edx],al
  40b776:	23 24 15 5f 67 61 6d 	and    esp,DWORD PTR [edx*1+0x6d61675f]
  40b77d:	6d                   	ins    DWORD PTR es:[edi],dx
  40b77e:	61                   	popa   
  40b77f:	5f                   	pop    edi
  40b780:	73 69                	jae    40b7eb <.debug_info+0xa88>
  40b782:	67 6e                	outs   dx,BYTE PTR ds:[si]
  40b784:	67 61                	addr16 popa 
  40b786:	6d                   	ins    DWORD PTR es:[edi],dx
  40b787:	00 06                	add    BYTE PTR [esi],al
  40b789:	69 02 b5 00 00 00    	imul   eax,DWORD PTR [edx],0xb5
  40b78f:	02 23                	add    ah,BYTE PTR [ebx]
  40b791:	48                   	dec    eax
  40b792:	15 5f 72 61 6e       	adc    eax,0x6e61725f
  40b797:	64                   	fs
  40b798:	5f                   	pop    edi
  40b799:	6e                   	outs   dx,BYTE PTR ds:[esi]
  40b79a:	65                   	gs
  40b79b:	78 74                	js     40b811 <.debug_info+0xaae>
  40b79d:	00 06                	add    BYTE PTR [esi],al
  40b79f:	6a 02                	push   0x2
  40b7a1:	3b 01                	cmp    eax,DWORD PTR [ecx]
  40b7a3:	00 00                	add    BYTE PTR [eax],al
  40b7a5:	02 23                	add    ah,BYTE PTR [ebx]
  40b7a7:	50                   	push   eax
  40b7a8:	15 5f 72 34 38       	adc    eax,0x3834725f
  40b7ad:	00 06                	add    BYTE PTR [esi],al
  40b7af:	6b 02 56             	imul   eax,DWORD PTR [edx],0x56
  40b7b2:	09 00                	or     DWORD PTR [eax],eax
  40b7b4:	00 02                	add    BYTE PTR [edx],al
  40b7b6:	23 58 15             	and    ebx,DWORD PTR [eax+0x15]
  40b7b9:	5f                   	pop    edi
  40b7ba:	6d                   	ins    DWORD PTR es:[edi],dx
  40b7bb:	62 6c 65 6e          	bound  ebp,QWORD PTR [ebp+eiz*2+0x6e]
  40b7bf:	5f                   	pop    edi
  40b7c0:	73 74                	jae    40b836 <.debug_info+0xad3>
  40b7c2:	61                   	popa   
  40b7c3:	74 65                	je     40b82a <.debug_info+0xac7>
  40b7c5:	00 06                	add    BYTE PTR [esi],al
  40b7c7:	6c                   	ins    BYTE PTR es:[edi],dx
  40b7c8:	02 16                	add    dl,BYTE PTR [esi]
  40b7ca:	02 00                	add    al,BYTE PTR [eax]
  40b7cc:	00 02                	add    BYTE PTR [edx],al
  40b7ce:	23 68 15             	and    ebp,DWORD PTR [eax+0x15]
  40b7d1:	5f                   	pop    edi
  40b7d2:	6d                   	ins    DWORD PTR es:[edi],dx
  40b7d3:	62 74 6f 77          	bound  esi,QWORD PTR [edi+ebp*2+0x77]
  40b7d7:	63 5f 73             	arpl   WORD PTR [edi+0x73],bx
  40b7da:	74 61                	je     40b83d <.debug_info+0xada>
  40b7dc:	74 65                	je     40b843 <.debug_info+0xae0>
  40b7de:	00 06                	add    BYTE PTR [esi],al
  40b7e0:	6d                   	ins    DWORD PTR es:[edi],dx
  40b7e1:	02 16                	add    dl,BYTE PTR [esi]
  40b7e3:	02 00                	add    al,BYTE PTR [eax]
  40b7e5:	00 02                	add    BYTE PTR [edx],al
  40b7e7:	23 70 15             	and    esi,DWORD PTR [eax+0x15]
  40b7ea:	5f                   	pop    edi
  40b7eb:	77 63                	ja     40b850 <.debug_info+0xaed>
  40b7ed:	74 6f                	je     40b85e <.debug_info+0xafb>
  40b7ef:	6d                   	ins    DWORD PTR es:[edi],dx
  40b7f0:	62 5f 73             	bound  ebx,QWORD PTR [edi+0x73]
  40b7f3:	74 61                	je     40b856 <.debug_info+0xaf3>
  40b7f5:	74 65                	je     40b85c <.debug_info+0xaf9>
  40b7f7:	00 06                	add    BYTE PTR [esi],al
  40b7f9:	6e                   	outs   dx,BYTE PTR ds:[esi]
  40b7fa:	02 16                	add    dl,BYTE PTR [esi]
  40b7fc:	02 00                	add    al,BYTE PTR [eax]
  40b7fe:	00 02                	add    BYTE PTR [edx],al
  40b800:	23 78 15             	and    edi,DWORD PTR [eax+0x15]
  40b803:	5f                   	pop    edi
  40b804:	6c                   	ins    BYTE PTR es:[edi],dx
  40b805:	36                   	ss
  40b806:	34 61                	xor    al,0x61
  40b808:	5f                   	pop    edi
  40b809:	62 75 66             	bound  esi,QWORD PTR [ebp+0x66]
  40b80c:	00 06                	add    BYTE PTR [esi],al
  40b80e:	6f                   	outs   dx,DWORD PTR ds:[esi]
  40b80f:	02 96 0b 00 00 03    	add    dl,BYTE PTR [esi+0x300000b]
  40b815:	23 80 01 15 5f 73    	and    eax,DWORD PTR [eax+0x735f1501]
  40b81b:	69 67 6e 61 6c 5f 62 	imul   esp,DWORD PTR [edi+0x6e],0x625f6c61
  40b822:	75 66                	jne    40b88a <.debug_info+0xb27>
  40b824:	00 06                	add    BYTE PTR [esi],al
  40b826:	70 02                	jo     40b82a <.debug_info+0xac7>
  40b828:	a6                   	cmps   BYTE PTR ds:[esi],BYTE PTR es:[edi]
  40b829:	0b 00                	or     eax,DWORD PTR [eax]
  40b82b:	00 03                	add    BYTE PTR [ebx],al
  40b82d:	23 88 01 15 5f 67    	and    ecx,DWORD PTR [eax+0x675f1501]
  40b833:	65                   	gs
  40b834:	74 64                	je     40b89a <.debug_info+0xb37>
  40b836:	61                   	popa   
  40b837:	74 65                	je     40b89e <.debug_info+0xb3b>
  40b839:	5f                   	pop    edi
  40b83a:	65                   	gs
  40b83b:	72 72                	jb     40b8af <.debug_info+0xb4c>
  40b83d:	00 06                	add    BYTE PTR [esi],al
  40b83f:	71 02                	jno    40b843 <.debug_info+0xae0>
  40b841:	b5 00                	mov    ch,0x0
  40b843:	00 00                	add    BYTE PTR [eax],al
  40b845:	03 23                	add    esp,DWORD PTR [ebx]
  40b847:	a0 01 15 5f 6d       	mov    al,ds:0x6d5f1501
  40b84c:	62 72 6c             	bound  esi,QWORD PTR [edx+0x6c]
  40b84f:	65 6e                	outs   dx,BYTE PTR gs:[esi]
  40b851:	5f                   	pop    edi
  40b852:	73 74                	jae    40b8c8 <.debug_info+0xb65>
  40b854:	61                   	popa   
  40b855:	74 65                	je     40b8bc <.debug_info+0xb59>
  40b857:	00 06                	add    BYTE PTR [esi],al
  40b859:	72 02                	jb     40b85d <.debug_info+0xafa>
  40b85b:	16                   	push   ss
  40b85c:	02 00                	add    al,BYTE PTR [eax]
  40b85e:	00 03                	add    BYTE PTR [ebx],al
  40b860:	23 a4 01 15 5f 6d 62 	and    esp,DWORD PTR [ecx+eax*1+0x626d5f15]
  40b867:	72 74                	jb     40b8dd <.debug_info+0xb7a>
  40b869:	6f                   	outs   dx,DWORD PTR ds:[esi]
  40b86a:	77 63                	ja     40b8cf <.debug_info+0xb6c>
  40b86c:	5f                   	pop    edi
  40b86d:	73 74                	jae    40b8e3 <.debug_info+0xb80>
  40b86f:	61                   	popa   
  40b870:	74 65                	je     40b8d7 <.debug_info+0xb74>
  40b872:	00 06                	add    BYTE PTR [esi],al
  40b874:	73 02                	jae    40b878 <.debug_info+0xb15>
  40b876:	16                   	push   ss
  40b877:	02 00                	add    al,BYTE PTR [eax]
  40b879:	00 03                	add    BYTE PTR [ebx],al
  40b87b:	23 ac 01 15 5f 6d 62 	and    ebp,DWORD PTR [ecx+eax*1+0x626d5f15]
  40b882:	73 72                	jae    40b8f6 <.debug_info+0xb93>
  40b884:	74 6f                	je     40b8f5 <.debug_info+0xb92>
  40b886:	77 63                	ja     40b8eb <.debug_info+0xb88>
  40b888:	73 5f                	jae    40b8e9 <.debug_info+0xb86>
  40b88a:	73 74                	jae    40b900 <.debug_info+0xb9d>
  40b88c:	61                   	popa   
  40b88d:	74 65                	je     40b8f4 <.debug_info+0xb91>
  40b88f:	00 06                	add    BYTE PTR [esi],al
  40b891:	74 02                	je     40b895 <.debug_info+0xb32>
  40b893:	16                   	push   ss
  40b894:	02 00                	add    al,BYTE PTR [eax]
  40b896:	00 03                	add    BYTE PTR [ebx],al
  40b898:	23 b4 01 15 5f 77 63 	and    esi,DWORD PTR [ecx+eax*1+0x63775f15]
  40b89f:	72 74                	jb     40b915 <.debug_info+0xbb2>
  40b8a1:	6f                   	outs   dx,DWORD PTR ds:[esi]
  40b8a2:	6d                   	ins    DWORD PTR es:[edi],dx
  40b8a3:	62 5f 73             	bound  ebx,QWORD PTR [edi+0x73]
  40b8a6:	74 61                	je     40b909 <.debug_info+0xba6>
  40b8a8:	74 65                	je     40b90f <.debug_info+0xbac>
  40b8aa:	00 06                	add    BYTE PTR [esi],al
  40b8ac:	75 02                	jne    40b8b0 <.debug_info+0xb4d>
  40b8ae:	16                   	push   ss
  40b8af:	02 00                	add    al,BYTE PTR [eax]
  40b8b1:	00 03                	add    BYTE PTR [ebx],al
  40b8b3:	23 bc 01 15 5f 77 63 	and    edi,DWORD PTR [ecx+eax*1+0x63775f15]
  40b8ba:	73 72                	jae    40b92e <.debug_info+0xbcb>
  40b8bc:	74 6f                	je     40b92d <.debug_info+0xbca>
  40b8be:	6d                   	ins    DWORD PTR es:[edi],dx
  40b8bf:	62 73 5f             	bound  esi,QWORD PTR [ebx+0x5f]
  40b8c2:	73 74                	jae    40b938 <.debug_info+0xbd5>
  40b8c4:	61                   	popa   
  40b8c5:	74 65                	je     40b92c <.debug_info+0xbc9>
  40b8c7:	00 06                	add    BYTE PTR [esi],al
  40b8c9:	76 02                	jbe    40b8cd <.debug_info+0xb6a>
  40b8cb:	16                   	push   ss
  40b8cc:	02 00                	add    al,BYTE PTR [eax]
  40b8ce:	00 03                	add    BYTE PTR [ebx],al
  40b8d0:	23 c4                	and    eax,esp
  40b8d2:	01 15 5f 68 5f 65    	add    DWORD PTR ds:0x655f685f,edx
  40b8d8:	72 72                	jb     40b94c <.debug_info+0xbe9>
  40b8da:	6e                   	outs   dx,BYTE PTR ds:[esi]
  40b8db:	6f                   	outs   dx,DWORD PTR ds:[esi]
  40b8dc:	00 06                	add    BYTE PTR [esi],al
  40b8de:	77 02                	ja     40b8e2 <.debug_info+0xb7f>
  40b8e0:	b5 00                	mov    ch,0x0
  40b8e2:	00 00                	add    BYTE PTR [eax],al
  40b8e4:	03 23                	add    esp,DWORD PTR [ebx]
  40b8e6:	cc                   	int3   
  40b8e7:	01 00                	add    DWORD PTR [eax],eax
  40b8e9:	09 8b 00 00 00 96    	or     DWORD PTR [ebx-0x6a000000],ecx
  40b8ef:	0b 00                	or     eax,DWORD PTR [eax]
  40b8f1:	00 0a                	add    BYTE PTR [edx],cl
  40b8f3:	fe 00                	inc    BYTE PTR [eax]
  40b8f5:	00 00                	add    BYTE PTR [eax],al
  40b8f7:	19 00                	sbb    DWORD PTR [eax],eax
  40b8f9:	09 8b 00 00 00 a6    	or     DWORD PTR [ebx-0x5a000000],ecx
  40b8ff:	0b 00                	or     eax,DWORD PTR [eax]
  40b901:	00 0a                	add    BYTE PTR [edx],cl
  40b903:	fe 00                	inc    BYTE PTR [eax]
  40b905:	00 00                	add    BYTE PTR [eax],al
  40b907:	07                   	pop    es
  40b908:	00 09                	add    BYTE PTR [ecx],cl
  40b90a:	8b 00                	mov    eax,DWORD PTR [eax]
  40b90c:	00 00                	add    BYTE PTR [eax],al
  40b90e:	b6 0b                	mov    dh,0xb
  40b910:	00 00                	add    BYTE PTR [eax],al
  40b912:	0a fe                	or     bh,dh
  40b914:	00 00                	add    BYTE PTR [eax],al
  40b916:	00 17                	add    BYTE PTR [edi],dl
  40b918:	00 18                	add    BYTE PTR [eax],bl
  40b91a:	f0 06                	lock push es
  40b91c:	7c 02                	jl     40b920 <.debug_info+0xbbd>
  40b91e:	e6 0b                	out    0xb,al
  40b920:	00 00                	add    BYTE PTR [eax],al
  40b922:	15 5f 6e 65 78       	adc    eax,0x78656e5f
  40b927:	74 66                	je     40b98f <.debug_info+0xc2c>
  40b929:	00 06                	add    BYTE PTR [esi],al
  40b92b:	7f 02                	jg     40b92f <.debug_info+0xbcc>
  40b92d:	e6 0b                	out    0xb,al
  40b92f:	00 00                	add    BYTE PTR [eax],al
  40b931:	02 23                	add    ah,BYTE PTR [ebx]
  40b933:	00 15 5f 6e 6d 61    	add    BYTE PTR ds:0x616d6e5f,dl
  40b939:	6c                   	ins    BYTE PTR es:[edi],dx
  40b93a:	6c                   	ins    BYTE PTR es:[edi],dx
  40b93b:	6f                   	outs   dx,DWORD PTR ds:[esi]
  40b93c:	63 00                	arpl   WORD PTR [eax],ax
  40b93e:	06                   	push   es
  40b93f:	80 02 f6             	add    BYTE PTR [edx],0xf6
  40b942:	0b 00                	or     eax,DWORD PTR [eax]
  40b944:	00 02                	add    BYTE PTR [edx],al
  40b946:	23 78 00             	and    edi,DWORD PTR [eax+0x0]
  40b949:	09 94 04 00 00 f6 0b 	or     DWORD PTR [esp+eax*1+0xbf60000],edx
  40b950:	00 00                	add    BYTE PTR [eax],al
  40b952:	0a fe                	or     bh,dh
  40b954:	00 00                	add    BYTE PTR [eax],al
  40b956:	00 1d 00 09 fe 00    	add    BYTE PTR ds:0xfe0900,bl
  40b95c:	00 00                	add    BYTE PTR [eax],al
  40b95e:	06                   	push   es
  40b95f:	0c 00                	or     al,0x0
  40b961:	00 0a                	add    BYTE PTR [edx],cl
  40b963:	fe 00                	inc    BYTE PTR [eax]
  40b965:	00 00                	add    BYTE PTR [eax],al
  40b967:	1d 00 19 f0 06       	sbb    eax,0x6f01900
  40b96c:	61                   	popa   
  40b96d:	02 2f                	add    ch,BYTE PTR [edi]
  40b96f:	0c 00                	or     al,0x0
  40b971:	00 1a                	add    BYTE PTR [edx],bl
  40b973:	5f                   	pop    edi
  40b974:	72 65                	jb     40b9db <.debug_info+0xc78>
  40b976:	65 6e                	outs   dx,BYTE PTR gs:[esi]
  40b978:	74 00                	je     40b97a <.debug_info+0xc17>
  40b97a:	06                   	push   es
  40b97b:	78 02                	js     40b97f <.debug_info+0xc1c>
  40b97d:	aa                   	stos   BYTE PTR es:[edi],al
  40b97e:	09 00                	or     DWORD PTR [eax],eax
  40b980:	00 1a                	add    BYTE PTR [edx],bl
  40b982:	5f                   	pop    edi
  40b983:	75 6e                	jne    40b9f3 <.debug_info+0xc90>
  40b985:	75 73                	jne    40b9fa <.debug_info+0xc97>
  40b987:	65 64 00 06          	gs add BYTE PTR fs:gs:[esi],al
  40b98b:	81 02 b6 0b 00 00    	add    DWORD PTR [edx],0xbb6
  40b991:	00 09                	add    BYTE PTR [ecx],cl
  40b993:	8b 00                	mov    eax,DWORD PTR [eax]
  40b995:	00 00                	add    BYTE PTR [eax],al
  40b997:	3f                   	aas    
  40b998:	0c 00                	or     al,0x0
  40b99a:	00 0a                	add    BYTE PTR [edx],cl
  40b99c:	fe 00                	inc    BYTE PTR [eax]
  40b99e:	00 00                	add    BYTE PTR [eax],al
  40b9a0:	18 00                	sbb    BYTE PTR [eax],al
  40b9a2:	1b 01                	sbb    eax,DWORD PTR [ecx]
  40b9a4:	4b                   	dec    ebx
  40b9a5:	0c 00                	or     al,0x0
  40b9a7:	00 13                	add    BYTE PTR [ebx],dl
  40b9a9:	b9 04 00 00 00       	mov    ecx,0x4
  40b9ae:	04 04                	add    al,0x4
  40b9b0:	3f                   	aas    
  40b9b1:	0c 00                	or     al,0x0
  40b9b3:	00 04 04             	add    BYTE PTR [esp+eax*1],al
  40b9b6:	b3 02                	mov    bl,0x2
  40b9b8:	00 00                	add    BYTE PTR [eax],al
  40b9ba:	1b 01                	sbb    eax,DWORD PTR [ecx]
  40b9bc:	63 0c 00             	arpl   WORD PTR [eax+eax*1],cx
  40b9bf:	00 13                	add    BYTE PTR [ebx],dl
  40b9c1:	b5 00                	mov    ch,0x0
  40b9c3:	00 00                	add    BYTE PTR [eax],al
  40b9c5:	00 04 04             	add    BYTE PTR [esp+eax*1],al
  40b9c8:	69 0c 00 00 04 04 57 	imul   ecx,DWORD PTR [eax+eax*1],0x57040400
  40b9cf:	0c 00                	or     al,0x0
  40b9d1:	00 09                	add    BYTE PTR [ecx],cl
  40b9d3:	f7                   	(bad)  
  40b9d4:	08 00                	or     BYTE PTR [eax],al
  40b9d6:	00 7f 0c             	add    BYTE PTR [edi+0xc],bh
  40b9d9:	00 00                	add    BYTE PTR [eax],al
  40b9db:	0a fe                	or     bh,dh
  40b9dd:	00 00                	add    BYTE PTR [eax],al
  40b9df:	00 02                	add    BYTE PTR [edx],al
  40b9e1:	00 03                	add    BYTE PTR [ebx],al
  40b9e3:	73 69                	jae    40ba4e <.debug_info+0xceb>
  40b9e5:	7a 65                	jp     40ba4c <.debug_info+0xce9>
  40b9e7:	5f                   	pop    edi
  40b9e8:	74 00                	je     40b9ea <.debug_info+0xc87>
  40b9ea:	05 d3 fe 00 00       	add    eax,0xfed3
  40b9ef:	00 17                	add    BYTE PTR [edi],dl
  40b9f1:	48                   	dec    eax
  40b9f2:	49                   	dec    ecx
  40b9f3:	4e                   	dec    esi
  40b9f4:	53                   	push   ebx
  40b9f5:	54                   	push   esp
  40b9f6:	41                   	inc    ecx
  40b9f7:	4e                   	dec    esi
  40b9f8:	43                   	inc    ebx
  40b9f9:	45                   	inc    ebp
  40b9fa:	5f                   	pop    edi
  40b9fb:	5f                   	pop    edi
  40b9fc:	00 04 02             	add    BYTE PTR [edx+eax*1],al
  40b9ff:	1f                   	pop    ds
  40ba00:	01 b0 0c 00 00 15    	add    DWORD PTR [eax+0x1500000c],esi
  40ba06:	69 00 02 1f 01 b5    	imul   eax,DWORD PTR [eax],0xb5011f02
  40ba0c:	00 00                	add    BYTE PTR [eax],al
  40ba0e:	00 02                	add    BYTE PTR [edx],al
  40ba10:	23 00                	and    eax,DWORD PTR [eax]
  40ba12:	00 06                	add    BYTE PTR [esi],al
  40ba14:	48                   	dec    eax
  40ba15:	49                   	dec    ecx
  40ba16:	4e                   	dec    esi
  40ba17:	53                   	push   ebx
  40ba18:	54                   	push   esp
  40ba19:	41                   	inc    ecx
  40ba1a:	4e                   	dec    esi
  40ba1b:	43                   	inc    ebx
  40ba1c:	45                   	inc    ebp
  40ba1d:	00 02                	add    BYTE PTR [edx],al
  40ba1f:	1f                   	pop    ds
  40ba20:	01 c2                	add    edx,eax
  40ba22:	0c 00                	or     al,0x0
  40ba24:	00 04 04             	add    BYTE PTR [esp+eax*1],al
  40ba27:	8d 0c 00             	lea    ecx,[eax+eax*1]
  40ba2a:	00 06                	add    BYTE PTR [esi],al
  40ba2c:	48                   	dec    eax
  40ba2d:	4d                   	dec    ebp
  40ba2e:	4f                   	dec    edi
  40ba2f:	44                   	inc    esp
  40ba30:	55                   	push   ebp
  40ba31:	4c                   	dec    esp
  40ba32:	45                   	inc    ebp
  40ba33:	00 02                	add    BYTE PTR [edx],al
  40ba35:	20 01                	and    BYTE PTR [ecx],al
  40ba37:	b0 0c                	mov    al,0xc
  40ba39:	00 00                	add    BYTE PTR [eax],al
  40ba3b:	09 93 00 00 00 e8    	or     DWORD PTR [ebx-0x18000000],edx
  40ba41:	0c 00                	or     al,0x0
  40ba43:	00 0a                	add    BYTE PTR [edx],cl
  40ba45:	fe 00                	inc    BYTE PTR [eax]
  40ba47:	00 00                	add    BYTE PTR [eax],al
  40ba49:	02 00                	add    al,BYTE PTR [eax]
  40ba4b:	0d 70 65 72 5f       	or     eax,0x5f726570
  40ba50:	70 72                	jo     40bac4 <.debug_info+0xd61>
  40ba52:	6f                   	outs   dx,DWORD PTR ds:[esi]
  40ba53:	63 65 73             	arpl   WORD PTR [ebp+0x73],sp
  40ba56:	73 00                	jae    40ba58 <.debug_info+0xcf5>
  40ba58:	a8 07                	test   al,0x7
  40ba5a:	f9                   	stc    
  40ba5b:	8b 0f                	mov    ecx,DWORD PTR [edi]
  40ba5d:	00 00                	add    BYTE PTR [eax],al
  40ba5f:	0c 69                	or     al,0x69
  40ba61:	6e                   	outs   dx,BYTE PTR ds:[esi]
  40ba62:	69 74 69 61 6c 5f 73 	imul   esi,DWORD PTR [ecx+ebp*2+0x61],0x70735f6c
  40ba69:	70 
  40ba6a:	00 07                	add    BYTE PTR [edi],al
  40ba6c:	fb                   	sti    
  40ba6d:	8b 06                	mov    eax,DWORD PTR [esi]
  40ba6f:	00 00                	add    BYTE PTR [eax],al
  40ba71:	02 23                	add    ah,BYTE PTR [ebx]
  40ba73:	00 0c 6d 61 67 69 63 	add    BYTE PTR [ebp*2+0x63696761],cl
  40ba7a:	5f                   	pop    edi
  40ba7b:	62 69 73             	bound  ebp,QWORD PTR [ecx+0x73]
  40ba7e:	63 75 69             	arpl   WORD PTR [ebp+0x69],si
  40ba81:	74 00                	je     40ba83 <.debug_info+0xd20>
  40ba83:	07                   	pop    es
  40ba84:	ff a0 00 00 00 02    	jmp    DWORD PTR [eax+0x2000000]
  40ba8a:	23 04 15 64 6c 6c 5f 	and    eax,DWORD PTR [edx*1+0x5f6c6c64]
  40ba91:	6d                   	ins    DWORD PTR es:[edi],dx
  40ba92:	61                   	popa   
  40ba93:	6a 6f                	push   0x6f
  40ba95:	72 00                	jb     40ba97 <.debug_info+0xd34>
  40ba97:	07                   	pop    es
  40ba98:	00 01                	add    BYTE PTR [ecx],al
  40ba9a:	a0 00 00 00 02       	mov    al,ds:0x2000000
  40ba9f:	23 08                	and    ecx,DWORD PTR [eax]
  40baa1:	15 64 6c 6c 5f       	adc    eax,0x5f6c6c64
  40baa6:	6d                   	ins    DWORD PTR es:[edi],dx
  40baa7:	69 6e 6f 72 00 07 01 	imul   ebp,DWORD PTR [esi+0x6f],0x1070072
  40baae:	01 a0 00 00 00 02    	add    DWORD PTR [eax+0x2000000],esp
  40bab4:	23 0c 15 69 6d 70 75 	and    ecx,DWORD PTR [edx*1+0x75706d69]
  40babb:	72 65                	jb     40bb22 <.debug_info+0xdbf>
  40babd:	5f                   	pop    edi
  40babe:	70 74                	jo     40bb34 <.debug_info+0xdd1>
  40bac0:	72 5f                	jb     40bb21 <.debug_info+0xdbe>
  40bac2:	70 74                	jo     40bb38 <.debug_info+0xdd5>
  40bac4:	72 00                	jb     40bac6 <.debug_info+0xd63>
  40bac6:	07                   	pop    es
  40bac7:	03 01                	add    eax,DWORD PTR [ecx]
  40bac9:	8b 0f                	mov    ecx,DWORD PTR [edi]
  40bacb:	00 00                	add    BYTE PTR [eax],al
  40bacd:	02 23                	add    ah,BYTE PTR [ebx]
  40bacf:	10 15 65 6e 76 70    	adc    BYTE PTR ds:0x70766e65,dl
  40bad5:	74 72                	je     40bb49 <.debug_info+0xde6>
  40bad7:	00 07                	add    BYTE PTR [edi],al
  40bad9:	04 01                	add    al,0x1
  40badb:	91                   	xchg   ecx,eax
  40badc:	0f 00 00             	sldt   WORD PTR [eax]
  40badf:	02 23                	add    ah,BYTE PTR [ebx]
  40bae1:	14 15                	adc    al,0x15
  40bae3:	6d                   	ins    DWORD PTR es:[edi],dx
  40bae4:	61                   	popa   
  40bae5:	6c                   	ins    BYTE PTR es:[edi],dx
  40bae6:	6c                   	ins    BYTE PTR es:[edi],dx
  40bae7:	6f                   	outs   dx,DWORD PTR ds:[esi]
  40bae8:	63 00                	arpl   WORD PTR [eax],ax
  40baea:	07                   	pop    es
  40baeb:	08 01                	or     BYTE PTR [ecx],al
  40baed:	ad                   	lods   eax,DWORD PTR ds:[esi]
  40baee:	0f 00 00             	sldt   WORD PTR [eax]
  40baf1:	02 23                	add    ah,BYTE PTR [ebx]
  40baf3:	18 15 66 72 65 65    	sbb    BYTE PTR ds:0x65657266,dl
  40baf9:	00 07                	add    BYTE PTR [edi],al
  40bafb:	09 01                	or     DWORD PTR [ecx],eax
  40bafd:	bf 0f 00 00 02       	mov    edi,0x200000f
  40bb02:	23 1c 15 72 65 61 6c 	and    ebx,DWORD PTR [edx*1+0x6c616572]
  40bb09:	6c                   	ins    BYTE PTR es:[edi],dx
  40bb0a:	6f                   	outs   dx,DWORD PTR ds:[esi]
  40bb0b:	63 00                	arpl   WORD PTR [eax],ax
  40bb0d:	07                   	pop    es
  40bb0e:	0a 01                	or     al,BYTE PTR [ecx]
  40bb10:	da 0f                	fimul  DWORD PTR [edi]
  40bb12:	00 00                	add    BYTE PTR [eax],al
  40bb14:	02 23                	add    ah,BYTE PTR [ebx]
  40bb16:	20 15 66 6d 6f 64    	and    BYTE PTR ds:0x646f6d66,dl
  40bb1c:	65                   	gs
  40bb1d:	5f                   	pop    edi
  40bb1e:	70 74                	jo     40bb94 <.debug_info+0xe31>
  40bb20:	72 00                	jb     40bb22 <.debug_info+0xdbf>
  40bb22:	07                   	pop    es
  40bb23:	0c 01                	or     al,0x1
  40bb25:	bc 00 00 00 02       	mov    esp,0x2000000
  40bb2a:	23 24 15 6d 61 69 6e 	and    esp,DWORD PTR [edx*1+0x6e69616d]
  40bb31:	00 07                	add    BYTE PTR [edi],al
  40bb33:	0e                   	push   cs
  40bb34:	01 fa                	add    edx,edi
  40bb36:	0f 00 00             	sldt   WORD PTR [eax]
  40bb39:	02 23                	add    ah,BYTE PTR [ebx]
  40bb3b:	28 15 63 74 6f 72    	sub    BYTE PTR ds:0x726f7463,dl
  40bb41:	73 00                	jae    40bb43 <.debug_info+0xde0>
  40bb43:	07                   	pop    es
  40bb44:	0f 01 00             	sgdtd  [eax]
  40bb47:	10 00                	adc    BYTE PTR [eax],al
  40bb49:	00 02                	add    BYTE PTR [edx],al
  40bb4b:	23 2c 15 64 74 6f 72 	and    ebp,DWORD PTR [edx*1+0x726f7464]
  40bb52:	73 00                	jae    40bb54 <.debug_info+0xdf1>
  40bb54:	07                   	pop    es
  40bb55:	10 01                	adc    BYTE PTR [ecx],al
  40bb57:	00 10                	add    BYTE PTR [eax],dl
  40bb59:	00 00                	add    BYTE PTR [eax],al
  40bb5b:	02 23                	add    ah,BYTE PTR [ebx]
  40bb5d:	30 15 64 61 74 61    	xor    BYTE PTR ds:0x61746164,dl
  40bb63:	5f                   	pop    edi
  40bb64:	73 74                	jae    40bbda <.debug_info+0xe77>
  40bb66:	61                   	popa   
  40bb67:	72 74                	jb     40bbdd <.debug_info+0xe7a>
  40bb69:	00 07                	add    BYTE PTR [edi],al
  40bb6b:	13 01                	adc    eax,DWORD PTR [ecx]
  40bb6d:	64 01 00             	add    DWORD PTR fs:[eax],eax
  40bb70:	00 02                	add    BYTE PTR [edx],al
  40bb72:	23 34 15 64 61 74 61 	and    esi,DWORD PTR [edx*1+0x61746164]
  40bb79:	5f                   	pop    edi
  40bb7a:	65 6e                	outs   dx,BYTE PTR gs:[esi]
  40bb7c:	64 00 07             	add    BYTE PTR fs:[edi],al
  40bb7f:	14 01                	adc    al,0x1
  40bb81:	64 01 00             	add    DWORD PTR fs:[eax],eax
  40bb84:	00 02                	add    BYTE PTR [edx],al
  40bb86:	23 38                	and    edi,DWORD PTR [eax]
  40bb88:	15 62 73 73 5f       	adc    eax,0x5f737362
  40bb8d:	73 74                	jae    40bc03 <.debug_info+0xea0>
  40bb8f:	61                   	popa   
  40bb90:	72 74                	jb     40bc06 <.debug_info+0xea3>
  40bb92:	00 07                	add    BYTE PTR [edi],al
  40bb94:	15 01 64 01 00       	adc    eax,0x16401
  40bb99:	00 02                	add    BYTE PTR [edx],al
  40bb9b:	23 3c 15 62 73 73 5f 	and    edi,DWORD PTR [edx*1+0x5f737362]
  40bba2:	65 6e                	outs   dx,BYTE PTR gs:[esi]
  40bba4:	64 00 07             	add    BYTE PTR fs:[edi],al
  40bba7:	16                   	push   ss
  40bba8:	01 64 01 00          	add    DWORD PTR [ecx+eax*1+0x0],esp
  40bbac:	00 02                	add    BYTE PTR [edx],al
  40bbae:	23 40 15             	and    eax,DWORD PTR [eax+0x15]
  40bbb1:	63 61 6c             	arpl   WORD PTR [ecx+0x6c],sp
  40bbb4:	6c                   	ins    BYTE PTR es:[edi],dx
  40bbb5:	6f                   	outs   dx,DWORD PTR ds:[esi]
  40bbb6:	63 00                	arpl   WORD PTR [eax],ax
  40bbb8:	07                   	pop    es
  40bbb9:	18 01                	sbb    BYTE PTR [ecx],al
  40bbbb:	1b 10                	sbb    edx,DWORD PTR [eax]
  40bbbd:	00 00                	add    BYTE PTR [eax],al
  40bbbf:	02 23                	add    ah,BYTE PTR [ebx]
  40bbc1:	44                   	inc    esp
  40bbc2:	15 70 72 65 6d       	adc    eax,0x6d657270
  40bbc7:	61                   	popa   
  40bbc8:	69 6e 00 07 1a 01 21 	imul   ebp,DWORD PTR [esi+0x0],0x21011a07
  40bbcf:	10 00                	adc    BYTE PTR [eax],al
  40bbd1:	00 02                	add    BYTE PTR [edx],al
  40bbd3:	23 48 15             	and    ecx,DWORD PTR [eax+0x15]
  40bbd6:	72 75                	jb     40bc4d <.debug_info+0xeea>
  40bbd8:	6e                   	outs   dx,BYTE PTR ds:[esi]
  40bbd9:	5f                   	pop    edi
  40bbda:	63 74 6f 72          	arpl   WORD PTR [edi+ebp*2+0x72],si
  40bbde:	73 5f                	jae    40bc3f <.debug_info+0xedc>
  40bbe0:	70 00                	jo     40bbe2 <.debug_info+0xe7f>
  40bbe2:	07                   	pop    es
  40bbe3:	1d 01 b5 00 00       	sbb    eax,0xb501
  40bbe8:	00 02                	add    BYTE PTR [edx],al
  40bbea:	23 58 15             	and    ebx,DWORD PTR [eax+0x15]
  40bbed:	75 6e                	jne    40bc5d <.debug_info+0xefa>
  40bbef:	75 73                	jne    40bc64 <.debug_info+0xf01>
  40bbf1:	65 64 00 07          	gs add BYTE PTR fs:gs:[edi],al
  40bbf5:	1f                   	pop    ds
  40bbf6:	01 53 10             	add    DWORD PTR [ebx+0x10],edx
  40bbf9:	00 00                	add    BYTE PTR [eax],al
  40bbfb:	02 23                	add    ah,BYTE PTR [ebx]
  40bbfd:	5c                   	pop    esp
  40bbfe:	15 63 78 78 5f       	adc    eax,0x5f787863
  40bc03:	6d                   	ins    DWORD PTR es:[edi],dx
  40bc04:	61                   	popa   
  40bc05:	6c                   	ins    BYTE PTR es:[edi],dx
  40bc06:	6c                   	ins    BYTE PTR es:[edi],dx
  40bc07:	6f                   	outs   dx,DWORD PTR ds:[esi]
  40bc08:	63 00                	arpl   WORD PTR [eax],ax
  40bc0a:	07                   	pop    es
  40bc0b:	22 01                	and    al,BYTE PTR [ecx]
  40bc0d:	7c 10                	jl     40bc1f <.debug_info+0xebc>
  40bc0f:	00 00                	add    BYTE PTR [eax],al
  40bc11:	02 23                	add    ah,BYTE PTR [ebx]
  40bc13:	78 15                	js     40bc2a <.debug_info+0xec7>
  40bc15:	68 6d 6f 64 75       	push   0x75646f6d
  40bc1a:	6c                   	ins    BYTE PTR es:[edi],dx
  40bc1b:	65 00 07             	add    BYTE PTR gs:[edi],al
  40bc1e:	24 01                	and    al,0x1
  40bc20:	c8 0c 00 00          	enter  0xc,0x0
  40bc24:	02 23                	add    ah,BYTE PTR [ebx]
  40bc26:	7c 15                	jl     40bc3d <.debug_info+0xeda>
  40bc28:	61                   	popa   
  40bc29:	70 69                	jo     40bc94 <.debug_info+0xf31>
  40bc2b:	5f                   	pop    edi
  40bc2c:	6d                   	ins    DWORD PTR es:[edi],dx
  40bc2d:	61                   	popa   
  40bc2e:	6a 6f                	push   0x6f
  40bc30:	72 00                	jb     40bc32 <.debug_info+0xecf>
  40bc32:	07                   	pop    es
  40bc33:	26 01 93 00 00 00 03 	add    DWORD PTR es:[ebx+0x3000000],edx
  40bc3a:	23 80 01 15 61 70    	and    eax,DWORD PTR [eax+0x70611501]
  40bc40:	69 5f 6d 69 6e 6f 72 	imul   ebx,DWORD PTR [edi+0x6d],0x726f6e69
  40bc47:	00 07                	add    BYTE PTR [edi],al
  40bc49:	27                   	daa    
  40bc4a:	01 93 00 00 00 03    	add    DWORD PTR [ebx+0x3000000],edx
  40bc50:	23 84 01 15 75 6e 75 	and    eax,DWORD PTR [ecx+eax*1+0x756e7515]
  40bc57:	73 65                	jae    40bcbe <.debug_info+0xf5b>
  40bc59:	64 32 00             	xor    al,BYTE PTR fs:[eax]
  40bc5c:	07                   	pop    es
  40bc5d:	2a 01                	sub    al,BYTE PTR [ecx]
  40bc5f:	d8 0c 00             	fmul   DWORD PTR [eax+eax*1]
  40bc62:	00 03                	add    BYTE PTR [ebx],al
  40bc64:	23 88 01 15 70 73    	and    ecx,DWORD PTR [eax+0x73701501]
  40bc6a:	65                   	gs
  40bc6b:	75 64                	jne    40bcd1 <.debug_info+0xf6e>
  40bc6d:	6f                   	outs   dx,DWORD PTR ds:[esi]
  40bc6e:	5f                   	pop    edi
  40bc6f:	72 65                	jb     40bcd6 <.debug_info+0xf73>
  40bc71:	6c                   	ins    BYTE PTR es:[edi],dx
  40bc72:	6f                   	outs   dx,DWORD PTR ds:[esi]
  40bc73:	63 5f 73             	arpl   WORD PTR [edi+0x73],bx
  40bc76:	74 61                	je     40bcd9 <.debug_info+0xf76>
  40bc78:	72 74                	jb     40bcee <.debug_info+0xf8b>
  40bc7a:	00 07                	add    BYTE PTR [edi],al
  40bc7c:	2b 01                	sub    eax,DWORD PTR [ecx]
  40bc7e:	64 01 00             	add    DWORD PTR fs:[eax],eax
  40bc81:	00 03                	add    BYTE PTR [ebx],al
  40bc83:	23 94 01 15 70 73 65 	and    edx,DWORD PTR [ecx+eax*1+0x65737015]
  40bc8a:	75 64                	jne    40bcf0 <.debug_info+0xf8d>
  40bc8c:	6f                   	outs   dx,DWORD PTR ds:[esi]
  40bc8d:	5f                   	pop    edi
  40bc8e:	72 65                	jb     40bcf5 <.debug_info+0xf92>
  40bc90:	6c                   	ins    BYTE PTR es:[edi],dx
  40bc91:	6f                   	outs   dx,DWORD PTR ds:[esi]
  40bc92:	63 5f 65             	arpl   WORD PTR [edi+0x65],bx
  40bc95:	6e                   	outs   dx,BYTE PTR ds:[esi]
  40bc96:	64 00 07             	add    BYTE PTR fs:[edi],al
  40bc99:	2c 01                	sub    al,0x1
  40bc9b:	64 01 00             	add    DWORD PTR fs:[eax],eax
  40bc9e:	00 03                	add    BYTE PTR [ebx],al
  40bca0:	23 98 01 15 69 6d    	and    ebx,DWORD PTR [eax+0x6d691501]
  40bca6:	61                   	popa   
  40bca7:	67                   	addr16
  40bca8:	65                   	gs
  40bca9:	5f                   	pop    edi
  40bcaa:	62 61 73             	bound  esp,QWORD PTR [ecx+0x73]
  40bcad:	65 00 07             	add    BYTE PTR gs:[edi],al
  40bcb0:	2d 01 64 01 00       	sub    eax,0x16401
  40bcb5:	00 03                	add    BYTE PTR [ebx],al
  40bcb7:	23 9c 01 15 74 68 72 	and    ebx,DWORD PTR [ecx+eax*1+0x72687415]
  40bcbe:	65                   	gs
  40bcbf:	61                   	popa   
  40bcc0:	64 69 6e 74 65 72 66 	imul   ebp,DWORD PTR fs:[esi+0x74],0x61667265
  40bcc7:	61 
  40bcc8:	63 65 00             	arpl   WORD PTR [ebp+0x0],sp
  40bccb:	07                   	pop    es
  40bccc:	32 01                	xor    al,BYTE PTR [ecx]
  40bcce:	64 01 00             	add    DWORD PTR fs:[eax],eax
  40bcd1:	00 03                	add    BYTE PTR [ebx],al
  40bcd3:	23 a0 01 15 69 6d    	and    esp,DWORD PTR [eax+0x6d691501]
  40bcd9:	70 75                	jo     40bd50 <.debug_info+0xfed>
  40bcdb:	72 65                	jb     40bd42 <.debug_info+0xfdf>
  40bcdd:	5f                   	pop    edi
  40bcde:	70 74                	jo     40bd54 <.debug_info+0xff1>
  40bce0:	72 00                	jb     40bce2 <.debug_info+0xf7f>
  40bce2:	07                   	pop    es
  40bce3:	34 01                	xor    al,0x1
  40bce5:	b9 04 00 00 03       	mov    ecx,0x3000004
  40bcea:	23 a4 01 00 04 04 b9 	and    esp,DWORD PTR [ecx+eax*1-0x46fbfc00]
  40bcf1:	04 00                	add    al,0x0
  40bcf3:	00 04 04             	add    BYTE PTR [esp+eax*1],al
  40bcf6:	97                   	xchg   edi,eax
  40bcf7:	0f 00 00             	sldt   WORD PTR [eax]
  40bcfa:	04 04                	add    al,0x4
  40bcfc:	8b 06                	mov    eax,DWORD PTR [esi]
  40bcfe:	00 00                	add    BYTE PTR [eax],al
  40bd00:	12 01                	adc    al,BYTE PTR [ecx]
  40bd02:	64 01 00             	add    DWORD PTR fs:[eax],eax
  40bd05:	00 ad 0f 00 00 13    	add    BYTE PTR [ebp+0x1300000f],ch
  40bd0b:	7f 0c                	jg     40bd19 <.debug_info+0xfb6>
  40bd0d:	00 00                	add    BYTE PTR [eax],al
  40bd0f:	00 04 04             	add    BYTE PTR [esp+eax*1],al
  40bd12:	9d                   	popf   
  40bd13:	0f 00 00             	sldt   WORD PTR [eax]
  40bd16:	1b 01                	sbb    eax,DWORD PTR [ecx]
  40bd18:	bf 0f 00 00 13       	mov    edi,0x1300000f
  40bd1d:	64 01 00             	add    DWORD PTR fs:[eax],eax
  40bd20:	00 00                	add    BYTE PTR [eax],al
  40bd22:	04 04                	add    al,0x4
  40bd24:	b3 0f                	mov    bl,0xf
  40bd26:	00 00                	add    BYTE PTR [eax],al
  40bd28:	12 01                	adc    al,BYTE PTR [ecx]
  40bd2a:	64 01 00             	add    DWORD PTR fs:[eax],eax
  40bd2d:	00 da                	add    dl,bl
  40bd2f:	0f 00 00             	sldt   WORD PTR [eax]
  40bd32:	13 64 01 00          	adc    esp,DWORD PTR [ecx+eax*1+0x0]
  40bd36:	00 13                	add    BYTE PTR [ebx],dl
  40bd38:	7f 0c                	jg     40bd46 <.debug_info+0xfe3>
  40bd3a:	00 00                	add    BYTE PTR [eax],al
  40bd3c:	00 04 04             	add    BYTE PTR [esp+eax*1],al
  40bd3f:	c5 0f                	lds    ecx,FWORD PTR [edi]
  40bd41:	00 00                	add    BYTE PTR [eax],al
  40bd43:	12 01                	adc    al,BYTE PTR [ecx]
  40bd45:	b5 00                	mov    ch,0x0
  40bd47:	00 00                	add    BYTE PTR [eax],al
  40bd49:	fa                   	cli    
  40bd4a:	0f 00 00             	sldt   WORD PTR [eax]
  40bd4d:	13 b5 00 00 00 13    	adc    esi,DWORD PTR [ebp+0x13000000]
  40bd53:	97                   	xchg   edi,eax
  40bd54:	0f 00 00             	sldt   WORD PTR [eax]
  40bd57:	13 97 0f 00 00 00    	adc    edx,DWORD PTR [edi+0xf]
  40bd5d:	04 04                	add    al,0x4
  40bd5f:	e0 0f                	loopne 40bd70 <.debug_info+0x100d>
  40bd61:	00 00                	add    BYTE PTR [eax],al
  40bd63:	04 04                	add    al,0x4
  40bd65:	5e                   	pop    esi
  40bd66:	04 00                	add    al,0x0
  40bd68:	00 12                	add    BYTE PTR [edx],dl
  40bd6a:	01 64 01 00          	add    DWORD PTR [ecx+eax*1+0x0],esp
  40bd6e:	00 1b                	add    BYTE PTR [ebx],bl
  40bd70:	10 00                	adc    BYTE PTR [eax],al
  40bd72:	00 13                	add    BYTE PTR [ebx],dl
  40bd74:	7f 0c                	jg     40bd82 <.debug_info+0x101f>
  40bd76:	00 00                	add    BYTE PTR [eax],al
  40bd78:	13 7f 0c             	adc    edi,DWORD PTR [edi+0xc]
  40bd7b:	00 00                	add    BYTE PTR [eax],al
  40bd7d:	00 04 04             	add    BYTE PTR [esp+eax*1],al
  40bd80:	06                   	push   es
  40bd81:	10 00                	adc    BYTE PTR [eax],al
  40bd83:	00 09                	add    BYTE PTR [ecx],cl
  40bd85:	4d                   	dec    ebp
  40bd86:	10 00                	adc    BYTE PTR [eax],al
  40bd88:	00 31                	add    BYTE PTR [ecx],dh
  40bd8a:	10 00                	adc    BYTE PTR [eax],al
  40bd8c:	00 0a                	add    BYTE PTR [edx],cl
  40bd8e:	fe 00                	inc    BYTE PTR [eax]
  40bd90:	00 00                	add    BYTE PTR [eax],al
  40bd92:	03 00                	add    eax,DWORD PTR [eax]
  40bd94:	1b 01                	sbb    eax,DWORD PTR [ecx]
  40bd96:	47                   	inc    edi
  40bd97:	10 00                	adc    BYTE PTR [eax],al
  40bd99:	00 13                	add    BYTE PTR [ebx],dl
  40bd9b:	b5 00                	mov    ch,0x0
  40bd9d:	00 00                	add    BYTE PTR [eax],al
  40bd9f:	13 97 0f 00 00 13    	adc    edx,DWORD PTR [edi+0x1300000f]
  40bda5:	47                   	inc    edi
  40bda6:	10 00                	adc    BYTE PTR [eax],al
  40bda8:	00 00                	add    BYTE PTR [eax],al
  40bdaa:	04 04                	add    al,0x4
  40bdac:	e8 0c 00 00 04       	call   440bdbd <.debug_ranges+0x3ffadbd>
  40bdb1:	04 31                	add    al,0x31
  40bdb3:	10 00                	adc    BYTE PTR [eax],al
  40bdb5:	00 09                	add    BYTE PTR [ecx],cl
  40bdb7:	93                   	xchg   ebx,eax
  40bdb8:	00 00                	add    BYTE PTR [eax],al
  40bdba:	00 63 10             	add    BYTE PTR [ebx+0x10],ah
  40bdbd:	00 00                	add    BYTE PTR [eax],al
  40bdbf:	0a fe                	or     bh,dh
  40bdc1:	00 00                	add    BYTE PTR [eax],al
  40bdc3:	00 06                	add    BYTE PTR [esi],al
  40bdc5:	00 1c 70             	add    BYTE PTR [eax+esi*2],bl
  40bdc8:	65                   	gs
  40bdc9:	72 5f                	jb     40be2a <.debug_info+0x10c7>
  40bdcb:	70 72                	jo     40be3f <.debug_info+0x10dc>
  40bdcd:	6f                   	outs   dx,DWORD PTR ds:[esi]
  40bdce:	63 65 73             	arpl   WORD PTR [ebp+0x73],sp
  40bdd1:	73 5f                	jae    40be32 <.debug_info+0x10cf>
  40bdd3:	63 78 78             	arpl   WORD PTR [eax+0x78],di
  40bdd6:	5f                   	pop    edi
  40bdd7:	6d                   	ins    DWORD PTR es:[edi],dx
  40bdd8:	61                   	popa   
  40bdd9:	6c                   	ins    BYTE PTR es:[edi],dx
  40bdda:	6c                   	ins    BYTE PTR es:[edi],dx
  40bddb:	6f                   	outs   dx,DWORD PTR ds:[esi]
  40bddc:	63 00                	arpl   WORD PTR [eax],ax
  40bdde:	01 04 04             	add    DWORD PTR [esp+eax*1],eax
  40bde1:	63 10                	arpl   WORD PTR [eax],dx
  40bde3:	00 00                	add    BYTE PTR [eax],al
  40bde5:	03 4d 61             	add    ecx,DWORD PTR [ebp+0x61]
  40bde8:	69 6e 46 75 6e 63 00 	imul   ebp,DWORD PTR [esi+0x46],0x636e75
  40bdef:	08 11                	or     BYTE PTR [ecx],dl
  40bdf1:	fa                   	cli    
  40bdf2:	0f 00 00             	sldt   WORD PTR [eax]
  40bdf5:	1d 01 63 79 67       	sbb    eax,0x67796301
  40bdfa:	77 69                	ja     40be65 <.debug_info+0x1102>
  40bdfc:	6e                   	outs   dx,BYTE PTR ds:[esi]
  40bdfd:	5f                   	pop    edi
  40bdfe:	61                   	popa   
  40bdff:	74 74                	je     40be75 <.debug_info+0x1112>
  40be01:	61                   	popa   
  40be02:	63 68 5f             	arpl   WORD PTR [eax+0x5f],bp
  40be05:	64                   	fs
  40be06:	6c                   	ins    BYTE PTR es:[edi],dx
  40be07:	6c                   	ins    BYTE PTR es:[edi],dx
  40be08:	00 01                	add    BYTE PTR [ecx],al
  40be0a:	14 01                	adc    al,0x1
  40be0c:	b5 00                	mov    ch,0x0
  40be0e:	00 00                	add    BYTE PTR [eax],al
  40be10:	40                   	inc    eax
  40be11:	17                   	pop    ss
  40be12:	40                   	inc    eax
  40be13:	00 73 17             	add    BYTE PTR [ebx+0x17],dh
  40be16:	40                   	inc    eax
  40be17:	00 bf 03 00 00 1e    	add    BYTE PTR [edi+0x1e000003],bh
  40be1d:	68 00 01 14 c8       	push   0xc8140100
  40be22:	0c 00                	or     al,0x0
  40be24:	00 02                	add    BYTE PTR [edx],al
  40be26:	91                   	xchg   ecx,eax
  40be27:	00 1e                	add    BYTE PTR [esi],bl
  40be29:	66                   	data16
  40be2a:	00 01                	add    BYTE PTR [ecx],al
  40be2c:	14 82                	adc    al,0x82
  40be2e:	10 00                	adc    BYTE PTR [eax],al
  40be30:	00 02                	add    BYTE PTR [edx],al
  40be32:	91                   	xchg   ecx,eax
  40be33:	04 1f                	add    al,0x1f
  40be35:	75 00                	jne    40be37 <.debug_info+0x10d4>
  40be37:	01 16                	add    DWORD PTR [esi],edx
  40be39:	e8 0c 00 00 05       	call   540be4a <.debug_ranges+0x4ffae4a>
  40be3e:	03 20                	add    esp,DWORD PTR [eax]
  40be40:	30 40 00             	xor    BYTE PTR [eax+0x0],al
	...

Disassembly of section .debug_abbrev:

0040c000 <.debug_abbrev>:
  40c000:	01 11                	add    DWORD PTR [ecx],edx
  40c002:	01 25 08 13 0b 03    	add    DWORD PTR ds:0x30b1308,esp
  40c008:	08 11                	or     BYTE PTR [ecx],dl
  40c00a:	01 12                	add    DWORD PTR [edx],edx
  40c00c:	01 10                	add    DWORD PTR [eax],edx
  40c00e:	06                   	push   es
  40c00f:	00 00                	add    BYTE PTR [eax],al
  40c011:	02 24 00             	add    ah,BYTE PTR [eax+eax*1]
  40c014:	0b 0b                	or     ecx,DWORD PTR [ebx]
  40c016:	3e 0b 03             	or     eax,DWORD PTR ds:[ebx]
  40c019:	08 00                	or     BYTE PTR [eax],al
  40c01b:	00 03                	add    BYTE PTR [ebx],al
  40c01d:	2e 00 3f             	add    BYTE PTR cs:[edi],bh
  40c020:	0c 03                	or     al,0x3
  40c022:	08 3a                	or     BYTE PTR [edx],bh
  40c024:	0b 3b                	or     edi,DWORD PTR [ebx]
  40c026:	0b 11                	or     edx,DWORD PTR [ecx]
  40c028:	01 12                	add    DWORD PTR [edx],edx
  40c02a:	01 40 06             	add    DWORD PTR [eax+0x6],eax
  40c02d:	00 00                	add    BYTE PTR [eax],al
	...

0040c030 <.debug_abbrev>:
  40c030:	01 11                	add    DWORD PTR [ecx],edx
  40c032:	01 25 08 13 0b 03    	add    DWORD PTR ds:0x30b1308,esp
  40c038:	08 11                	or     BYTE PTR [ecx],dl
  40c03a:	01 12                	add    DWORD PTR [edx],edx
  40c03c:	01 10                	add    DWORD PTR [eax],edx
  40c03e:	06                   	push   es
  40c03f:	00 00                	add    BYTE PTR [eax],al
  40c041:	02 24 00             	add    ah,BYTE PTR [eax+eax*1]
  40c044:	0b 0b                	or     ecx,DWORD PTR [ebx]
  40c046:	3e 0b 03             	or     eax,DWORD PTR ds:[ebx]
  40c049:	08 00                	or     BYTE PTR [eax],al
  40c04b:	00 03                	add    BYTE PTR [ebx],al
  40c04d:	0f 00 0b             	str    WORD PTR [ebx]
  40c050:	0b 49 13             	or     ecx,DWORD PTR [ecx+0x13]
  40c053:	00 00                	add    BYTE PTR [eax],al
  40c055:	04 16                	add    al,0x16
  40c057:	00 03                	add    BYTE PTR [ebx],al
  40c059:	08 3a                	or     BYTE PTR [edx],bh
  40c05b:	0b 3b                	or     edi,DWORD PTR [ebx]
  40c05d:	0b 49 13             	or     ecx,DWORD PTR [ecx+0x13]
  40c060:	00 00                	add    BYTE PTR [eax],al
  40c062:	05 15 01 27 0c       	add    eax,0xc270115
  40c067:	49                   	dec    ecx
  40c068:	13 01                	adc    eax,DWORD PTR [ecx]
  40c06a:	13 00                	adc    eax,DWORD PTR [eax]
  40c06c:	00 06                	add    BYTE PTR [esi],al
  40c06e:	05 00 49 13 00       	add    eax,0x134900
  40c073:	00 07                	add    BYTE PTR [edi],al
  40c075:	2e 01 3f             	add    DWORD PTR cs:[edi],edi
  40c078:	0c 03                	or     al,0x3
  40c07a:	08 3a                	or     BYTE PTR [edx],bh
  40c07c:	0b 3b                	or     edi,DWORD PTR [ebx]
  40c07e:	0b 27                	or     esp,DWORD PTR [edi]
  40c080:	0c 11                	or     al,0x11
  40c082:	01 12                	add    DWORD PTR [edx],edx
  40c084:	01 40 06             	add    DWORD PTR [eax+0x6],eax
  40c087:	00 00                	add    BYTE PTR [eax],al
  40c089:	08 05 00 03 08 3a    	or     BYTE PTR ds:0x3a080300,al
  40c08f:	0b 3b                	or     edi,DWORD PTR [ebx]
  40c091:	0b 49 13             	or     ecx,DWORD PTR [ecx+0x13]
  40c094:	02 0a                	add    cl,BYTE PTR [edx]
  40c096:	00 00                	add    BYTE PTR [eax],al
	...

0040c099 <.debug_abbrev>:
  40c099:	01 11                	add    DWORD PTR [ecx],edx
  40c09b:	01 25 08 13 0b 03    	add    DWORD PTR ds:0x30b1308,esp
  40c0a1:	08 11                	or     BYTE PTR [ecx],dl
  40c0a3:	01 12                	add    DWORD PTR [edx],edx
  40c0a5:	01 10                	add    DWORD PTR [eax],edx
  40c0a7:	06                   	push   es
  40c0a8:	00 00                	add    BYTE PTR [eax],al
  40c0aa:	02 2e                	add    ch,BYTE PTR [esi]
  40c0ac:	01 3f                	add    DWORD PTR [edi],edi
  40c0ae:	0c 03                	or     al,0x3
  40c0b0:	08 3a                	or     BYTE PTR [edx],bh
  40c0b2:	0b 3b                	or     edi,DWORD PTR [ebx]
  40c0b4:	0b 27                	or     esp,DWORD PTR [edi]
  40c0b6:	0c 11                	or     al,0x11
  40c0b8:	01 12                	add    DWORD PTR [edx],edx
  40c0ba:	01 40 06             	add    DWORD PTR [eax+0x6],eax
  40c0bd:	01 13                	add    DWORD PTR [ebx],edx
  40c0bf:	00 00                	add    BYTE PTR [eax],al
  40c0c1:	03 05 00 03 08 3a    	add    eax,DWORD PTR ds:0x3a080300
  40c0c7:	0b 3b                	or     edi,DWORD PTR [ebx]
  40c0c9:	0b 49 13             	or     ecx,DWORD PTR [ecx+0x13]
  40c0cc:	02 0a                	add    cl,BYTE PTR [edx]
  40c0ce:	00 00                	add    BYTE PTR [eax],al
  40c0d0:	04 24                	add    al,0x24
  40c0d2:	00 0b                	add    BYTE PTR [ebx],cl
  40c0d4:	0b 3e                	or     edi,DWORD PTR [esi]
  40c0d6:	0b 03                	or     eax,DWORD PTR [ebx]
  40c0d8:	08 00                	or     BYTE PTR [eax],al
  40c0da:	00 05 0f 00 0b 0b    	add    BYTE PTR ds:0xb0b000f,al
  40c0e0:	49                   	dec    ecx
  40c0e1:	13 00                	adc    eax,DWORD PTR [eax]
	...

0040c0e5 <.debug_abbrev>:
  40c0e5:	01 11                	add    DWORD PTR [ecx],edx
  40c0e7:	01 25 08 13 0b 03    	add    DWORD PTR ds:0x30b1308,esp
  40c0ed:	08 11                	or     BYTE PTR [ecx],dl
  40c0ef:	01 12                	add    DWORD PTR [edx],edx
  40c0f1:	01 10                	add    DWORD PTR [eax],edx
  40c0f3:	06                   	push   es
  40c0f4:	00 00                	add    BYTE PTR [eax],al
  40c0f6:	02 2e                	add    ch,BYTE PTR [esi]
  40c0f8:	01 3f                	add    DWORD PTR [edi],edi
  40c0fa:	0c 03                	or     al,0x3
  40c0fc:	08 3a                	or     BYTE PTR [edx],bh
  40c0fe:	0b 3b                	or     edi,DWORD PTR [ebx]
  40c100:	0b 27                	or     esp,DWORD PTR [edi]
  40c102:	0c 11                	or     al,0x11
  40c104:	01 12                	add    DWORD PTR [edx],edx
  40c106:	01 40 06             	add    DWORD PTR [eax+0x6],eax
  40c109:	01 13                	add    DWORD PTR [ebx],edx
  40c10b:	00 00                	add    BYTE PTR [eax],al
  40c10d:	03 05 00 03 08 3a    	add    eax,DWORD PTR ds:0x3a080300
  40c113:	0b 3b                	or     edi,DWORD PTR [ebx]
  40c115:	0b 49 13             	or     ecx,DWORD PTR [ecx+0x13]
  40c118:	02 0a                	add    cl,BYTE PTR [edx]
  40c11a:	00 00                	add    BYTE PTR [eax],al
  40c11c:	04 24                	add    al,0x24
  40c11e:	00 0b                	add    BYTE PTR [ebx],cl
  40c120:	0b 3e                	or     edi,DWORD PTR [esi]
  40c122:	0b 03                	or     eax,DWORD PTR [ebx]
  40c124:	08 00                	or     BYTE PTR [eax],al
  40c126:	00 05 0f 00 0b 0b    	add    BYTE PTR ds:0xb0b000f,al
  40c12c:	49                   	dec    ecx
  40c12d:	13 00                	adc    eax,DWORD PTR [eax]
	...

0040c131 <.debug_abbrev>:
  40c131:	01 11                	add    DWORD PTR [ecx],edx
  40c133:	01 25 08 13 0b 03    	add    DWORD PTR ds:0x30b1308,esp
  40c139:	08 11                	or     BYTE PTR [ecx],dl
  40c13b:	01 12                	add    DWORD PTR [edx],edx
  40c13d:	01 10                	add    DWORD PTR [eax],edx
  40c13f:	06                   	push   es
  40c140:	00 00                	add    BYTE PTR [eax],al
  40c142:	02 2e                	add    ch,BYTE PTR [esi]
  40c144:	01 3f                	add    DWORD PTR [edi],edi
  40c146:	0c 03                	or     al,0x3
  40c148:	08 3a                	or     BYTE PTR [edx],bh
  40c14a:	0b 3b                	or     edi,DWORD PTR [ebx]
  40c14c:	0b 27                	or     esp,DWORD PTR [edi]
  40c14e:	0c 11                	or     al,0x11
  40c150:	01 12                	add    DWORD PTR [edx],edx
  40c152:	01 40 06             	add    DWORD PTR [eax+0x6],eax
  40c155:	01 13                	add    DWORD PTR [ebx],edx
  40c157:	00 00                	add    BYTE PTR [eax],al
  40c159:	03 05 00 03 08 3a    	add    eax,DWORD PTR ds:0x3a080300
  40c15f:	0b 3b                	or     edi,DWORD PTR [ebx]
  40c161:	0b 49 13             	or     ecx,DWORD PTR [ecx+0x13]
  40c164:	02 0a                	add    cl,BYTE PTR [edx]
  40c166:	00 00                	add    BYTE PTR [eax],al
  40c168:	04 24                	add    al,0x24
  40c16a:	00 0b                	add    BYTE PTR [ebx],cl
  40c16c:	0b 3e                	or     edi,DWORD PTR [esi]
  40c16e:	0b 03                	or     eax,DWORD PTR [ebx]
  40c170:	08 00                	or     BYTE PTR [eax],al
  40c172:	00 05 0f 00 0b 0b    	add    BYTE PTR ds:0xb0b000f,al
  40c178:	49                   	dec    ecx
  40c179:	13 00                	adc    eax,DWORD PTR [eax]
	...

0040c17d <.debug_abbrev>:
  40c17d:	01 11                	add    DWORD PTR [ecx],edx
  40c17f:	01 25 08 13 0b 03    	add    DWORD PTR ds:0x30b1308,esp
  40c185:	08 11                	or     BYTE PTR [ecx],dl
  40c187:	01 12                	add    DWORD PTR [edx],edx
  40c189:	01 10                	add    DWORD PTR [eax],edx
  40c18b:	06                   	push   es
  40c18c:	00 00                	add    BYTE PTR [eax],al
  40c18e:	02 2e                	add    ch,BYTE PTR [esi]
  40c190:	01 3f                	add    DWORD PTR [edi],edi
  40c192:	0c 03                	or     al,0x3
  40c194:	08 3a                	or     BYTE PTR [edx],bh
  40c196:	0b 3b                	or     edi,DWORD PTR [ebx]
  40c198:	0b 27                	or     esp,DWORD PTR [edi]
  40c19a:	0c 11                	or     al,0x11
  40c19c:	01 12                	add    DWORD PTR [edx],edx
  40c19e:	01 40 06             	add    DWORD PTR [eax+0x6],eax
  40c1a1:	01 13                	add    DWORD PTR [ebx],edx
  40c1a3:	00 00                	add    BYTE PTR [eax],al
  40c1a5:	03 05 00 03 08 3a    	add    eax,DWORD PTR ds:0x3a080300
  40c1ab:	0b 3b                	or     edi,DWORD PTR [ebx]
  40c1ad:	0b 49 13             	or     ecx,DWORD PTR [ecx+0x13]
  40c1b0:	02 0a                	add    cl,BYTE PTR [edx]
  40c1b2:	00 00                	add    BYTE PTR [eax],al
  40c1b4:	04 24                	add    al,0x24
  40c1b6:	00 0b                	add    BYTE PTR [ebx],cl
  40c1b8:	0b 3e                	or     edi,DWORD PTR [esi]
  40c1ba:	0b 03                	or     eax,DWORD PTR [ebx]
  40c1bc:	08 00                	or     BYTE PTR [eax],al
  40c1be:	00 05 0f 00 0b 0b    	add    BYTE PTR ds:0xb0b000f,al
  40c1c4:	49                   	dec    ecx
  40c1c5:	13 00                	adc    eax,DWORD PTR [eax]
	...

0040c1c9 <.debug_abbrev>:
  40c1c9:	01 11                	add    DWORD PTR [ecx],edx
  40c1cb:	01 25 08 13 0b 03    	add    DWORD PTR ds:0x30b1308,esp
  40c1d1:	08 1b                	or     BYTE PTR [ebx],bl
  40c1d3:	08 11                	or     BYTE PTR [ecx],dl
  40c1d5:	01 12                	add    DWORD PTR [edx],edx
  40c1d7:	01 10                	add    DWORD PTR [eax],edx
  40c1d9:	06                   	push   es
  40c1da:	00 00                	add    BYTE PTR [eax],al
  40c1dc:	02 24 00             	add    ah,BYTE PTR [eax+eax*1]
  40c1df:	0b 0b                	or     ecx,DWORD PTR [ebx]
  40c1e1:	3e 0b 03             	or     eax,DWORD PTR ds:[ebx]
  40c1e4:	08 00                	or     BYTE PTR [eax],al
  40c1e6:	00 03                	add    BYTE PTR [ebx],al
  40c1e8:	16                   	push   ss
  40c1e9:	00 03                	add    BYTE PTR [ebx],al
  40c1eb:	08 3a                	or     BYTE PTR [edx],bh
  40c1ed:	0b 3b                	or     edi,DWORD PTR [ebx]
  40c1ef:	0b 49 13             	or     ecx,DWORD PTR [ecx+0x13]
  40c1f2:	00 00                	add    BYTE PTR [eax],al
  40c1f4:	04 0f                	add    al,0xf
  40c1f6:	00 0b                	add    BYTE PTR [ebx],cl
  40c1f8:	0b 00                	or     eax,DWORD PTR [eax]
  40c1fa:	00 05 16 00 03 08    	add    BYTE PTR ds:0x8030016,al
  40c200:	3a 0b                	cmp    cl,BYTE PTR [ebx]
  40c202:	3b 05 49 13 00 00    	cmp    eax,DWORD PTR ds:0x1349
  40c208:	06                   	push   es
  40c209:	13 01                	adc    eax,DWORD PTR [ecx]
  40c20b:	0b 0b                	or     ecx,DWORD PTR [ebx]
  40c20d:	3a 0b                	cmp    cl,BYTE PTR [ebx]
  40c20f:	3b 0b                	cmp    ecx,DWORD PTR [ebx]
  40c211:	03 08                	add    ecx,DWORD PTR [eax]
  40c213:	01 13                	add    DWORD PTR [ebx],edx
  40c215:	00 00                	add    BYTE PTR [eax],al
  40c217:	07                   	pop    es
  40c218:	17                   	pop    ss
  40c219:	01 0b                	add    DWORD PTR [ebx],ecx
  40c21b:	0b 3a                	or     edi,DWORD PTR [edx]
  40c21d:	0b 3b                	or     edi,DWORD PTR [ebx]
  40c21f:	0b 01                	or     eax,DWORD PTR [ecx]
  40c221:	13 00                	adc    eax,DWORD PTR [eax]
  40c223:	00 08                	add    BYTE PTR [eax],cl
  40c225:	0d 00 03 08 3a       	or     eax,0x3a080300
  40c22a:	0b 3b                	or     edi,DWORD PTR [ebx]
  40c22c:	0b 49 13             	or     ecx,DWORD PTR [ecx+0x13]
  40c22f:	00 00                	add    BYTE PTR [eax],al
  40c231:	09 0d 00 03 08 3a    	or     DWORD PTR ds:0x3a080300,ecx
  40c237:	0b 3b                	or     edi,DWORD PTR [ebx]
  40c239:	0b 49 13             	or     ecx,DWORD PTR [ecx+0x13]
  40c23c:	38 0a                	cmp    BYTE PTR [edx],cl
  40c23e:	00 00                	add    BYTE PTR [eax],al
  40c240:	0a 01                	or     al,BYTE PTR [ecx]
  40c242:	01 49 13             	add    DWORD PTR [ecx+0x13],ecx
  40c245:	01 13                	add    DWORD PTR [ebx],edx
  40c247:	00 00                	add    BYTE PTR [eax],al
  40c249:	0b 21                	or     esp,DWORD PTR [ecx]
  40c24b:	00 49 13             	add    BYTE PTR [ecx+0x13],cl
  40c24e:	2f                   	das    
  40c24f:	0b 00                	or     eax,DWORD PTR [eax]
  40c251:	00 0c 0f             	add    BYTE PTR [edi+ecx*1],cl
  40c254:	00 0b                	add    BYTE PTR [ebx],cl
  40c256:	0b 49 13             	or     ecx,DWORD PTR [ecx+0x13]
  40c259:	00 00                	add    BYTE PTR [eax],al
  40c25b:	0d 0f 00 0b 0b       	or     eax,0xb0b000f
  40c260:	03 08                	add    ecx,DWORD PTR [eax]
  40c262:	49                   	dec    ecx
  40c263:	13 00                	adc    eax,DWORD PTR [eax]
  40c265:	00 0e                	add    BYTE PTR [esi],cl
  40c267:	02 01                	add    al,BYTE PTR [ecx]
  40c269:	03 0e                	add    ecx,DWORD PTR [esi]
  40c26b:	0b 0b                	or     ecx,DWORD PTR [ebx]
  40c26d:	3a 0b                	cmp    cl,BYTE PTR [ebx]
  40c26f:	3b 0b                	cmp    ecx,DWORD PTR [ebx]
  40c271:	01 13                	add    DWORD PTR [ebx],edx
  40c273:	00 00                	add    BYTE PTR [eax],al
  40c275:	0f 0d 00             	prefetch BYTE PTR [eax]
  40c278:	03 08                	add    ecx,DWORD PTR [eax]
  40c27a:	3a 0b                	cmp    cl,BYTE PTR [ebx]
  40c27c:	3b 0b                	cmp    ecx,DWORD PTR [ebx]
  40c27e:	49                   	dec    ecx
  40c27f:	13 38                	adc    edi,DWORD PTR [eax]
  40c281:	0a 32                	or     dh,BYTE PTR [edx]
  40c283:	0b 00                	or     eax,DWORD PTR [eax]
  40c285:	00 10                	add    BYTE PTR [eax],dl
  40c287:	2e 01 3f             	add    DWORD PTR cs:[edi],edi
  40c28a:	0c 03                	or     al,0x3
  40c28c:	08 3a                	or     BYTE PTR [edx],bh
  40c28e:	0b 3b                	or     edi,DWORD PTR [ebx]
  40c290:	0b 87 40 08 49 13    	or     eax,DWORD PTR [edi+0x13490840]
  40c296:	32 0b                	xor    cl,BYTE PTR [ebx]
  40c298:	3c 0c                	cmp    al,0xc
  40c29a:	01 13                	add    DWORD PTR [ebx],edx
  40c29c:	00 00                	add    BYTE PTR [eax],al
  40c29e:	11 05 00 49 13 34    	adc    DWORD PTR ds:0x34134900,eax
  40c2a4:	0c 00                	or     al,0x0
  40c2a6:	00 12                	add    BYTE PTR [edx],dl
  40c2a8:	05 00 49 13 00       	add    eax,0x134900
  40c2ad:	00 13                	add    BYTE PTR [ebx],dl
  40c2af:	2e 01 3f             	add    DWORD PTR cs:[edi],edi
  40c2b2:	0c 03                	or     al,0x3
  40c2b4:	08 3a                	or     BYTE PTR [edx],bh
  40c2b6:	0b 3b                	or     edi,DWORD PTR [ebx]
  40c2b8:	0b 87 40 08 32 0b    	or     eax,DWORD PTR [edi+0xb320840]
  40c2be:	3c 0c                	cmp    al,0xc
  40c2c0:	01 13                	add    DWORD PTR [ebx],edx
  40c2c2:	00 00                	add    BYTE PTR [eax],al
  40c2c4:	14 2e                	adc    al,0x2e
  40c2c6:	01 3f                	add    DWORD PTR [edi],edi
  40c2c8:	0c 03                	or     al,0x3
  40c2ca:	08 3a                	or     BYTE PTR [edx],bh
  40c2cc:	0b 3b                	or     edi,DWORD PTR [ebx]
  40c2ce:	0b 87 40 08 3c 0c    	or     eax,DWORD PTR [edi+0xc3c0840]
  40c2d4:	01 13                	add    DWORD PTR [ebx],edx
  40c2d6:	00 00                	add    BYTE PTR [eax],al
  40c2d8:	15 2e 01 3f 0c       	adc    eax,0xc3f012e
  40c2dd:	03 0e                	add    ecx,DWORD PTR [esi]
  40c2df:	3a 0b                	cmp    cl,BYTE PTR [ebx]
  40c2e1:	3b 0b                	cmp    ecx,DWORD PTR [ebx]
  40c2e3:	3c 0c                	cmp    al,0xc
  40c2e5:	01 13                	add    DWORD PTR [ebx],edx
  40c2e7:	00 00                	add    BYTE PTR [eax],al
  40c2e9:	16                   	push   ss
  40c2ea:	2e 01 3f             	add    DWORD PTR cs:[edi],edi
  40c2ed:	0c 03                	or     al,0x3
  40c2ef:	08 3a                	or     BYTE PTR [edx],bh
  40c2f1:	0b 3b                	or     edi,DWORD PTR [ebx]
  40c2f3:	0b 87 40 08 49 13    	or     eax,DWORD PTR [edi+0x13490840]
  40c2f9:	3c 0c                	cmp    al,0xc
  40c2fb:	01 13                	add    DWORD PTR [ebx],edx
  40c2fd:	00 00                	add    BYTE PTR [eax],al
  40c2ff:	17                   	pop    ss
  40c300:	18 00                	sbb    BYTE PTR [eax],al
  40c302:	00 00                	add    BYTE PTR [eax],al
  40c304:	18 2e                	sbb    BYTE PTR [esi],ch
  40c306:	01 3f                	add    DWORD PTR [edi],edi
  40c308:	0c 03                	or     al,0x3
  40c30a:	08 3a                	or     BYTE PTR [edx],bh
  40c30c:	0b 3b                	or     edi,DWORD PTR [ebx]
  40c30e:	0b 87 40 08 49 13    	or     eax,DWORD PTR [edi+0x13490840]
  40c314:	3c 0c                	cmp    al,0xc
  40c316:	00 00                	add    BYTE PTR [eax],al
  40c318:	19 26                	sbb    DWORD PTR [esi],esp
  40c31a:	00 49 13             	add    BYTE PTR [ecx+0x13],cl
  40c31d:	00 00                	add    BYTE PTR [eax],al
  40c31f:	1a 10                	sbb    dl,BYTE PTR [eax]
  40c321:	00 0b                	add    BYTE PTR [ebx],cl
  40c323:	0b 49 13             	or     ecx,DWORD PTR [ecx+0x13]
  40c326:	00 00                	add    BYTE PTR [eax],al
  40c328:	1b 13                	sbb    edx,DWORD PTR [ebx]
  40c32a:	01 03                	add    DWORD PTR [ebx],eax
  40c32c:	08 0b                	or     BYTE PTR [ebx],cl
  40c32e:	0b 3a                	or     edi,DWORD PTR [edx]
  40c330:	0b 3b                	or     edi,DWORD PTR [ebx]
  40c332:	0b 01                	or     eax,DWORD PTR [ecx]
  40c334:	13 00                	adc    eax,DWORD PTR [eax]
  40c336:	00 1c 13             	add    BYTE PTR [ebx+edx*1],bl
  40c339:	01 03                	add    DWORD PTR [ebx],eax
  40c33b:	0e                   	push   cs
  40c33c:	0b 05 3a 0b 3b 0b    	or     eax,DWORD PTR ds:0xb3b0b3a
  40c342:	01 13                	add    DWORD PTR [ebx],edx
  40c344:	00 00                	add    BYTE PTR [eax],al
  40c346:	1d 13 01 03 08       	sbb    eax,0x8030113
  40c34b:	0b 05 3a 0b 3b 0b    	or     eax,DWORD PTR ds:0xb3b0b3a
  40c351:	01 13                	add    DWORD PTR [ebx],edx
  40c353:	00 00                	add    BYTE PTR [eax],al
  40c355:	1e                   	push   ds
  40c356:	0d 00 03 0e 3a       	or     eax,0x3a0e0300
  40c35b:	0b 3b                	or     edi,DWORD PTR [ebx]
  40c35d:	0b 49 13             	or     ecx,DWORD PTR [ecx+0x13]
  40c360:	38 0a                	cmp    BYTE PTR [edx],cl
  40c362:	00 00                	add    BYTE PTR [eax],al
  40c364:	1f                   	pop    ds
  40c365:	15 00 00 00 20       	adc    eax,0x20000000
  40c36a:	15 01 49 13 01       	adc    eax,0x1134901
  40c36f:	13 00                	adc    eax,DWORD PTR [eax]
  40c371:	00 21                	add    BYTE PTR [ecx],ah
  40c373:	13 01                	adc    eax,DWORD PTR [ecx]
  40c375:	03 08                	add    ecx,DWORD PTR [eax]
  40c377:	0b 05 3a 0b 3b 05    	or     eax,DWORD PTR ds:0x53b0b3a
  40c37d:	01 13                	add    DWORD PTR [ebx],edx
  40c37f:	00 00                	add    BYTE PTR [eax],al
  40c381:	22 17                	and    dl,BYTE PTR [edi]
  40c383:	01 0b                	add    DWORD PTR [ebx],ecx
  40c385:	0b 3a                	or     edi,DWORD PTR [edx]
  40c387:	0b 3b                	or     edi,DWORD PTR [ebx]
  40c389:	05 01 13 00 00       	add    eax,0x1301
  40c38e:	23 13                	and    edx,DWORD PTR [ebx]
  40c390:	01 0b                	add    DWORD PTR [ebx],ecx
  40c392:	0b 3a                	or     edi,DWORD PTR [edx]
  40c394:	0b 3b                	or     edi,DWORD PTR [ebx]
  40c396:	05 01 13 00 00       	add    eax,0x1301
  40c39b:	24 0d                	and    al,0xd
  40c39d:	00 03                	add    BYTE PTR [ebx],al
  40c39f:	08 3a                	or     BYTE PTR [edx],bh
  40c3a1:	0b 3b                	or     edi,DWORD PTR [ebx]
  40c3a3:	05 49 13 38 0a       	add    eax,0xa381349
  40c3a8:	00 00                	add    BYTE PTR [eax],al
  40c3aa:	25 0d 00 03 08       	and    eax,0x803000d
  40c3af:	3a 0b                	cmp    cl,BYTE PTR [ebx]
  40c3b1:	3b 05 49 13 00 00    	cmp    eax,DWORD PTR ds:0x1349
  40c3b7:	26 13 01             	adc    eax,DWORD PTR es:[ecx]
  40c3ba:	03 08                	add    ecx,DWORD PTR [eax]
  40c3bc:	0b 0b                	or     ecx,DWORD PTR [ebx]
  40c3be:	3a 0b                	cmp    cl,BYTE PTR [ebx]
  40c3c0:	3b 05 01 13 00 00    	cmp    eax,DWORD PTR ds:0x1301
  40c3c6:	27                   	daa    
  40c3c7:	15 01 01 13 00       	adc    eax,0x130101
  40c3cc:	00 28                	add    BYTE PTR [eax],ch
  40c3ce:	04 01                	add    al,0x1
  40c3d0:	0b 0b                	or     ecx,DWORD PTR [ebx]
  40c3d2:	3a 0b                	cmp    cl,BYTE PTR [ebx]
  40c3d4:	3b 0b                	cmp    ecx,DWORD PTR [ebx]
  40c3d6:	03 08                	add    ecx,DWORD PTR [eax]
  40c3d8:	01 13                	add    DWORD PTR [ebx],edx
  40c3da:	00 00                	add    BYTE PTR [eax],al
  40c3dc:	29 28                	sub    DWORD PTR [eax],ebp
  40c3de:	00 03                	add    BYTE PTR [ebx],al
  40c3e0:	08 1c 0d 00 00 2a 2e 	or     BYTE PTR [ecx*1+0x2e2a0000],bl
  40c3e7:	01 3f                	add    DWORD PTR [edi],edi
  40c3e9:	0c 03                	or     al,0x3
  40c3eb:	08 3a                	or     BYTE PTR [edx],bh
  40c3ed:	0b 3b                	or     edi,DWORD PTR [ebx]
  40c3ef:	05 87 40 08 3c       	add    eax,0x3c084087
  40c3f4:	0c 01                	or     al,0x1
  40c3f6:	13 00                	adc    eax,DWORD PTR [eax]
  40c3f8:	00 2b                	add    BYTE PTR [ebx],ch
  40c3fa:	2e 01 3f             	add    DWORD PTR cs:[edi],edi
  40c3fd:	0c 03                	or     al,0x3
  40c3ff:	08 3a                	or     BYTE PTR [edx],bh
  40c401:	0b 3b                	or     edi,DWORD PTR [ebx]
  40c403:	05 87 40 08 3c       	add    eax,0x3c084087
  40c408:	0c 00                	or     al,0x0
  40c40a:	00 2c 02             	add    BYTE PTR [edx+eax*1],ch
  40c40d:	01 03                	add    DWORD PTR [ebx],eax
  40c40f:	08 0b                	or     BYTE PTR [ebx],cl
  40c411:	0b 3a                	or     edi,DWORD PTR [edx]
  40c413:	0b 3b                	or     edi,DWORD PTR [ebx]
  40c415:	05 01 13 00 00       	add    eax,0x1301
  40c41a:	2d 39 01 03 08       	sub    eax,0x8030139
  40c41f:	3a 0b                	cmp    cl,BYTE PTR [ebx]
  40c421:	3b 0b                	cmp    ecx,DWORD PTR [ebx]
  40c423:	01 13                	add    DWORD PTR [ebx],edx
  40c425:	00 00                	add    BYTE PTR [eax],al
  40c427:	2e 08 00             	or     BYTE PTR cs:[eax],al
  40c42a:	3a 0b                	cmp    cl,BYTE PTR [ebx]
  40c42c:	3b 0b                	cmp    ecx,DWORD PTR [ebx]
  40c42e:	18 13                	sbb    BYTE PTR [ebx],dl
  40c430:	00 00                	add    BYTE PTR [eax],al
  40c432:	2f                   	das    
  40c433:	13 00                	adc    eax,DWORD PTR [eax]
  40c435:	03 08                	add    ecx,DWORD PTR [eax]
  40c437:	3c 0c                	cmp    al,0xc
  40c439:	00 00                	add    BYTE PTR [eax],al
  40c43b:	30 13                	xor    BYTE PTR [ebx],dl
  40c43d:	00 47 13             	add    BYTE PTR [edi+0x13],al
  40c440:	0b 0b                	or     ecx,DWORD PTR [ebx]
  40c442:	3a 0b                	cmp    cl,BYTE PTR [ebx]
  40c444:	3b 0b                	cmp    ecx,DWORD PTR [ebx]
  40c446:	00 00                	add    BYTE PTR [eax],al
  40c448:	31 2e                	xor    DWORD PTR [esi],ebp
  40c44a:	01 3f                	add    DWORD PTR [edi],edi
  40c44c:	0c 03                	or     al,0x3
  40c44e:	08 3a                	or     BYTE PTR [edx],bh
  40c450:	0b 3b                	or     edi,DWORD PTR [ebx]
  40c452:	0b 87 40 08 49 13    	or     eax,DWORD PTR [edi+0x13490840]
  40c458:	11 01                	adc    DWORD PTR [ecx],eax
  40c45a:	12 01                	adc    al,BYTE PTR [ecx]
  40c45c:	40                   	inc    eax
  40c45d:	06                   	push   es
  40c45e:	01 13                	add    DWORD PTR [ebx],edx
  40c460:	00 00                	add    BYTE PTR [eax],al
  40c462:	32 05 00 03 08 3a    	xor    al,BYTE PTR ds:0x3a080300
  40c468:	0b 3b                	or     edi,DWORD PTR [ebx]
  40c46a:	0b 49 13             	or     ecx,DWORD PTR [ecx+0x13]
  40c46d:	02 0a                	add    cl,BYTE PTR [edx]
  40c46f:	00 00                	add    BYTE PTR [eax],al
  40c471:	33 05 00 03 08 3a    	xor    eax,DWORD PTR ds:0x3a080300
  40c477:	0b 3b                	or     edi,DWORD PTR [ebx]
  40c479:	0b 49 13             	or     ecx,DWORD PTR [ecx+0x13]
  40c47c:	02 06                	add    al,BYTE PTR [esi]
  40c47e:	00 00                	add    BYTE PTR [eax],al
  40c480:	34 0b                	xor    al,0xb
  40c482:	01 55 06             	add    DWORD PTR [ebp+0x6],edx
  40c485:	00 00                	add    BYTE PTR [eax],al
  40c487:	35 34 00 03 08       	xor    eax,0x8030034
  40c48c:	3a 0b                	cmp    cl,BYTE PTR [ebx]
  40c48e:	3b 0b                	cmp    ecx,DWORD PTR [ebx]
  40c490:	49                   	dec    ecx
  40c491:	13 02                	adc    eax,DWORD PTR [edx]
  40c493:	06                   	push   es
  40c494:	00 00                	add    BYTE PTR [eax],al
  40c496:	36                   	ss
  40c497:	34 00                	xor    al,0x0
  40c499:	03 0e                	add    ecx,DWORD PTR [esi]
  40c49b:	3a 0b                	cmp    cl,BYTE PTR [ebx]
  40c49d:	3b 0b                	cmp    ecx,DWORD PTR [ebx]
  40c49f:	49                   	dec    ecx
  40c4a0:	13 3f                	adc    edi,DWORD PTR [edi]
  40c4a2:	0c 3c                	or     al,0x3c
  40c4a4:	0c 00                	or     al,0x0
  40c4a6:	00 37                	add    BYTE PTR [edi],dh
  40c4a8:	34 00                	xor    al,0x0
  40c4aa:	03 08                	add    ecx,DWORD PTR [eax]
  40c4ac:	3a 0b                	cmp    cl,BYTE PTR [ebx]
  40c4ae:	3b 0b                	cmp    ecx,DWORD PTR [ebx]
  40c4b0:	49                   	dec    ecx
  40c4b1:	13 3f                	adc    edi,DWORD PTR [edi]
  40c4b3:	0c 3c                	or     al,0x3c
  40c4b5:	0c 00                	or     al,0x0
  40c4b7:	00 38                	add    BYTE PTR [eax],bh
  40c4b9:	34 00                	xor    al,0x0
  40c4bb:	03 08                	add    ecx,DWORD PTR [eax]
  40c4bd:	3a 0b                	cmp    cl,BYTE PTR [ebx]
  40c4bf:	3b 05 49 13 3f 0c    	cmp    eax,DWORD PTR ds:0xc3f1349
  40c4c5:	3c 0c                	cmp    al,0xc
  40c4c7:	00 00                	add    BYTE PTR [eax],al
  40c4c9:	39 34 00             	cmp    DWORD PTR [eax+eax*1],esi
  40c4cc:	03 08                	add    ecx,DWORD PTR [eax]
  40c4ce:	3a 0b                	cmp    cl,BYTE PTR [ebx]
  40c4d0:	3b 05 49 13 1c 05    	cmp    eax,DWORD PTR ds:0x51c1349
  40c4d6:	00 00                	add    BYTE PTR [eax],al
  40c4d8:	3a 34 00             	cmp    dh,BYTE PTR [eax+eax*1]
  40c4db:	03 08                	add    ecx,DWORD PTR [eax]
  40c4dd:	3a 0b                	cmp    cl,BYTE PTR [ebx]
  40c4df:	3b 05 87 40 08 49    	cmp    eax,DWORD PTR ds:0x49084087
  40c4e5:	13 3f                	adc    edi,DWORD PTR [edi]
  40c4e7:	0c 3c                	or     al,0x3c
  40c4e9:	0c 00                	or     al,0x0
  40c4eb:	00 3b                	add    BYTE PTR [ebx],bh
  40c4ed:	34 00                	xor    al,0x0
  40c4ef:	03 08                	add    ecx,DWORD PTR [eax]
  40c4f1:	3a 0b                	cmp    cl,BYTE PTR [ebx]
  40c4f3:	3b 0b                	cmp    ecx,DWORD PTR [ebx]
  40c4f5:	49                   	dec    ecx
  40c4f6:	13 1c 0b             	adc    ebx,DWORD PTR [ebx+ecx*1]
  40c4f9:	00 00                	add    BYTE PTR [eax],al
  40c4fb:	3c 34                	cmp    al,0x34
  40c4fd:	00 03                	add    BYTE PTR [ebx],al
  40c4ff:	08 3a                	or     BYTE PTR [edx],bh
  40c501:	0b 3b                	or     edi,DWORD PTR [ebx]
  40c503:	0b 49 13             	or     ecx,DWORD PTR [ecx+0x13]
  40c506:	3f                   	aas    
  40c507:	0c 02                	or     al,0x2
  40c509:	0a 00                	or     al,BYTE PTR [eax]
	...

0040c50d <.debug_abbrev>:
  40c50d:	01 11                	add    DWORD PTR [ecx],edx
  40c50f:	01 25 08 13 0b 03    	add    DWORD PTR ds:0x30b1308,esp
  40c515:	08 11                	or     BYTE PTR [ecx],dl
  40c517:	01 12                	add    DWORD PTR [edx],edx
  40c519:	01 10                	add    DWORD PTR [eax],edx
  40c51b:	06                   	push   es
  40c51c:	00 00                	add    BYTE PTR [eax],al
  40c51e:	02 24 00             	add    ah,BYTE PTR [eax+eax*1]
  40c521:	0b 0b                	or     ecx,DWORD PTR [ebx]
  40c523:	3e 0b 03             	or     eax,DWORD PTR ds:[ebx]
  40c526:	08 00                	or     BYTE PTR [eax],al
  40c528:	00 03                	add    BYTE PTR [ebx],al
  40c52a:	16                   	push   ss
  40c52b:	00 03                	add    BYTE PTR [ebx],al
  40c52d:	08 3a                	or     BYTE PTR [edx],bh
  40c52f:	0b 3b                	or     edi,DWORD PTR [ebx]
  40c531:	0b 49 13             	or     ecx,DWORD PTR [ecx+0x13]
  40c534:	00 00                	add    BYTE PTR [eax],al
  40c536:	04 0f                	add    al,0xf
  40c538:	00 0b                	add    BYTE PTR [ebx],cl
  40c53a:	0b 00                	or     eax,DWORD PTR [eax]
  40c53c:	00 05 0f 00 0b 0b    	add    BYTE PTR ds:0xb0b000f,al
  40c542:	49                   	dec    ecx
  40c543:	13 00                	adc    eax,DWORD PTR [eax]
  40c545:	00 06                	add    BYTE PTR [esi],al
  40c547:	13 01                	adc    eax,DWORD PTR [ecx]
  40c549:	03 08                	add    ecx,DWORD PTR [eax]
  40c54b:	0b 0b                	or     ecx,DWORD PTR [ebx]
  40c54d:	3a 0b                	cmp    cl,BYTE PTR [ebx]
  40c54f:	3b 05 01 13 00 00    	cmp    eax,DWORD PTR ds:0x1301
  40c555:	07                   	pop    es
  40c556:	0d 00 03 08 3a       	or     eax,0x3a080300
  40c55b:	0b 3b                	or     edi,DWORD PTR [ebx]
  40c55d:	05 49 13 38 0a       	add    eax,0xa381349
  40c562:	00 00                	add    BYTE PTR [eax],al
  40c564:	08 16                	or     BYTE PTR [esi],dl
  40c566:	00 03                	add    BYTE PTR [ebx],al
  40c568:	08 3a                	or     BYTE PTR [edx],bh
  40c56a:	0b 3b                	or     edi,DWORD PTR [ebx]
  40c56c:	05 49 13 00 00       	add    eax,0x1349
  40c571:	09 04 01             	or     DWORD PTR [ecx+eax*1],eax
  40c574:	03 08                	add    ecx,DWORD PTR [eax]
  40c576:	0b 0b                	or     ecx,DWORD PTR [ebx]
  40c578:	3a 0b                	cmp    cl,BYTE PTR [ebx]
  40c57a:	3b 0b                	cmp    ecx,DWORD PTR [ebx]
  40c57c:	01 13                	add    DWORD PTR [ebx],edx
  40c57e:	00 00                	add    BYTE PTR [eax],al
  40c580:	0a 28                	or     ch,BYTE PTR [eax]
  40c582:	00 03                	add    BYTE PTR [ebx],al
  40c584:	08 1c 0d 00 00 0b 2e 	or     BYTE PTR [ecx*1+0x2e0b0000],bl
  40c58b:	01 03                	add    DWORD PTR [ebx],eax
  40c58d:	08 3a                	or     BYTE PTR [edx],bh
  40c58f:	0b 3b                	or     edi,DWORD PTR [ebx]
  40c591:	0b 27                	or     esp,DWORD PTR [edi]
  40c593:	0c 49                	or     al,0x49
  40c595:	13 11                	adc    edx,DWORD PTR [ecx]
  40c597:	01 12                	add    DWORD PTR [edx],edx
  40c599:	01 40 06             	add    DWORD PTR [eax+0x6],eax
  40c59c:	01 13                	add    DWORD PTR [ebx],edx
  40c59e:	00 00                	add    BYTE PTR [eax],al
  40c5a0:	0c 05                	or     al,0x5
  40c5a2:	00 03                	add    BYTE PTR [ebx],al
  40c5a4:	08 3a                	or     BYTE PTR [edx],bh
  40c5a6:	0b 3b                	or     edi,DWORD PTR [ebx]
  40c5a8:	0b 49 13             	or     ecx,DWORD PTR [ecx+0x13]
  40c5ab:	02 0a                	add    cl,BYTE PTR [edx]
  40c5ad:	00 00                	add    BYTE PTR [eax],al
  40c5af:	0d 2e 01 3f 0c       	or     eax,0xc3f012e
  40c5b4:	03 08                	add    ecx,DWORD PTR [eax]
  40c5b6:	3a 0b                	cmp    cl,BYTE PTR [ebx]
  40c5b8:	3b 0b                	cmp    ecx,DWORD PTR [ebx]
  40c5ba:	87 40 08             	xchg   DWORD PTR [eax+0x8],eax
  40c5bd:	27                   	daa    
  40c5be:	0c 49                	or     al,0x49
  40c5c0:	13 11                	adc    edx,DWORD PTR [ecx]
  40c5c2:	01 12                	add    DWORD PTR [edx],edx
  40c5c4:	01 40 06             	add    DWORD PTR [eax+0x6],eax
  40c5c7:	01 13                	add    DWORD PTR [ebx],edx
  40c5c9:	00 00                	add    BYTE PTR [eax],al
  40c5cb:	0e                   	push   cs
  40c5cc:	34 00                	xor    al,0x0
  40c5ce:	03 08                	add    ecx,DWORD PTR [eax]
  40c5d0:	3a 0b                	cmp    cl,BYTE PTR [ebx]
  40c5d2:	3b 0b                	cmp    ecx,DWORD PTR [ebx]
  40c5d4:	49                   	dec    ecx
  40c5d5:	13 02                	adc    eax,DWORD PTR [edx]
  40c5d7:	06                   	push   es
  40c5d8:	00 00                	add    BYTE PTR [eax],al
  40c5da:	0f 34                	sysenter 
  40c5dc:	00 03                	add    BYTE PTR [ebx],al
  40c5de:	08 3a                	or     BYTE PTR [edx],bh
  40c5e0:	0b 3b                	or     edi,DWORD PTR [ebx]
  40c5e2:	0b 49 13             	or     ecx,DWORD PTR [ecx+0x13]
  40c5e5:	02 0a                	add    cl,BYTE PTR [edx]
  40c5e7:	00 00                	add    BYTE PTR [eax],al
  40c5e9:	10 34 00             	adc    BYTE PTR [eax+eax*1],dh
  40c5ec:	03 0e                	add    ecx,DWORD PTR [esi]
  40c5ee:	3a 0b                	cmp    cl,BYTE PTR [ebx]
  40c5f0:	3b 0b                	cmp    ecx,DWORD PTR [ebx]
  40c5f2:	49                   	dec    ecx
  40c5f3:	13 3f                	adc    edi,DWORD PTR [edi]
  40c5f5:	0c 3c                	or     al,0x3c
  40c5f7:	0c 00                	or     al,0x0
  40c5f9:	00 11                	add    BYTE PTR [ecx],dl
  40c5fb:	34 00                	xor    al,0x0
  40c5fd:	03 0e                	add    ecx,DWORD PTR [esi]
  40c5ff:	3a 0b                	cmp    cl,BYTE PTR [ebx]
  40c601:	3b 0b                	cmp    ecx,DWORD PTR [ebx]
  40c603:	49                   	dec    ecx
  40c604:	13 3f                	adc    edi,DWORD PTR [edi]
  40c606:	0c 02                	or     al,0x2
  40c608:	0a 00                	or     al,BYTE PTR [eax]
	...

0040c60c <.debug_abbrev>:
  40c60c:	01 11                	add    DWORD PTR [ecx],edx
  40c60e:	01 25 08 13 0b 03    	add    DWORD PTR ds:0x30b1308,esp
  40c614:	08 11                	or     BYTE PTR [ecx],dl
  40c616:	01 12                	add    DWORD PTR [edx],edx
  40c618:	01 10                	add    DWORD PTR [eax],edx
  40c61a:	06                   	push   es
  40c61b:	00 00                	add    BYTE PTR [eax],al
  40c61d:	02 2e                	add    ch,BYTE PTR [esi]
  40c61f:	00 3f                	add    BYTE PTR [edi],bh
  40c621:	0c 03                	or     al,0x3
  40c623:	08 3a                	or     BYTE PTR [edx],bh
  40c625:	0b 3b                	or     edi,DWORD PTR [ebx]
  40c627:	0b 11                	or     edx,DWORD PTR [ecx]
  40c629:	01 12                	add    DWORD PTR [edx],edx
  40c62b:	01 40 06             	add    DWORD PTR [eax+0x6],eax
  40c62e:	00 00                	add    BYTE PTR [eax],al
	...

0040c631 <.debug_abbrev>:
  40c631:	01 11                	add    DWORD PTR [ecx],edx
  40c633:	01 25 08 13 0b 03    	add    DWORD PTR ds:0x30b1308,esp
  40c639:	08 11                	or     BYTE PTR [ecx],dl
  40c63b:	01 12                	add    DWORD PTR [edx],edx
  40c63d:	01 10                	add    DWORD PTR [eax],edx
  40c63f:	06                   	push   es
  40c640:	00 00                	add    BYTE PTR [eax],al
  40c642:	02 24 00             	add    ah,BYTE PTR [eax+eax*1]
  40c645:	0b 0b                	or     ecx,DWORD PTR [ebx]
  40c647:	3e 0b 03             	or     eax,DWORD PTR ds:[ebx]
  40c64a:	08 00                	or     BYTE PTR [eax],al
  40c64c:	00 03                	add    BYTE PTR [ebx],al
  40c64e:	16                   	push   ss
  40c64f:	00 03                	add    BYTE PTR [ebx],al
  40c651:	08 3a                	or     BYTE PTR [edx],bh
  40c653:	0b 3b                	or     edi,DWORD PTR [ebx]
  40c655:	0b 49 13             	or     ecx,DWORD PTR [ecx+0x13]
  40c658:	00 00                	add    BYTE PTR [eax],al
  40c65a:	04 0f                	add    al,0xf
  40c65c:	00 0b                	add    BYTE PTR [ebx],cl
  40c65e:	0b 00                	or     eax,DWORD PTR [eax]
  40c660:	00 05 13 01 03 08    	add    BYTE PTR ds:0x8030113,al
  40c666:	0b 0b                	or     ecx,DWORD PTR [ebx]
  40c668:	3a 0b                	cmp    cl,BYTE PTR [ebx]
  40c66a:	3b 05 01 13 00 00    	cmp    eax,DWORD PTR ds:0x1301
  40c670:	06                   	push   es
  40c671:	0d 00 03 08 3a       	or     eax,0x3a080300
  40c676:	0b 3b                	or     edi,DWORD PTR [ebx]
  40c678:	05 49 13 38 0a       	add    eax,0xa381349
  40c67d:	00 00                	add    BYTE PTR [eax],al
  40c67f:	07                   	pop    es
  40c680:	16                   	push   ss
  40c681:	00 03                	add    BYTE PTR [ebx],al
  40c683:	08 3a                	or     BYTE PTR [edx],bh
  40c685:	0b 3b                	or     edi,DWORD PTR [ebx]
  40c687:	05 49 13 00 00       	add    eax,0x1349
  40c68c:	08 0f                	or     BYTE PTR [edi],cl
  40c68e:	00 0b                	add    BYTE PTR [ebx],cl
  40c690:	0b 49 13             	or     ecx,DWORD PTR [ecx+0x13]
  40c693:	00 00                	add    BYTE PTR [eax],al
  40c695:	09 2e                	or     DWORD PTR [esi],ebp
  40c697:	01 3f                	add    DWORD PTR [edi],edi
  40c699:	0c 03                	or     al,0x3
  40c69b:	08 3a                	or     BYTE PTR [edx],bh
  40c69d:	0b 3b                	or     edi,DWORD PTR [ebx]
  40c69f:	0b 87 40 08 49 13    	or     eax,DWORD PTR [edi+0x13490840]
  40c6a5:	11 01                	adc    DWORD PTR [ecx],eax
  40c6a7:	12 01                	adc    al,BYTE PTR [ecx]
  40c6a9:	40                   	inc    eax
  40c6aa:	06                   	push   es
  40c6ab:	00 00                	add    BYTE PTR [eax],al
  40c6ad:	0a 05 00 03 08 3a    	or     al,BYTE PTR ds:0x3a080300
  40c6b3:	0b 3b                	or     edi,DWORD PTR [ebx]
  40c6b5:	0b 49 13             	or     ecx,DWORD PTR [ecx+0x13]
  40c6b8:	02 0a                	add    cl,BYTE PTR [edx]
  40c6ba:	00 00                	add    BYTE PTR [eax],al
	...

0040c6bd <.debug_abbrev>:
  40c6bd:	01 11                	add    DWORD PTR [ecx],edx
  40c6bf:	01 25 08 13 0b 03    	add    DWORD PTR ds:0x30b1308,esp
  40c6c5:	08 11                	or     BYTE PTR [ecx],dl
  40c6c7:	01 12                	add    DWORD PTR [edx],edx
  40c6c9:	01 10                	add    DWORD PTR [eax],edx
  40c6cb:	06                   	push   es
  40c6cc:	00 00                	add    BYTE PTR [eax],al
  40c6ce:	02 24 00             	add    ah,BYTE PTR [eax+eax*1]
  40c6d1:	0b 0b                	or     ecx,DWORD PTR [ebx]
  40c6d3:	3e 0b 03             	or     eax,DWORD PTR ds:[ebx]
  40c6d6:	08 00                	or     BYTE PTR [eax],al
  40c6d8:	00 03                	add    BYTE PTR [ebx],al
  40c6da:	16                   	push   ss
  40c6db:	00 03                	add    BYTE PTR [ebx],al
  40c6dd:	08 3a                	or     BYTE PTR [edx],bh
  40c6df:	0b 3b                	or     edi,DWORD PTR [ebx]
  40c6e1:	0b 49 13             	or     ecx,DWORD PTR [ecx+0x13]
  40c6e4:	00 00                	add    BYTE PTR [eax],al
  40c6e6:	04 0f                	add    al,0xf
  40c6e8:	00 0b                	add    BYTE PTR [ebx],cl
  40c6ea:	0b 49 13             	or     ecx,DWORD PTR [ecx+0x13]
  40c6ed:	00 00                	add    BYTE PTR [eax],al
  40c6ef:	05 0f 00 0b 0b       	add    eax,0xb0b000f
  40c6f4:	00 00                	add    BYTE PTR [eax],al
  40c6f6:	06                   	push   es
  40c6f7:	16                   	push   ss
  40c6f8:	00 03                	add    BYTE PTR [ebx],al
  40c6fa:	08 3a                	or     BYTE PTR [edx],bh
  40c6fc:	0b 3b                	or     edi,DWORD PTR [ebx]
  40c6fe:	05 49 13 00 00       	add    eax,0x1349
  40c703:	07                   	pop    es
  40c704:	17                   	pop    ss
  40c705:	01 0b                	add    DWORD PTR [ebx],ecx
  40c707:	0b 3a                	or     edi,DWORD PTR [edx]
  40c709:	0b 3b                	or     edi,DWORD PTR [ebx]
  40c70b:	0b 01                	or     eax,DWORD PTR [ecx]
  40c70d:	13 00                	adc    eax,DWORD PTR [eax]
  40c70f:	00 08                	add    BYTE PTR [eax],cl
  40c711:	0d 00 03 08 3a       	or     eax,0x3a080300
  40c716:	0b 3b                	or     edi,DWORD PTR [ebx]
  40c718:	0b 49 13             	or     ecx,DWORD PTR [ecx+0x13]
  40c71b:	00 00                	add    BYTE PTR [eax],al
  40c71d:	09 01                	or     DWORD PTR [ecx],eax
  40c71f:	01 49 13             	add    DWORD PTR [ecx+0x13],ecx
  40c722:	01 13                	add    DWORD PTR [ebx],edx
  40c724:	00 00                	add    BYTE PTR [eax],al
  40c726:	0a 21                	or     ah,BYTE PTR [ecx]
  40c728:	00 49 13             	add    BYTE PTR [ecx+0x13],cl
  40c72b:	2f                   	das    
  40c72c:	0b 00                	or     eax,DWORD PTR [eax]
  40c72e:	00 0b                	add    BYTE PTR [ebx],cl
  40c730:	13 01                	adc    eax,DWORD PTR [ecx]
  40c732:	0b 0b                	or     ecx,DWORD PTR [ebx]
  40c734:	3a 0b                	cmp    cl,BYTE PTR [ebx]
  40c736:	3b 0b                	cmp    ecx,DWORD PTR [ebx]
  40c738:	01 13                	add    DWORD PTR [ebx],edx
  40c73a:	00 00                	add    BYTE PTR [eax],al
  40c73c:	0c 0d                	or     al,0xd
  40c73e:	00 03                	add    BYTE PTR [ebx],al
  40c740:	08 3a                	or     BYTE PTR [edx],bh
  40c742:	0b 3b                	or     edi,DWORD PTR [ebx]
  40c744:	0b 49 13             	or     ecx,DWORD PTR [ecx+0x13]
  40c747:	38 0a                	cmp    BYTE PTR [edx],cl
  40c749:	00 00                	add    BYTE PTR [eax],al
  40c74b:	0d 13 01 03 08       	or     eax,0x8030113
  40c750:	0b 0b                	or     ecx,DWORD PTR [ebx]
  40c752:	3a 0b                	cmp    cl,BYTE PTR [ebx]
  40c754:	3b 0b                	cmp    ecx,DWORD PTR [ebx]
  40c756:	01 13                	add    DWORD PTR [ebx],edx
  40c758:	00 00                	add    BYTE PTR [eax],al
  40c75a:	0e                   	push   cs
  40c75b:	13 01                	adc    eax,DWORD PTR [ecx]
  40c75d:	03 0e                	add    ecx,DWORD PTR [esi]
  40c75f:	0b 05 3a 0b 3b 0b    	or     eax,DWORD PTR ds:0xb3b0b3a
  40c765:	01 13                	add    DWORD PTR [ebx],edx
  40c767:	00 00                	add    BYTE PTR [eax],al
  40c769:	0f 13 01             	movlps QWORD PTR [ecx],xmm0
  40c76c:	03 08                	add    ecx,DWORD PTR [eax]
  40c76e:	0b 05 3a 0b 3b 0b    	or     eax,DWORD PTR ds:0xb3b0b3a
  40c774:	01 13                	add    DWORD PTR [ebx],edx
  40c776:	00 00                	add    BYTE PTR [eax],al
  40c778:	10 0d 00 03 0e 3a    	adc    BYTE PTR ds:0x3a0e0300,cl
  40c77e:	0b 3b                	or     edi,DWORD PTR [ebx]
  40c780:	0b 49 13             	or     ecx,DWORD PTR [ecx+0x13]
  40c783:	38 0a                	cmp    BYTE PTR [edx],cl
  40c785:	00 00                	add    BYTE PTR [eax],al
  40c787:	11 15 00 27 0c 00    	adc    DWORD PTR ds:0xc2700,edx
  40c78d:	00 12                	add    BYTE PTR [edx],dl
  40c78f:	15 01 27 0c 49       	adc    eax,0x490c2701
  40c794:	13 01                	adc    eax,DWORD PTR [ecx]
  40c796:	13 00                	adc    eax,DWORD PTR [eax]
  40c798:	00 13                	add    BYTE PTR [ebx],dl
  40c79a:	05 00 49 13 00       	add    eax,0x134900
  40c79f:	00 14 13             	add    BYTE PTR [ebx+edx*1],dl
  40c7a2:	01 03                	add    DWORD PTR [ebx],eax
  40c7a4:	08 0b                	or     BYTE PTR [ebx],cl
  40c7a6:	05 3a 0b 3b 05       	add    eax,0x53b0b3a
  40c7ab:	01 13                	add    DWORD PTR [ebx],edx
  40c7ad:	00 00                	add    BYTE PTR [eax],al
  40c7af:	15 0d 00 03 08       	adc    eax,0x803000d
  40c7b4:	3a 0b                	cmp    cl,BYTE PTR [ebx]
  40c7b6:	3b 05 49 13 38 0a    	cmp    eax,DWORD PTR ds:0xa381349
  40c7bc:	00 00                	add    BYTE PTR [eax],al
  40c7be:	16                   	push   ss
  40c7bf:	26 00 49 13          	add    BYTE PTR es:[ecx+0x13],cl
  40c7c3:	00 00                	add    BYTE PTR [eax],al
  40c7c5:	17                   	pop    ss
  40c7c6:	13 01                	adc    eax,DWORD PTR [ecx]
  40c7c8:	03 08                	add    ecx,DWORD PTR [eax]
  40c7ca:	0b 0b                	or     ecx,DWORD PTR [ebx]
  40c7cc:	3a 0b                	cmp    cl,BYTE PTR [ebx]
  40c7ce:	3b 05 01 13 00 00    	cmp    eax,DWORD PTR ds:0x1301
  40c7d4:	18 13                	sbb    BYTE PTR [ebx],dl
  40c7d6:	01 0b                	add    DWORD PTR [ebx],ecx
  40c7d8:	0b 3a                	or     edi,DWORD PTR [edx]
  40c7da:	0b 3b                	or     edi,DWORD PTR [ebx]
  40c7dc:	05 01 13 00 00       	add    eax,0x1301
  40c7e1:	19 17                	sbb    DWORD PTR [edi],edx
  40c7e3:	01 0b                	add    DWORD PTR [ebx],ecx
  40c7e5:	0b 3a                	or     edi,DWORD PTR [edx]
  40c7e7:	0b 3b                	or     edi,DWORD PTR [ebx]
  40c7e9:	05 01 13 00 00       	add    eax,0x1301
  40c7ee:	1a 0d 00 03 08 3a    	sbb    cl,BYTE PTR ds:0x3a080300
  40c7f4:	0b 3b                	or     edi,DWORD PTR [ebx]
  40c7f6:	05 49 13 00 00       	add    eax,0x1349
  40c7fb:	1b 15 01 27 0c 01    	sbb    edx,DWORD PTR ds:0x10c2701
  40c801:	13 00                	adc    eax,DWORD PTR [eax]
  40c803:	00 1c 13             	add    BYTE PTR [ebx+edx*1],bl
  40c806:	00 03                	add    BYTE PTR [ebx],al
  40c808:	08 3c 0c             	or     BYTE PTR [esp+ecx*1],bh
  40c80b:	00 00                	add    BYTE PTR [eax],al
  40c80d:	1d 2e 01 3f 0c       	sbb    eax,0xc3f012e
  40c812:	03 08                	add    ecx,DWORD PTR [eax]
  40c814:	3a 0b                	cmp    cl,BYTE PTR [ebx]
  40c816:	3b 0b                	cmp    ecx,DWORD PTR [ebx]
  40c818:	27                   	daa    
  40c819:	0c 49                	or     al,0x49
  40c81b:	13 11                	adc    edx,DWORD PTR [ecx]
  40c81d:	01 12                	add    DWORD PTR [edx],edx
  40c81f:	01 40 06             	add    DWORD PTR [eax+0x6],eax
  40c822:	00 00                	add    BYTE PTR [eax],al
  40c824:	1e                   	push   ds
  40c825:	05 00 03 08 3a       	add    eax,0x3a080300
  40c82a:	0b 3b                	or     edi,DWORD PTR [ebx]
  40c82c:	0b 49 13             	or     ecx,DWORD PTR [ecx+0x13]
  40c82f:	02 0a                	add    cl,BYTE PTR [edx]
  40c831:	00 00                	add    BYTE PTR [eax],al
  40c833:	1f                   	pop    ds
  40c834:	34 00                	xor    al,0x0
  40c836:	03 08                	add    ecx,DWORD PTR [eax]
  40c838:	3a 0b                	cmp    cl,BYTE PTR [ebx]
  40c83a:	3b 0b                	cmp    ecx,DWORD PTR [ebx]
  40c83c:	49                   	dec    ecx
  40c83d:	13 02                	adc    eax,DWORD PTR [edx]
  40c83f:	0a 00                	or     al,BYTE PTR [eax]
	...

Disassembly of section .debug_line:

0040d000 <.debug_line>:
  40d000:	6a 00                	push   0x0
  40d002:	00 00                	add    BYTE PTR [eax],al
  40d004:	02 00                	add    al,BYTE PTR [eax]
  40d006:	4a                   	dec    edx
  40d007:	00 00                	add    BYTE PTR [eax],al
  40d009:	00 01                	add    BYTE PTR [ecx],al
  40d00b:	01 fb                	add    ebx,edi
  40d00d:	0e                   	push   cs
  40d00e:	0d 00 01 01 01       	or     eax,0x1010100
  40d013:	01 00                	add    DWORD PTR [eax],eax
  40d015:	00 00                	add    BYTE PTR [eax],al
  40d017:	01 00                	add    DWORD PTR [eax],eax
  40d019:	00 01                	add    BYTE PTR [ecx],al
  40d01b:	2f                   	das    
  40d01c:	75 73                	jne    40d091 <.debug_line+0x23>
  40d01e:	72 2f                	jb     40d04f <.debug_line+0x4f>
  40d020:	73 72                	jae    40d094 <.debug_line+0x26>
  40d022:	63 2f                	arpl   WORD PTR [edi],bp
  40d024:	64 65 62 75 67       	fs bound esi,QWORD PTR fs:gs:[ebp+0x67]
  40d029:	2f                   	das    
  40d02a:	63 79 67             	arpl   WORD PTR [ecx+0x67],di
  40d02d:	77 69                	ja     40d098 <.debug_line+0x2a>
  40d02f:	6e                   	outs   dx,BYTE PTR ds:[esi]
  40d030:	2d 31 2e 37 2e       	sub    eax,0x2e372e31
  40d035:	31 37                	xor    DWORD PTR [edi],esi
  40d037:	2d 31 2f 77 69       	sub    eax,0x69772f31
  40d03c:	6e                   	outs   dx,BYTE PTR ds:[esi]
  40d03d:	73 75                	jae    40d0b4 <.debug_line+0x46>
  40d03f:	70 2f                	jo     40d070 <.debug_line+0x2>
  40d041:	63 79 67             	arpl   WORD PTR [ecx+0x67],di
  40d044:	77 69                	ja     40d0af <.debug_line+0x41>
  40d046:	6e                   	outs   dx,BYTE PTR ds:[esi]
  40d047:	00 00                	add    BYTE PTR [eax],al
  40d049:	63 72 74             	arpl   WORD PTR [edx+0x74],si
  40d04c:	30 2e                	xor    BYTE PTR [esi],ch
  40d04e:	63 00                	arpl   WORD PTR [eax],ax
  40d050:	01 00                	add    DWORD PTR [eax],eax
  40d052:	00 00                	add    BYTE PTR [eax],al
  40d054:	00 05 02 00 10 40    	add    BYTE PTR ds:0x40100002,al
  40d05a:	00 03                	add    BYTE PTR [ebx],al
  40d05c:	16                   	push   ss
  40d05d:	01 69 3f             	add    DWORD PTR [ecx+0x3f],ebp
  40d060:	bf 08 ad 08 ad       	mov    edi,0xad08ad08
  40d065:	08 ad 08 ad 02 02    	or     BYTE PTR [ebp+0x202ad08],ch
  40d06b:	00 01                	add    BYTE PTR [ecx],al
  40d06d:	01 77 00             	add    DWORD PTR [edi+0x0],esi

0040d06e <.debug_line>:
  40d06e:	77 00                	ja     40d070 <.debug_line+0x2>
  40d070:	00 00                	add    BYTE PTR [eax],al
  40d072:	02 00                	add    al,BYTE PTR [eax]
  40d074:	5f                   	pop    edi
  40d075:	00 00                	add    BYTE PTR [eax],al
  40d077:	00 01                	add    BYTE PTR [ecx],al
  40d079:	01 fb                	add    ebx,edi
  40d07b:	0e                   	push   cs
  40d07c:	0d 00 01 01 01       	or     eax,0x1010100
  40d081:	01 00                	add    DWORD PTR [eax],eax
  40d083:	00 00                	add    BYTE PTR [eax],al
  40d085:	01 00                	add    DWORD PTR [eax],eax
  40d087:	00 01                	add    BYTE PTR [ecx],al
  40d089:	2f                   	das    
  40d08a:	75 73                	jne    40d0ff <.debug_line+0x16>
  40d08c:	72 2f                	jb     40d0bd <.debug_line+0x4f>
  40d08e:	73 72                	jae    40d102 <.debug_line+0x19>
  40d090:	63 2f                	arpl   WORD PTR [edi],bp
  40d092:	64 65 62 75 67       	fs bound esi,QWORD PTR fs:gs:[ebp+0x67]
  40d097:	2f                   	das    
  40d098:	63 79 67             	arpl   WORD PTR [ecx+0x67],di
  40d09b:	77 69                	ja     40d106 <.debug_line+0x1d>
  40d09d:	6e                   	outs   dx,BYTE PTR ds:[esi]
  40d09e:	2d 31 2e 37 2e       	sub    eax,0x2e372e31
  40d0a3:	31 37                	xor    DWORD PTR [edi],esi
  40d0a5:	2d 31 2f 77 69       	sub    eax,0x69772f31
  40d0aa:	6e                   	outs   dx,BYTE PTR ds:[esi]
  40d0ab:	73 75                	jae    40d122 <.debug_line+0x39>
  40d0ad:	70 2f                	jo     40d0de <.debug_line+0x70>
  40d0af:	63 79 67             	arpl   WORD PTR [ecx+0x67],di
  40d0b2:	77 69                	ja     40d11d <.debug_line+0x34>
  40d0b4:	6e                   	outs   dx,BYTE PTR ds:[esi]
  40d0b5:	2f                   	das    
  40d0b6:	6c                   	ins    BYTE PTR es:[edi],dx
  40d0b7:	69 62 00 00 63 79 67 	imul   esp,DWORD PTR [edx+0x0],0x67796300
  40d0be:	77 69                	ja     40d129 <.debug_line+0x40>
  40d0c0:	6e                   	outs   dx,BYTE PTR ds:[esi]
  40d0c1:	5f                   	pop    edi
  40d0c2:	63 72 74             	arpl   WORD PTR [edx+0x74],si
  40d0c5:	30 2e                	xor    BYTE PTR [esi],ch
  40d0c7:	63 00                	arpl   WORD PTR [eax],ax
  40d0c9:	01 00                	add    DWORD PTR [eax],eax
  40d0cb:	00 63 72             	add    BYTE PTR [ebx+0x72],ah
  40d0ce:	74 30                	je     40d100 <.debug_line+0x17>
  40d0d0:	2e                   	cs
  40d0d1:	68 00 01 00 00       	push   0x100
  40d0d6:	00 00                	add    BYTE PTR [eax],al
  40d0d8:	05 02 20 12 40       	add    eax,0x40122002
  40d0dd:	00 03                	add    BYTE PTR [ebx],al
  40d0df:	13 01                	adc    eax,DWORD PTR [ecx]
  40d0e1:	67 08 59 02          	or     BYTE PTR [bx+di+0x2],bl
  40d0e5:	06                   	push   es
  40d0e6:	00 01                	add    BYTE PTR [ecx],al
  40d0e8:	01 68 00             	add    DWORD PTR [eax+0x0],ebp

0040d0e9 <.debug_line>:
  40d0e9:	68 00 00 00 02       	push   0x2000000
  40d0ee:	00 52 00             	add    BYTE PTR [edx+0x0],dl
  40d0f1:	00 00                	add    BYTE PTR [eax],al
  40d0f3:	01 01                	add    DWORD PTR [ecx],eax
  40d0f5:	fb                   	sti    
  40d0f6:	0e                   	push   cs
  40d0f7:	0d 00 01 01 01       	or     eax,0x1010100
  40d0fc:	01 00                	add    DWORD PTR [eax],eax
  40d0fe:	00 00                	add    BYTE PTR [eax],al
  40d100:	01 00                	add    DWORD PTR [eax],eax
  40d102:	00 01                	add    BYTE PTR [ecx],al
  40d104:	2f                   	das    
  40d105:	75 73                	jne    40d17a <.debug_line+0x25>
  40d107:	72 2f                	jb     40d138 <.debug_line+0x4f>
  40d109:	73 72                	jae    40d17d <.debug_line+0x28>
  40d10b:	63 2f                	arpl   WORD PTR [edi],bp
  40d10d:	64 65 62 75 67       	fs bound esi,QWORD PTR fs:gs:[ebp+0x67]
  40d112:	2f                   	das    
  40d113:	63 79 67             	arpl   WORD PTR [ecx+0x67],di
  40d116:	77 69                	ja     40d181 <.debug_line+0x2c>
  40d118:	6e                   	outs   dx,BYTE PTR ds:[esi]
  40d119:	2d 31 2e 37 2e       	sub    eax,0x2e372e31
  40d11e:	31 37                	xor    DWORD PTR [edi],esi
  40d120:	2d 31 2f 77 69       	sub    eax,0x69772f31
  40d125:	6e                   	outs   dx,BYTE PTR ds:[esi]
  40d126:	73 75                	jae    40d19d <.debug_line+0x48>
  40d128:	70 2f                	jo     40d159 <.debug_line+0x4>
  40d12a:	63 79 67             	arpl   WORD PTR [ecx+0x67],di
  40d12d:	77 69                	ja     40d198 <.debug_line+0x43>
  40d12f:	6e                   	outs   dx,BYTE PTR ds:[esi]
  40d130:	2f                   	das    
  40d131:	6c                   	ins    BYTE PTR es:[edi],dx
  40d132:	69 62 00 00 70 72 65 	imul   esp,DWORD PTR [edx+0x0],0x65727000
  40d139:	6d                   	ins    DWORD PTR es:[edi],dx
  40d13a:	61                   	popa   
  40d13b:	69 6e 30 2e 63 00 01 	imul   ebp,DWORD PTR [esi+0x30],0x100632e
  40d142:	00 00                	add    BYTE PTR [eax],al
  40d144:	00 00                	add    BYTE PTR [eax],al
  40d146:	05 02 50 12 40       	add    eax,0x40125002
  40d14b:	00 03                	add    BYTE PTR [ebx],al
  40d14d:	0c 01                	or     al,0x1
  40d14f:	3d 02 02 00 01       	cmp    eax,0x1000202
  40d154:	01 68 00             	add    DWORD PTR [eax+0x0],ebp

0040d155 <.debug_line>:
  40d155:	68 00 00 00 02       	push   0x2000000
  40d15a:	00 52 00             	add    BYTE PTR [edx+0x0],dl
  40d15d:	00 00                	add    BYTE PTR [eax],al
  40d15f:	01 01                	add    DWORD PTR [ecx],eax
  40d161:	fb                   	sti    
  40d162:	0e                   	push   cs
  40d163:	0d 00 01 01 01       	or     eax,0x1010100
  40d168:	01 00                	add    DWORD PTR [eax],eax
  40d16a:	00 00                	add    BYTE PTR [eax],al
  40d16c:	01 00                	add    DWORD PTR [eax],eax
  40d16e:	00 01                	add    BYTE PTR [ecx],al
  40d170:	2f                   	das    
  40d171:	75 73                	jne    40d1e6 <.debug_line+0x25>
  40d173:	72 2f                	jb     40d1a4 <.debug_line+0x4f>
  40d175:	73 72                	jae    40d1e9 <.debug_line+0x28>
  40d177:	63 2f                	arpl   WORD PTR [edi],bp
  40d179:	64 65 62 75 67       	fs bound esi,QWORD PTR fs:gs:[ebp+0x67]
  40d17e:	2f                   	das    
  40d17f:	63 79 67             	arpl   WORD PTR [ecx+0x67],di
  40d182:	77 69                	ja     40d1ed <.debug_line+0x2c>
  40d184:	6e                   	outs   dx,BYTE PTR ds:[esi]
  40d185:	2d 31 2e 37 2e       	sub    eax,0x2e372e31
  40d18a:	31 37                	xor    DWORD PTR [edi],esi
  40d18c:	2d 31 2f 77 69       	sub    eax,0x69772f31
  40d191:	6e                   	outs   dx,BYTE PTR ds:[esi]
  40d192:	73 75                	jae    40d209 <.debug_line+0x48>
  40d194:	70 2f                	jo     40d1c5 <.debug_line+0x4>
  40d196:	63 79 67             	arpl   WORD PTR [ecx+0x67],di
  40d199:	77 69                	ja     40d204 <.debug_line+0x43>
  40d19b:	6e                   	outs   dx,BYTE PTR ds:[esi]
  40d19c:	2f                   	das    
  40d19d:	6c                   	ins    BYTE PTR es:[edi],dx
  40d19e:	69 62 00 00 70 72 65 	imul   esp,DWORD PTR [edx+0x0],0x65727000
  40d1a5:	6d                   	ins    DWORD PTR es:[edi],dx
  40d1a6:	61                   	popa   
  40d1a7:	69 6e 31 2e 63 00 01 	imul   ebp,DWORD PTR [esi+0x31],0x100632e
  40d1ae:	00 00                	add    BYTE PTR [eax],al
  40d1b0:	00 00                	add    BYTE PTR [eax],al
  40d1b2:	05 02 60 12 40       	add    eax,0x40126002
  40d1b7:	00 03                	add    BYTE PTR [ebx],al
  40d1b9:	0c 01                	or     al,0x1
  40d1bb:	3d 02 02 00 01       	cmp    eax,0x1000202
  40d1c0:	01 68 00             	add    DWORD PTR [eax+0x0],ebp

0040d1c1 <.debug_line>:
  40d1c1:	68 00 00 00 02       	push   0x2000000
  40d1c6:	00 52 00             	add    BYTE PTR [edx+0x0],dl
  40d1c9:	00 00                	add    BYTE PTR [eax],al
  40d1cb:	01 01                	add    DWORD PTR [ecx],eax
  40d1cd:	fb                   	sti    
  40d1ce:	0e                   	push   cs
  40d1cf:	0d 00 01 01 01       	or     eax,0x1010100
  40d1d4:	01 00                	add    DWORD PTR [eax],eax
  40d1d6:	00 00                	add    BYTE PTR [eax],al
  40d1d8:	01 00                	add    DWORD PTR [eax],eax
  40d1da:	00 01                	add    BYTE PTR [ecx],al
  40d1dc:	2f                   	das    
  40d1dd:	75 73                	jne    40d252 <.debug_line+0x25>
  40d1df:	72 2f                	jb     40d210 <.debug_line+0x4f>
  40d1e1:	73 72                	jae    40d255 <.debug_line+0x28>
  40d1e3:	63 2f                	arpl   WORD PTR [edi],bp
  40d1e5:	64 65 62 75 67       	fs bound esi,QWORD PTR fs:gs:[ebp+0x67]
  40d1ea:	2f                   	das    
  40d1eb:	63 79 67             	arpl   WORD PTR [ecx+0x67],di
  40d1ee:	77 69                	ja     40d259 <.debug_line+0x2c>
  40d1f0:	6e                   	outs   dx,BYTE PTR ds:[esi]
  40d1f1:	2d 31 2e 37 2e       	sub    eax,0x2e372e31
  40d1f6:	31 37                	xor    DWORD PTR [edi],esi
  40d1f8:	2d 31 2f 77 69       	sub    eax,0x69772f31
  40d1fd:	6e                   	outs   dx,BYTE PTR ds:[esi]
  40d1fe:	73 75                	jae    40d275 <.debug_line+0x48>
  40d200:	70 2f                	jo     40d231 <.debug_line+0x4>
  40d202:	63 79 67             	arpl   WORD PTR [ecx+0x67],di
  40d205:	77 69                	ja     40d270 <.debug_line+0x43>
  40d207:	6e                   	outs   dx,BYTE PTR ds:[esi]
  40d208:	2f                   	das    
  40d209:	6c                   	ins    BYTE PTR es:[edi],dx
  40d20a:	69 62 00 00 70 72 65 	imul   esp,DWORD PTR [edx+0x0],0x65727000
  40d211:	6d                   	ins    DWORD PTR es:[edi],dx
  40d212:	61                   	popa   
  40d213:	69 6e 32 2e 63 00 01 	imul   ebp,DWORD PTR [esi+0x32],0x100632e
  40d21a:	00 00                	add    BYTE PTR [eax],al
  40d21c:	00 00                	add    BYTE PTR [eax],al
  40d21e:	05 02 70 12 40       	add    eax,0x40127002
  40d223:	00 03                	add    BYTE PTR [ebx],al
  40d225:	0c 01                	or     al,0x1
  40d227:	3d 02 02 00 01       	cmp    eax,0x1000202
  40d22c:	01 68 00             	add    DWORD PTR [eax+0x0],ebp

0040d22d <.debug_line>:
  40d22d:	68 00 00 00 02       	push   0x2000000
  40d232:	00 52 00             	add    BYTE PTR [edx+0x0],dl
  40d235:	00 00                	add    BYTE PTR [eax],al
  40d237:	01 01                	add    DWORD PTR [ecx],eax
  40d239:	fb                   	sti    
  40d23a:	0e                   	push   cs
  40d23b:	0d 00 01 01 01       	or     eax,0x1010100
  40d240:	01 00                	add    DWORD PTR [eax],eax
  40d242:	00 00                	add    BYTE PTR [eax],al
  40d244:	01 00                	add    DWORD PTR [eax],eax
  40d246:	00 01                	add    BYTE PTR [ecx],al
  40d248:	2f                   	das    
  40d249:	75 73                	jne    40d2be <.debug_line+0x25>
  40d24b:	72 2f                	jb     40d27c <.debug_line+0x4f>
  40d24d:	73 72                	jae    40d2c1 <.debug_line+0x28>
  40d24f:	63 2f                	arpl   WORD PTR [edi],bp
  40d251:	64 65 62 75 67       	fs bound esi,QWORD PTR fs:gs:[ebp+0x67]
  40d256:	2f                   	das    
  40d257:	63 79 67             	arpl   WORD PTR [ecx+0x67],di
  40d25a:	77 69                	ja     40d2c5 <.debug_line+0x2c>
  40d25c:	6e                   	outs   dx,BYTE PTR ds:[esi]
  40d25d:	2d 31 2e 37 2e       	sub    eax,0x2e372e31
  40d262:	31 37                	xor    DWORD PTR [edi],esi
  40d264:	2d 31 2f 77 69       	sub    eax,0x69772f31
  40d269:	6e                   	outs   dx,BYTE PTR ds:[esi]
  40d26a:	73 75                	jae    40d2e1 <.debug_line+0x48>
  40d26c:	70 2f                	jo     40d29d <.debug_line+0x4>
  40d26e:	63 79 67             	arpl   WORD PTR [ecx+0x67],di
  40d271:	77 69                	ja     40d2dc <.debug_line+0x43>
  40d273:	6e                   	outs   dx,BYTE PTR ds:[esi]
  40d274:	2f                   	das    
  40d275:	6c                   	ins    BYTE PTR es:[edi],dx
  40d276:	69 62 00 00 70 72 65 	imul   esp,DWORD PTR [edx+0x0],0x65727000
  40d27d:	6d                   	ins    DWORD PTR es:[edi],dx
  40d27e:	61                   	popa   
  40d27f:	69 6e 33 2e 63 00 01 	imul   ebp,DWORD PTR [esi+0x33],0x100632e
  40d286:	00 00                	add    BYTE PTR [eax],al
  40d288:	00 00                	add    BYTE PTR [eax],al
  40d28a:	05 02 80 12 40       	add    eax,0x40128002
  40d28f:	00 03                	add    BYTE PTR [ebx],al
  40d291:	0c 01                	or     al,0x1
  40d293:	3d 02 02 00 01       	cmp    eax,0x1000202
  40d298:	01 30                	add    DWORD PTR [eax],esi

0040d299 <.debug_line>:
  40d299:	30 03                	xor    BYTE PTR [ebx],al
  40d29b:	00 00                	add    BYTE PTR [eax],al
  40d29d:	02 00                	add    al,BYTE PTR [eax]
  40d29f:	7c 02                	jl     40d2a3 <.debug_line+0xa>
  40d2a1:	00 00                	add    BYTE PTR [eax],al
  40d2a3:	01 01                	add    DWORD PTR [ecx],eax
  40d2a5:	fb                   	sti    
  40d2a6:	0e                   	push   cs
  40d2a7:	0d 00 01 01 01       	or     eax,0x1010100
  40d2ac:	01 00                	add    DWORD PTR [eax],eax
  40d2ae:	00 00                	add    BYTE PTR [eax],al
  40d2b0:	01 00                	add    DWORD PTR [eax],eax
  40d2b2:	00 01                	add    BYTE PTR [ecx],al
  40d2b4:	2f                   	das    
  40d2b5:	75 73                	jne    40d32a <.debug_line+0x91>
  40d2b7:	72 2f                	jb     40d2e8 <.debug_line+0x4f>
  40d2b9:	73 72                	jae    40d32d <.debug_line+0x94>
  40d2bb:	63 2f                	arpl   WORD PTR [edi],bp
  40d2bd:	64 65 62 75 67       	fs bound esi,QWORD PTR fs:gs:[ebp+0x67]
  40d2c2:	2f                   	das    
  40d2c3:	63 79 67             	arpl   WORD PTR [ecx+0x67],di
  40d2c6:	77 69                	ja     40d331 <.debug_line+0x98>
  40d2c8:	6e                   	outs   dx,BYTE PTR ds:[esi]
  40d2c9:	2d 31 2e 37 2e       	sub    eax,0x2e372e31
  40d2ce:	31 37                	xor    DWORD PTR [edi],esi
  40d2d0:	2d 31 2f 77 69       	sub    eax,0x69772f31
  40d2d5:	6e                   	outs   dx,BYTE PTR ds:[esi]
  40d2d6:	73 75                	jae    40d34d <.debug_line+0xb4>
  40d2d8:	70 2f                	jo     40d309 <.debug_line+0x70>
  40d2da:	63 79 67             	arpl   WORD PTR [ecx+0x67],di
  40d2dd:	77 69                	ja     40d348 <.debug_line+0xaf>
  40d2df:	6e                   	outs   dx,BYTE PTR ds:[esi]
  40d2e0:	2f                   	das    
  40d2e1:	6c                   	ins    BYTE PTR es:[edi],dx
  40d2e2:	69 62 00 2f 75 73 72 	imul   esp,DWORD PTR [edx+0x0],0x7273752f
  40d2e9:	2f                   	das    
  40d2ea:	73 72                	jae    40d35e <.debug_line+0xc5>
  40d2ec:	63 2f                	arpl   WORD PTR [edi],bp
  40d2ee:	64 65 62 75 67       	fs bound esi,QWORD PTR fs:gs:[ebp+0x67]
  40d2f3:	2f                   	das    
  40d2f4:	63 79 67             	arpl   WORD PTR [ecx+0x67],di
  40d2f7:	77 69                	ja     40d362 <.debug_line+0xc9>
  40d2f9:	6e                   	outs   dx,BYTE PTR ds:[esi]
  40d2fa:	2d 31 2e 37 2e       	sub    eax,0x2e372e31
  40d2ff:	31 37                	xor    DWORD PTR [edi],esi
  40d301:	2d 31 2f 77 69       	sub    eax,0x69772f31
  40d306:	6e                   	outs   dx,BYTE PTR ds:[esi]
  40d307:	73 75                	jae    40d37e <.debug_line+0xe5>
  40d309:	70 2f                	jo     40d33a <.debug_line+0xa1>
  40d30b:	63 79 67             	arpl   WORD PTR [ecx+0x67],di
  40d30e:	77 69                	ja     40d379 <.debug_line+0xe0>
  40d310:	6e                   	outs   dx,BYTE PTR ds:[esi]
  40d311:	2f                   	das    
  40d312:	69 6e 63 6c 75 64 65 	imul   ebp,DWORD PTR [esi+0x63],0x6564756c
  40d319:	2f                   	das    
  40d31a:	73 79                	jae    40d395 <.debug_line+0xfc>
  40d31c:	73 00                	jae    40d31e <.debug_line+0x85>
  40d31e:	2f                   	das    
  40d31f:	75 73                	jne    40d394 <.debug_line+0xfb>
  40d321:	72 2f                	jb     40d352 <.debug_line+0xb9>
  40d323:	73 72                	jae    40d397 <.debug_line+0xfe>
  40d325:	63 2f                	arpl   WORD PTR [edi],bp
  40d327:	64 65 62 75 67       	fs bound esi,QWORD PTR fs:gs:[ebp+0x67]
  40d32c:	2f                   	das    
  40d32d:	63 79 67             	arpl   WORD PTR [ecx+0x67],di
  40d330:	77 69                	ja     40d39b <.debug_line+0x102>
  40d332:	6e                   	outs   dx,BYTE PTR ds:[esi]
  40d333:	2d 31 2e 37 2e       	sub    eax,0x2e372e31
  40d338:	31 37                	xor    DWORD PTR [edi],esi
  40d33a:	2d 31 2f 6e 65       	sub    eax,0x656e2f31
  40d33f:	77 6c                	ja     40d3ad <.debug_line+0x114>
  40d341:	69 62 2f 6c 69 62 63 	imul   esp,DWORD PTR [edx+0x2f],0x6362696c
  40d348:	2f                   	das    
  40d349:	69 6e 63 6c 75 64 65 	imul   ebp,DWORD PTR [esi+0x63],0x6564756c
  40d350:	2f                   	das    
  40d351:	73 79                	jae    40d3cc <.debug_line+0x133>
  40d353:	73 00                	jae    40d355 <.debug_line+0xbc>
  40d355:	2f                   	das    
  40d356:	75 73                	jne    40d3cb <.debug_line+0x132>
  40d358:	72 2f                	jb     40d389 <.debug_line+0xf0>
  40d35a:	6c                   	ins    BYTE PTR es:[edi],dx
  40d35b:	69 62 36 34 2f 67 63 	imul   esp,DWORD PTR [edx+0x36],0x63672f34
  40d362:	63 2f                	arpl   WORD PTR [edi],bp
  40d364:	69 36 38 36 2d 70    	imul   esi,DWORD PTR [esi],0x702d3638
  40d36a:	63 2d 63 79 67 77    	arpl   WORD PTR ds:0x77677963,bp
  40d370:	69 6e 2f 34 2e 35 2e 	imul   ebp,DWORD PTR [esi+0x2f],0x2e352e34
  40d377:	33 2f                	xor    ebp,DWORD PTR [edi]
  40d379:	69 6e 63 6c 75 64 65 	imul   ebp,DWORD PTR [esi+0x63],0x6564756c
  40d380:	00 2f                	add    BYTE PTR [edi],ch
  40d382:	75 73                	jne    40d3f7 <.debug_line+0x15e>
  40d384:	72 2f                	jb     40d3b5 <.debug_line+0x11c>
  40d386:	73 72                	jae    40d3fa <.debug_line+0x161>
  40d388:	63 2f                	arpl   WORD PTR [edi],bp
  40d38a:	64 65 62 75 67       	fs bound esi,QWORD PTR fs:gs:[ebp+0x67]
  40d38f:	2f                   	das    
  40d390:	63 79 67             	arpl   WORD PTR [ecx+0x67],di
  40d393:	77 69                	ja     40d3fe <.debug_line+0x165>
  40d395:	6e                   	outs   dx,BYTE PTR ds:[esi]
  40d396:	2d 31 2e 37 2e       	sub    eax,0x2e372e31
  40d39b:	31 37                	xor    DWORD PTR [edi],esi
  40d39d:	2d 31 2f 77 69       	sub    eax,0x69772f31
  40d3a2:	6e                   	outs   dx,BYTE PTR ds:[esi]
  40d3a3:	73 75                	jae    40d41a <.debug_line+0x181>
  40d3a5:	70 2f                	jo     40d3d6 <.debug_line+0x13d>
  40d3a7:	77 33                	ja     40d3dc <.debug_line+0x143>
  40d3a9:	32 61 70             	xor    ah,BYTE PTR [ecx+0x70]
  40d3ac:	69 2f 69 6e 63 6c    	imul   ebp,DWORD PTR [edi],0x6c636e69
  40d3b2:	75 64                	jne    40d418 <.debug_line+0x17f>
  40d3b4:	65 00 2f             	add    BYTE PTR gs:[edi],ch
  40d3b7:	75 73                	jne    40d42c <.debug_line+0x193>
  40d3b9:	72 2f                	jb     40d3ea <.debug_line+0x151>
  40d3bb:	73 72                	jae    40d42f <.debug_line+0x196>
  40d3bd:	63 2f                	arpl   WORD PTR [edi],bp
  40d3bf:	64 65 62 75 67       	fs bound esi,QWORD PTR fs:gs:[ebp+0x67]
  40d3c4:	2f                   	das    
  40d3c5:	63 79 67             	arpl   WORD PTR [ecx+0x67],di
  40d3c8:	77 69                	ja     40d433 <.debug_line+0x19a>
  40d3ca:	6e                   	outs   dx,BYTE PTR ds:[esi]
  40d3cb:	2d 31 2e 37 2e       	sub    eax,0x2e372e31
  40d3d0:	31 37                	xor    DWORD PTR [edi],esi
  40d3d2:	2d 31 2f 77 69       	sub    eax,0x69772f31
  40d3d7:	6e                   	outs   dx,BYTE PTR ds:[esi]
  40d3d8:	73 75                	jae    40d44f <.debug_line+0x1b6>
  40d3da:	70 2f                	jo     40d40b <.debug_line+0x172>
  40d3dc:	63 79 67             	arpl   WORD PTR [ecx+0x67],di
  40d3df:	77 69                	ja     40d44a <.debug_line+0x1b1>
  40d3e1:	6e                   	outs   dx,BYTE PTR ds:[esi]
  40d3e2:	00 2f                	add    BYTE PTR [edi],ch
  40d3e4:	75 73                	jne    40d459 <.debug_line+0x1c0>
  40d3e6:	72 2f                	jb     40d417 <.debug_line+0x17e>
  40d3e8:	6c                   	ins    BYTE PTR es:[edi],dx
  40d3e9:	69 62 36 34 2f 67 63 	imul   esp,DWORD PTR [edx+0x36],0x63672f34
  40d3f0:	63 2f                	arpl   WORD PTR [edi],bp
  40d3f2:	69 36 38 36 2d 70    	imul   esi,DWORD PTR [esi],0x702d3638
  40d3f8:	63 2d 63 79 67 77    	arpl   WORD PTR ds:0x77677963,bp
  40d3fe:	69 6e 2f 34 2e 35 2e 	imul   ebp,DWORD PTR [esi+0x2f],0x2e352e34
  40d405:	33 2f                	xor    ebp,DWORD PTR [edi]
  40d407:	69 6e 63 6c 75 64 65 	imul   ebp,DWORD PTR [esi+0x63],0x6564756c
  40d40e:	2f                   	das    
  40d40f:	63 2b                	arpl   WORD PTR [ebx],bp
  40d411:	2b 00                	sub    eax,DWORD PTR [eax]
  40d413:	2e 00 00             	add    BYTE PTR cs:[eax],al
  40d416:	5f                   	pop    edi
  40d417:	63 79 67             	arpl   WORD PTR [ecx+0x67],di
  40d41a:	77 69                	ja     40d485 <.debug_line+0x1ec>
  40d41c:	6e                   	outs   dx,BYTE PTR ds:[esi]
  40d41d:	5f                   	pop    edi
  40d41e:	63 72 74             	arpl   WORD PTR [edx+0x74],si
  40d421:	30 5f 63             	xor    BYTE PTR [edi+0x63],bl
  40d424:	6f                   	outs   dx,DWORD PTR ds:[esi]
  40d425:	6d                   	ins    DWORD PTR es:[edi],dx
  40d426:	6d                   	ins    DWORD PTR es:[edi],dx
  40d427:	6f                   	outs   dx,DWORD PTR ds:[esi]
  40d428:	6e                   	outs   dx,BYTE PTR ds:[esi]
  40d429:	2e 63 63 00          	arpl   WORD PTR cs:[ebx+0x0],sp
  40d42d:	01 00                	add    DWORD PTR [eax],eax
  40d42f:	00 6c 6f 63          	add    BYTE PTR [edi+ebp*2+0x63],ch
  40d433:	6b 2e 68             	imul   ebp,DWORD PTR [esi],0x68
  40d436:	00 02                	add    BYTE PTR [edx],al
  40d438:	00 00                	add    BYTE PTR [eax],al
  40d43a:	5f                   	pop    edi
  40d43b:	74 79                	je     40d4b6 <.debug_line+0x21d>
  40d43d:	70 65                	jo     40d4a4 <.debug_line+0x20b>
  40d43f:	73 2e                	jae    40d46f <.debug_line+0x1d6>
  40d441:	68 00 03 00 00       	push   0x300
  40d446:	73 74                	jae    40d4bc <.debug_line+0x223>
  40d448:	64                   	fs
  40d449:	64                   	fs
  40d44a:	65                   	gs
  40d44b:	66                   	data16
  40d44c:	2e                   	cs
  40d44d:	68 00 04 00 00       	push   0x400
  40d452:	73 74                	jae    40d4c8 <.debug_line+0x22f>
  40d454:	64                   	fs
  40d455:	61                   	popa   
  40d456:	72 67                	jb     40d4bf <.debug_line+0x226>
  40d458:	2e                   	cs
  40d459:	68 00 04 00 00       	push   0x400
  40d45e:	73 74                	jae    40d4d4 <.debug_line+0x23b>
  40d460:	72 61                	jb     40d4c3 <.debug_line+0x22a>
  40d462:	63 65 2e             	arpl   WORD PTR [ebp+0x2e],sp
  40d465:	68 00 02 00 00       	push   0x200
  40d46a:	77 69                	ja     40d4d5 <.debug_line+0x23c>
  40d46c:	6e                   	outs   dx,BYTE PTR ds:[esi]
  40d46d:	64                   	fs
  40d46e:	65                   	gs
  40d46f:	66                   	data16
  40d470:	2e                   	cs
  40d471:	68 00 05 00 00       	push   0x500
  40d476:	72 65                	jb     40d4dd <.debug_line+0x244>
  40d478:	65 6e                	outs   dx,BYTE PTR gs:[esi]
  40d47a:	74 2e                	je     40d4aa <.debug_line+0x211>
  40d47c:	68 00 03 00 00       	push   0x300
  40d481:	77 69                	ja     40d4ec <.debug_line+0x253>
  40d483:	6e                   	outs   dx,BYTE PTR ds:[esi]
  40d484:	6e                   	outs   dx,BYTE PTR ds:[esi]
  40d485:	74 2e                	je     40d4b5 <.debug_line+0x21c>
  40d487:	68 00 05 00 00       	push   0x500
  40d48c:	63 79 67             	arpl   WORD PTR [ecx+0x67],di
  40d48f:	77 69                	ja     40d4fa <.debug_line+0x261>
  40d491:	6e                   	outs   dx,BYTE PTR ds:[esi]
  40d492:	2e                   	cs
  40d493:	68 00 02 00 00       	push   0x200
  40d498:	63 79 67             	arpl   WORD PTR [ecx+0x67],di
  40d49b:	77 69                	ja     40d506 <.debug_line+0x26d>
  40d49d:	6e                   	outs   dx,BYTE PTR ds:[esi]
  40d49e:	2d 63 78 78 2e       	sub    eax,0x2e787863
  40d4a3:	68 00 06 00 00       	push   0x600
  40d4a8:	74 68                	je     40d512 <.debug_line+0x279>
  40d4aa:	72 65                	jb     40d511 <.debug_line+0x278>
  40d4ac:	61                   	popa   
  40d4ad:	64                   	fs
  40d4ae:	2e                   	cs
  40d4af:	68 00 06 00 00       	push   0x600
  40d4b4:	63 72 74             	arpl   WORD PTR [edx+0x74],si
  40d4b7:	30 2e                	xor    BYTE PTR [esi],ch
  40d4b9:	68 00 01 00 00       	push   0x100
  40d4be:	63 73 74             	arpl   WORD PTR [ebx+0x74],si
  40d4c1:	64                   	fs
  40d4c2:	64                   	fs
  40d4c3:	65                   	gs
  40d4c4:	66                   	data16
  40d4c5:	00 07                	add    BYTE PTR [edi],al
  40d4c7:	00 00                	add    BYTE PTR [eax],al
  40d4c9:	77 69                	ja     40d534 <.debug_line+0x29b>
  40d4cb:	6e                   	outs   dx,BYTE PTR ds:[esi]
  40d4cc:	73 75                	jae    40d543 <.debug_line+0x2aa>
  40d4ce:	70 2e                	jo     40d4fe <.debug_line+0x265>
  40d4d0:	68 00 06 00 00       	push   0x600
  40d4d5:	73 65                	jae    40d53c <.debug_line+0x2a3>
  40d4d7:	63 75 72             	arpl   WORD PTR [ebp+0x72],si
  40d4da:	69 74 79 2e 68 00 06 	imul   esi,DWORD PTR [ecx+edi*2+0x2e],0x60068
  40d4e1:	00 
  40d4e2:	00 63 79             	add    BYTE PTR [ebx+0x79],ah
  40d4e5:	67 74 6c             	addr16 je 40d554 <.debug_line+0x2bb>
  40d4e8:	73 2e                	jae    40d518 <.debug_line+0x27f>
  40d4ea:	68 00 06 00 00       	push   0x600
  40d4ef:	63 79 67             	arpl   WORD PTR [ecx+0x67],di
  40d4f2:	77 61                	ja     40d555 <.debug_line+0x2bc>
  40d4f4:	69 74 2e 68 00 06 00 	imul   esi,DWORD PTR [esi+ebp*1+0x68],0x600
  40d4fb:	00 
  40d4fc:	67 6c                	ins    BYTE PTR es:[di],dx
  40d4fe:	6f                   	outs   dx,DWORD PTR ds:[esi]
  40d4ff:	62 61 6c             	bound  esp,QWORD PTR [ecx+0x6c]
  40d502:	73 2e                	jae    40d532 <.debug_line+0x299>
  40d504:	68 00 08 00 00       	push   0x800
  40d509:	3c 62                	cmp    al,0x62
  40d50b:	75 69                	jne    40d576 <.debug_line+0x2dd>
  40d50d:	6c                   	ins    BYTE PTR es:[edi],dx
  40d50e:	74 2d                	je     40d53d <.debug_line+0x2a4>
  40d510:	69 6e 3e 00 00 00 00 	imul   ebp,DWORD PTR [esi+0x3e],0x0
  40d517:	6e                   	outs   dx,BYTE PTR ds:[esi]
  40d518:	65                   	gs
  40d519:	77 00                	ja     40d51b <.debug_line+0x282>
  40d51b:	07                   	pop    es
  40d51c:	00 00                	add    BYTE PTR [eax],al
  40d51e:	00 00                	add    BYTE PTR [eax],al
  40d520:	05 02 b0 12 40       	add    eax,0x4012b002
  40d525:	00 03                	add    BYTE PTR [ebx],al
  40d527:	c5 00                	lds    eax,FWORD PTR [eax]
  40d529:	01 82 67 bf 03 18    	add    DWORD PTR [edx+0x1803bf67],eax
  40d52f:	82                   	(bad)  
  40d530:	03 1a                	add    ebx,DWORD PTR [edx]
  40d532:	66 03 58 2e          	add    bx,WORD PTR [eax+0x2e]
  40d536:	77 75                	ja     40d5ad <.debug_line+0x314>
  40d538:	03 0a                	add    ecx,DWORD PTR [edx]
  40d53a:	74 03                	je     40d53f <.debug_line+0x2a6>
  40d53c:	0e                   	push   cs
  40d53d:	3c 03                	cmp    al,0x3
  40d53f:	69 3c 9f a0 75 75 7a 	imul   edi,DWORD PTR [edi+ebx*4],0x7a7575a0
  40d546:	40                   	inc    eax
  40d547:	75 75                	jne    40d5be <.debug_line+0x325>
  40d549:	75 75                	jne    40d5c0 <.debug_line+0x327>
  40d54b:	78 32                	js     40d57f <.debug_line+0x2e6>
  40d54d:	75 75                	jne    40d5c4 <.debug_line+0x32b>
  40d54f:	75 79                	jne    40d5ca <.debug_line+0x331>
  40d551:	00 02                	add    BYTE PTR [edx],al
  40d553:	04 02                	add    al,0x2
  40d555:	06                   	push   es
  40d556:	08 12                	or     BYTE PTR [edx],dl
  40d558:	06                   	push   es
  40d559:	dc d7                	(bad)  
  40d55b:	c9                   	leave  
  40d55c:	d7                   	xlat   BYTE PTR ds:[ebx]
  40d55d:	d7                   	xlat   BYTE PTR ds:[ebx]
  40d55e:	c9                   	leave  
  40d55f:	d7                   	xlat   BYTE PTR ds:[ebx]
  40d560:	d7                   	xlat   BYTE PTR ds:[ebx]
  40d561:	ca 02 3f             	retf   0x3f02
  40d564:	16                   	push   ss
  40d565:	bd 75 75 75 75       	mov    ebp,0x75757575
  40d56a:	03 79 9e             	add    edi,DWORD PTR [ecx-0x62]
  40d56d:	6e                   	outs   dx,BYTE PTR ds:[esi]
  40d56e:	9f                   	lahf   
  40d56f:	a1 bc 03 43 d6       	mov    eax,ds:0xd64303bc
  40d574:	03 1c 66             	add    ebx,DWORD PTR [esi+eiz*2]
  40d577:	03 64 2e 03          	add    esp,DWORD PTR [esi+ebp*1+0x3]
  40d57b:	74 66                	je     40d5e3 <.debug_line+0x16>
  40d57d:	77 75                	ja     40d5f4 <.debug_line+0x27>
  40d57f:	7c 03                	jl     40d584 <.debug_line+0x2eb>
  40d581:	10 2e                	adc    BYTE PTR [esi],ch
  40d583:	03 69 3c             	add    ebp,DWORD PTR [ecx+0x3c]
  40d586:	9f                   	lahf   
  40d587:	a0 75 75 7a 40       	mov    al,ds:0x407a7575
  40d58c:	75 75                	jne    40d603 <.debug_line+0x36>
  40d58e:	75 75                	jne    40d605 <.debug_line+0x38>
  40d590:	78 32                	js     40d5c4 <.debug_line+0x32b>
  40d592:	75 75                	jne    40d609 <.debug_line+0x3c>
  40d594:	75 79                	jne    40d60f <.debug_line+0x42>
  40d596:	00 02                	add    BYTE PTR [edx],al
  40d598:	04 01                	add    al,0x1
  40d59a:	06                   	push   es
  40d59b:	66                   	data16
  40d59c:	00 02                	add    BYTE PTR [edx],al
  40d59e:	04 01                	add    al,0x1
  40d5a0:	06                   	push   es
  40d5a1:	03 0d 08 20 00 02    	add    ecx,DWORD PTR ds:0x2002008
  40d5a7:	04 01                	add    al,0x1
  40d5a9:	f1                   	icebp  
  40d5aa:	00 02                	add    BYTE PTR [edx],al
  40d5ac:	04 01                	add    al,0x1
  40d5ae:	f1                   	icebp  
  40d5af:	00 02                	add    BYTE PTR [edx],al
  40d5b1:	04 01                	add    al,0x1
  40d5b3:	f1                   	icebp  
  40d5b4:	00 02                	add    BYTE PTR [edx],al
  40d5b6:	04 01                	add    al,0x1
  40d5b8:	f1                   	icebp  
  40d5b9:	00 02                	add    BYTE PTR [edx],al
  40d5bb:	04 01                	add    al,0x1
  40d5bd:	f1                   	icebp  
  40d5be:	00 02                	add    BYTE PTR [edx],al
  40d5c0:	04 01                	add    al,0x1
  40d5c2:	f1                   	icebp  
  40d5c3:	00 02                	add    BYTE PTR [edx],al
  40d5c5:	04 01                	add    al,0x1
  40d5c7:	f1                   	icebp  
  40d5c8:	02 0c 00             	add    cl,BYTE PTR [eax+eax*1]
  40d5cb:	01 01                	add    DWORD PTR [ecx],eax

0040d5cd <.debug_line>:
  40d5cd:	e5 00                	in     eax,0x0
  40d5cf:	00 00                	add    BYTE PTR [eax],al
  40d5d1:	02 00                	add    al,BYTE PTR [eax]
  40d5d3:	a0 00 00 00 01       	mov    al,ds:0x1000000
  40d5d8:	01 fb                	add    ebx,edi
  40d5da:	0e                   	push   cs
  40d5db:	0d 00 01 01 01       	or     eax,0x1010100
  40d5e0:	01 00                	add    DWORD PTR [eax],eax
  40d5e2:	00 00                	add    BYTE PTR [eax],al
  40d5e4:	01 00                	add    DWORD PTR [eax],eax
  40d5e6:	00 01                	add    BYTE PTR [ecx],al
  40d5e8:	2f                   	das    
  40d5e9:	75 73                	jne    40d65e <.debug_line+0x91>
  40d5eb:	72 2f                	jb     40d61c <.debug_line+0x4f>
  40d5ed:	73 72                	jae    40d661 <.debug_line+0x94>
  40d5ef:	63 2f                	arpl   WORD PTR [edi],bp
  40d5f1:	64 65 62 75 67       	fs bound esi,QWORD PTR fs:gs:[ebp+0x67]
  40d5f6:	2f                   	das    
  40d5f7:	63 79 67             	arpl   WORD PTR [ecx+0x67],di
  40d5fa:	77 69                	ja     40d665 <.debug_line+0x98>
  40d5fc:	6e                   	outs   dx,BYTE PTR ds:[esi]
  40d5fd:	2d 31 2e 37 2e       	sub    eax,0x2e372e31
  40d602:	31 37                	xor    DWORD PTR [edi],esi
  40d604:	2d 31 2f 77 69       	sub    eax,0x69772f31
  40d609:	6e                   	outs   dx,BYTE PTR ds:[esi]
  40d60a:	73 75                	jae    40d681 <.debug_line+0xb4>
  40d60c:	70 2f                	jo     40d63d <.debug_line+0x70>
  40d60e:	63 79 67             	arpl   WORD PTR [ecx+0x67],di
  40d611:	77 69                	ja     40d67c <.debug_line+0xaf>
  40d613:	6e                   	outs   dx,BYTE PTR ds:[esi]
  40d614:	2f                   	das    
  40d615:	6c                   	ins    BYTE PTR es:[edi],dx
  40d616:	69 62 00 2f 75 73 72 	imul   esp,DWORD PTR [edx+0x0],0x7273752f
  40d61d:	2f                   	das    
  40d61e:	73 72                	jae    40d692 <.debug_line+0xc5>
  40d620:	63 2f                	arpl   WORD PTR [edi],bp
  40d622:	64 65 62 75 67       	fs bound esi,QWORD PTR fs:gs:[ebp+0x67]
  40d627:	2f                   	das    
  40d628:	63 79 67             	arpl   WORD PTR [ecx+0x67],di
  40d62b:	77 69                	ja     40d696 <.debug_line+0xc9>
  40d62d:	6e                   	outs   dx,BYTE PTR ds:[esi]
  40d62e:	2d 31 2e 37 2e       	sub    eax,0x2e372e31
  40d633:	31 37                	xor    DWORD PTR [edi],esi
  40d635:	2d 31 2f 77 69       	sub    eax,0x69772f31
  40d63a:	6e                   	outs   dx,BYTE PTR ds:[esi]
  40d63b:	73 75                	jae    40d6b2 <.debug_line+0xe5>
  40d63d:	70 2f                	jo     40d66e <.debug_line+0xa1>
  40d63f:	77 33                	ja     40d674 <.debug_line+0xa7>
  40d641:	32 61 70             	xor    ah,BYTE PTR [ecx+0x70]
  40d644:	69 2f 69 6e 63 6c    	imul   ebp,DWORD PTR [edi],0x6c636e69
  40d64a:	75 64                	jne    40d6b0 <.debug_line+0xe3>
  40d64c:	65 00 00             	add    BYTE PTR gs:[eax],al
  40d64f:	64                   	fs
  40d650:	6c                   	ins    BYTE PTR es:[edi],dx
  40d651:	6c                   	ins    BYTE PTR es:[edi],dx
  40d652:	5f                   	pop    edi
  40d653:	65 6e                	outs   dx,BYTE PTR gs:[esi]
  40d655:	74 72                	je     40d6c9 <.debug_line+0x13>
  40d657:	79 2e                	jns    40d687 <.debug_line+0xba>
  40d659:	63 00                	arpl   WORD PTR [eax],ax
  40d65b:	01 00                	add    DWORD PTR [eax],eax
  40d65d:	00 77 69             	add    BYTE PTR [edi+0x69],dh
  40d660:	6e                   	outs   dx,BYTE PTR ds:[esi]
  40d661:	64                   	fs
  40d662:	65                   	gs
  40d663:	66                   	data16
  40d664:	2e                   	cs
  40d665:	68 00 02 00 00       	push   0x200
  40d66a:	77 74                	ja     40d6e0 <.debug_line+0x2a>
  40d66c:	79 70                	jns    40d6de <.debug_line+0x28>
  40d66e:	65                   	gs
  40d66f:	73 2e                	jae    40d69f <.debug_line+0xd2>
  40d671:	68 00 02 00 00       	push   0x200
  40d676:	00 00                	add    BYTE PTR [eax],al
  40d678:	05 02 c0 15 40       	add    eax,0x4015c002
  40d67d:	00 03                	add    BYTE PTR [ebx],al
  40d67f:	10 01                	adc    BYTE PTR [ecx],al
  40d681:	66                   	data16
  40d682:	02 2a                	add    ch,BYTE PTR [edx]
  40d684:	12 66 00             	adc    ah,BYTE PTR [esi+0x0]
  40d687:	02 04 01             	add    al,BYTE PTR [ecx+eax*1]
  40d68a:	06                   	push   es
  40d68b:	02 23                	add    ah,BYTE PTR [ebx]
  40d68d:	12 00                	adc    al,BYTE PTR [eax]
  40d68f:	02 04 02             	add    al,BYTE PTR [edx+eax*1]
  40d692:	74 00                	je     40d694 <.debug_line+0xc7>
  40d694:	02 04 08             	add    al,BYTE PTR [eax+ecx*1]
  40d697:	08 9e 00 02 04 05    	or     BYTE PTR [esi+0x5040200],bl
  40d69d:	02 25 12 00 02 04    	add    ah,BYTE PTR ds:0x4020012
  40d6a3:	03 08                	add    ecx,DWORD PTR [eax]
  40d6a5:	2e 00 02             	add    BYTE PTR cs:[edx],al
  40d6a8:	04 04                	add    al,0x4
  40d6aa:	02 44 12 06          	add    al,BYTE PTR [edx+edx*1+0x6]
  40d6ae:	08 82 66 02 06 00    	or     BYTE PTR [edx+0x60266],al
  40d6b4:	01 01                	add    DWORD PTR [ecx],eax

0040d6b6 <.debug_line>:
  40d6b6:	70 00                	jo     40d6b8 <.debug_line+0x2>
  40d6b8:	00 00                	add    BYTE PTR [eax],al
  40d6ba:	02 00                	add    al,BYTE PTR [eax]
  40d6bc:	5c                   	pop    esp
  40d6bd:	00 00                	add    BYTE PTR [eax],al
  40d6bf:	00 01                	add    BYTE PTR [ecx],al
  40d6c1:	01 fb                	add    ebx,edi
  40d6c3:	0e                   	push   cs
  40d6c4:	0d 00 01 01 01       	or     eax,0x1010100
  40d6c9:	01 00                	add    DWORD PTR [eax],eax
  40d6cb:	00 00                	add    BYTE PTR [eax],al
  40d6cd:	01 00                	add    DWORD PTR [eax],eax
  40d6cf:	00 01                	add    BYTE PTR [ecx],al
  40d6d1:	2f                   	das    
  40d6d2:	75 73                	jne    40d747 <.debug_line+0x1d>
  40d6d4:	72 2f                	jb     40d705 <.debug_line+0x4f>
  40d6d6:	73 72                	jae    40d74a <.debug_line+0x20>
  40d6d8:	63 2f                	arpl   WORD PTR [edi],bp
  40d6da:	64 65 62 75 67       	fs bound esi,QWORD PTR fs:gs:[ebp+0x67]
  40d6df:	2f                   	das    
  40d6e0:	63 79 67             	arpl   WORD PTR [ecx+0x67],di
  40d6e3:	77 69                	ja     40d74e <.debug_line+0x24>
  40d6e5:	6e                   	outs   dx,BYTE PTR ds:[esi]
  40d6e6:	2d 31 2e 37 2e       	sub    eax,0x2e372e31
  40d6eb:	31 37                	xor    DWORD PTR [edi],esi
  40d6ed:	2d 31 2f 77 69       	sub    eax,0x69772f31
  40d6f2:	6e                   	outs   dx,BYTE PTR ds:[esi]
  40d6f3:	73 75                	jae    40d76a <.debug_line+0x40>
  40d6f5:	70 2f                	jo     40d726 <.debug_line+0x70>
  40d6f7:	63 79 67             	arpl   WORD PTR [ecx+0x67],di
  40d6fa:	77 69                	ja     40d765 <.debug_line+0x3b>
  40d6fc:	6e                   	outs   dx,BYTE PTR ds:[esi]
  40d6fd:	2f                   	das    
  40d6fe:	6c                   	ins    BYTE PTR es:[edi],dx
  40d6ff:	69 62 00 00 70 73 65 	imul   esp,DWORD PTR [edx+0x0],0x65737000
  40d706:	75 64                	jne    40d76c <.debug_line+0x42>
  40d708:	6f                   	outs   dx,DWORD PTR ds:[esi]
  40d709:	2d 72 65 6c 6f       	sub    eax,0x6f6c6572
  40d70e:	63 2d 64 75 6d 6d    	arpl   WORD PTR ds:0x6d6d7564,bp
  40d714:	79 2e                	jns    40d744 <.debug_line+0x1a>
  40d716:	63 00                	arpl   WORD PTR [eax],ax
  40d718:	01 00                	add    DWORD PTR [eax],eax
  40d71a:	00 00                	add    BYTE PTR [eax],al
  40d71c:	00 05 02 10 17 40    	add    BYTE PTR ds:0x40171002,al
  40d722:	00 19                	add    BYTE PTR [ecx],bl
  40d724:	3e 02 02             	add    al,BYTE PTR ds:[edx]
  40d727:	00 01                	add    BYTE PTR [ecx],al
  40d729:	01 bd 00 00 00 02    	add    DWORD PTR [ebp+0x2000000],edi

0040d72a <.debug_line>:
  40d72a:	bd 00 00 00 02       	mov    ebp,0x2000000
  40d72f:	00 9f 00 00 00 01    	add    BYTE PTR [edi+0x1000000],bl
  40d735:	01 fb                	add    ebx,edi
  40d737:	0e                   	push   cs
  40d738:	0d 00 01 01 01       	or     eax,0x1010100
  40d73d:	01 00                	add    DWORD PTR [eax],eax
  40d73f:	00 00                	add    BYTE PTR [eax],al
  40d741:	01 00                	add    DWORD PTR [eax],eax
  40d743:	00 01                	add    BYTE PTR [ecx],al
  40d745:	2f                   	das    
  40d746:	75 73                	jne    40d7bb <.debug_line+0x91>
  40d748:	72 2f                	jb     40d779 <.debug_line+0x4f>
  40d74a:	73 72                	jae    40d7be <.debug_line+0x94>
  40d74c:	63 2f                	arpl   WORD PTR [edi],bp
  40d74e:	64 65 62 75 67       	fs bound esi,QWORD PTR fs:gs:[ebp+0x67]
  40d753:	2f                   	das    
  40d754:	63 79 67             	arpl   WORD PTR [ecx+0x67],di
  40d757:	77 69                	ja     40d7c2 <.debug_line+0x98>
  40d759:	6e                   	outs   dx,BYTE PTR ds:[esi]
  40d75a:	2d 31 2e 37 2e       	sub    eax,0x2e372e31
  40d75f:	31 37                	xor    DWORD PTR [edi],esi
  40d761:	2d 31 2f 77 69       	sub    eax,0x69772f31
  40d766:	6e                   	outs   dx,BYTE PTR ds:[esi]
  40d767:	73 75                	jae    40d7de <.debug_line+0xb4>
  40d769:	70 2f                	jo     40d79a <.debug_line+0x70>
  40d76b:	63 79 67             	arpl   WORD PTR [ecx+0x67],di
  40d76e:	77 69                	ja     40d7d9 <.debug_line+0xaf>
  40d770:	6e                   	outs   dx,BYTE PTR ds:[esi]
  40d771:	2f                   	das    
  40d772:	6c                   	ins    BYTE PTR es:[edi],dx
  40d773:	69 62 00 2f 75 73 72 	imul   esp,DWORD PTR [edx+0x0],0x7273752f
  40d77a:	2f                   	das    
  40d77b:	73 72                	jae    40d7ef <.debug_line+0x4>
  40d77d:	63 2f                	arpl   WORD PTR [edi],bp
  40d77f:	64 65 62 75 67       	fs bound esi,QWORD PTR fs:gs:[ebp+0x67]
  40d784:	2f                   	das    
  40d785:	63 79 67             	arpl   WORD PTR [ecx+0x67],di
  40d788:	77 69                	ja     40d7f3 <.debug_line+0x8>
  40d78a:	6e                   	outs   dx,BYTE PTR ds:[esi]
  40d78b:	2d 31 2e 37 2e       	sub    eax,0x2e372e31
  40d790:	31 37                	xor    DWORD PTR [edi],esi
  40d792:	2d 31 2f 77 69       	sub    eax,0x69772f31
  40d797:	6e                   	outs   dx,BYTE PTR ds:[esi]
  40d798:	73 75                	jae    40d80f <.debug_line+0x24>
  40d79a:	70 2f                	jo     40d7cb <.debug_line+0xa1>
  40d79c:	77 33                	ja     40d7d1 <.debug_line+0xa7>
  40d79e:	32 61 70             	xor    ah,BYTE PTR [ecx+0x70]
  40d7a1:	69 2f 69 6e 63 6c    	imul   ebp,DWORD PTR [edi],0x6c636e69
  40d7a7:	75 64                	jne    40d80d <.debug_line+0x22>
  40d7a9:	65 00 00             	add    BYTE PTR gs:[eax],al
  40d7ac:	64                   	fs
  40d7ad:	6c                   	ins    BYTE PTR es:[edi],dx
  40d7ae:	6c                   	ins    BYTE PTR es:[edi],dx
  40d7af:	5f                   	pop    edi
  40d7b0:	6d                   	ins    DWORD PTR es:[edi],dx
  40d7b1:	61                   	popa   
  40d7b2:	69 6e 2e 63 63 00 01 	imul   ebp,DWORD PTR [esi+0x2e],0x1006363
  40d7b9:	00 00                	add    BYTE PTR [eax],al
  40d7bb:	77 69                	ja     40d826 <.debug_line+0x3b>
  40d7bd:	6e                   	outs   dx,BYTE PTR ds:[esi]
  40d7be:	64                   	fs
  40d7bf:	65                   	gs
  40d7c0:	66                   	data16
  40d7c1:	2e                   	cs
  40d7c2:	68 00 02 00 00       	push   0x200
  40d7c7:	77 69                	ja     40d832 <.debug_line+0x47>
  40d7c9:	6e                   	outs   dx,BYTE PTR ds:[esi]
  40d7ca:	6e                   	outs   dx,BYTE PTR ds:[esi]
  40d7cb:	74 2e                	je     40d7fb <.debug_line+0x10>
  40d7cd:	68 00 02 00 00       	push   0x200
  40d7d2:	00 00                	add    BYTE PTR [eax],al
  40d7d4:	05 02 20 17 40       	add    eax,0x40172002
  40d7d9:	00 03                	add    BYTE PTR [ebx],al
  40d7db:	14 01                	adc    al,0x1
  40d7dd:	03 10                	add    edx,DWORD PTR [eax]
  40d7df:	20 03                	and    BYTE PTR [ebx],al
  40d7e1:	70 58                	jo     40d83b <.debug_line+0x50>
  40d7e3:	03 10                	add    edx,DWORD PTR [eax]
  40d7e5:	2e 02 04 00          	add    al,BYTE PTR cs:[eax+eax*1]
  40d7e9:	01 01                	add    DWORD PTR [ecx],eax

0040d7eb <.debug_line>:
  40d7eb:	99                   	cdq    
  40d7ec:	01 00                	add    DWORD PTR [eax],eax
  40d7ee:	00 02                	add    BYTE PTR [edx],al
  40d7f0:	00 7b 01             	add    BYTE PTR [ebx+0x1],bh
  40d7f3:	00 00                	add    BYTE PTR [eax],al
  40d7f5:	01 01                	add    DWORD PTR [ecx],eax
  40d7f7:	fb                   	sti    
  40d7f8:	0e                   	push   cs
  40d7f9:	0d 00 01 01 01       	or     eax,0x1010100
  40d7fe:	01 00                	add    DWORD PTR [eax],eax
  40d800:	00 00                	add    BYTE PTR [eax],al
  40d802:	01 00                	add    DWORD PTR [eax],eax
  40d804:	00 01                	add    BYTE PTR [ecx],al
  40d806:	2f                   	das    
  40d807:	75 73                	jne    40d87c <.debug_line+0x91>
  40d809:	72 2f                	jb     40d83a <.debug_line+0x4f>
  40d80b:	73 72                	jae    40d87f <.debug_line+0x94>
  40d80d:	63 2f                	arpl   WORD PTR [edi],bp
  40d80f:	64 65 62 75 67       	fs bound esi,QWORD PTR fs:gs:[ebp+0x67]
  40d814:	2f                   	das    
  40d815:	63 79 67             	arpl   WORD PTR [ecx+0x67],di
  40d818:	77 69                	ja     40d883 <.debug_line+0x98>
  40d81a:	6e                   	outs   dx,BYTE PTR ds:[esi]
  40d81b:	2d 31 2e 37 2e       	sub    eax,0x2e372e31
  40d820:	31 37                	xor    DWORD PTR [edi],esi
  40d822:	2d 31 2f 77 69       	sub    eax,0x69772f31
  40d827:	6e                   	outs   dx,BYTE PTR ds:[esi]
  40d828:	73 75                	jae    40d89f <.debug_line+0xb4>
  40d82a:	70 2f                	jo     40d85b <.debug_line+0x70>
  40d82c:	63 79 67             	arpl   WORD PTR [ecx+0x67],di
  40d82f:	77 69                	ja     40d89a <.debug_line+0xaf>
  40d831:	6e                   	outs   dx,BYTE PTR ds:[esi]
  40d832:	2f                   	das    
  40d833:	6c                   	ins    BYTE PTR es:[edi],dx
  40d834:	69 62 00 2f 75 73 72 	imul   esp,DWORD PTR [edx+0x0],0x7273752f
  40d83b:	2f                   	das    
  40d83c:	73 72                	jae    40d8b0 <.debug_line+0xc5>
  40d83e:	63 2f                	arpl   WORD PTR [edi],bp
  40d840:	64 65 62 75 67       	fs bound esi,QWORD PTR fs:gs:[ebp+0x67]
  40d845:	2f                   	das    
  40d846:	63 79 67             	arpl   WORD PTR [ecx+0x67],di
  40d849:	77 69                	ja     40d8b4 <.debug_line+0xc9>
  40d84b:	6e                   	outs   dx,BYTE PTR ds:[esi]
  40d84c:	2d 31 2e 37 2e       	sub    eax,0x2e372e31
  40d851:	31 37                	xor    DWORD PTR [edi],esi
  40d853:	2d 31 2f 77 69       	sub    eax,0x69772f31
  40d858:	6e                   	outs   dx,BYTE PTR ds:[esi]
  40d859:	73 75                	jae    40d8d0 <.debug_line+0xe5>
  40d85b:	70 2f                	jo     40d88c <.debug_line+0xa1>
  40d85d:	77 33                	ja     40d892 <.debug_line+0xa7>
  40d85f:	32 61 70             	xor    ah,BYTE PTR [ecx+0x70]
  40d862:	69 2f 69 6e 63 6c    	imul   ebp,DWORD PTR [edi],0x6c636e69
  40d868:	75 64                	jne    40d8ce <.debug_line+0xe3>
  40d86a:	65 00 2f             	add    BYTE PTR gs:[edi],ch
  40d86d:	75 73                	jne    40d8e2 <.debug_line+0xf7>
  40d86f:	72 2f                	jb     40d8a0 <.debug_line+0xb5>
  40d871:	73 72                	jae    40d8e5 <.debug_line+0xfa>
  40d873:	63 2f                	arpl   WORD PTR [edi],bp
  40d875:	64 65 62 75 67       	fs bound esi,QWORD PTR fs:gs:[ebp+0x67]
  40d87a:	2f                   	das    
  40d87b:	63 79 67             	arpl   WORD PTR [ecx+0x67],di
  40d87e:	77 69                	ja     40d8e9 <.debug_line+0xfe>
  40d880:	6e                   	outs   dx,BYTE PTR ds:[esi]
  40d881:	2d 31 2e 37 2e       	sub    eax,0x2e372e31
  40d886:	31 37                	xor    DWORD PTR [edi],esi
  40d888:	2d 31 2f 77 69       	sub    eax,0x69772f31
  40d88d:	6e                   	outs   dx,BYTE PTR ds:[esi]
  40d88e:	73 75                	jae    40d905 <.debug_line+0x11a>
  40d890:	70 2f                	jo     40d8c1 <.debug_line+0xd6>
  40d892:	63 79 67             	arpl   WORD PTR [ecx+0x67],di
  40d895:	77 69                	ja     40d900 <.debug_line+0x115>
  40d897:	6e                   	outs   dx,BYTE PTR ds:[esi]
  40d898:	2f                   	das    
  40d899:	69 6e 63 6c 75 64 65 	imul   ebp,DWORD PTR [esi+0x63],0x6564756c
  40d8a0:	2f                   	das    
  40d8a1:	73 79                	jae    40d91c <.debug_line+0x131>
  40d8a3:	73 00                	jae    40d8a5 <.debug_line+0xba>
  40d8a5:	2f                   	das    
  40d8a6:	75 73                	jne    40d91b <.debug_line+0x130>
  40d8a8:	72 2f                	jb     40d8d9 <.debug_line+0xee>
  40d8aa:	73 72                	jae    40d91e <.debug_line+0x133>
  40d8ac:	63 2f                	arpl   WORD PTR [edi],bp
  40d8ae:	64 65 62 75 67       	fs bound esi,QWORD PTR fs:gs:[ebp+0x67]
  40d8b3:	2f                   	das    
  40d8b4:	63 79 67             	arpl   WORD PTR [ecx+0x67],di
  40d8b7:	77 69                	ja     40d922 <.debug_line+0x137>
  40d8b9:	6e                   	outs   dx,BYTE PTR ds:[esi]
  40d8ba:	2d 31 2e 37 2e       	sub    eax,0x2e372e31
  40d8bf:	31 37                	xor    DWORD PTR [edi],esi
  40d8c1:	2d 31 2f 6e 65       	sub    eax,0x656e2f31
  40d8c6:	77 6c                	ja     40d934 <.debug_line+0x149>
  40d8c8:	69 62 2f 6c 69 62 63 	imul   esp,DWORD PTR [edx+0x2f],0x6362696c
  40d8cf:	2f                   	das    
  40d8d0:	69 6e 63 6c 75 64 65 	imul   ebp,DWORD PTR [esi+0x63],0x6564756c
  40d8d7:	2f                   	das    
  40d8d8:	73 79                	jae    40d953 <.debug_line+0x168>
  40d8da:	73 00                	jae    40d8dc <.debug_line+0xf1>
  40d8dc:	2f                   	das    
  40d8dd:	75 73                	jne    40d952 <.debug_line+0x167>
  40d8df:	72 2f                	jb     40d910 <.debug_line+0x125>
  40d8e1:	6c                   	ins    BYTE PTR es:[edi],dx
  40d8e2:	69 62 36 34 2f 67 63 	imul   esp,DWORD PTR [edx+0x36],0x63672f34
  40d8e9:	63 2f                	arpl   WORD PTR [edi],bp
  40d8eb:	69 36 38 36 2d 70    	imul   esi,DWORD PTR [esi],0x702d3638
  40d8f1:	63 2d 63 79 67 77    	arpl   WORD PTR ds:0x77677963,bp
  40d8f7:	69 6e 2f 34 2e 35 2e 	imul   ebp,DWORD PTR [esi+0x2f],0x2e352e34
  40d8fe:	33 2f                	xor    ebp,DWORD PTR [edi]
  40d900:	69 6e 63 6c 75 64 65 	imul   ebp,DWORD PTR [esi+0x63],0x6564756c
  40d907:	00 00                	add    BYTE PTR [eax],al
  40d909:	63 79 67             	arpl   WORD PTR [ecx+0x67],di
  40d90c:	77 69                	ja     40d977 <.debug_line+0x18c>
  40d90e:	6e                   	outs   dx,BYTE PTR ds:[esi]
  40d90f:	5f                   	pop    edi
  40d910:	61                   	popa   
  40d911:	74 74                	je     40d987 <.debug_line+0x19c>
  40d913:	61                   	popa   
  40d914:	63 68 5f             	arpl   WORD PTR [eax+0x5f],bp
  40d917:	64                   	fs
  40d918:	6c                   	ins    BYTE PTR es:[edi],dx
  40d919:	6c                   	ins    BYTE PTR es:[edi],dx
  40d91a:	2e 63 00             	arpl   WORD PTR cs:[eax],ax
  40d91d:	01 00                	add    DWORD PTR [eax],eax
  40d91f:	00 77 69             	add    BYTE PTR [edi+0x69],dh
  40d922:	6e                   	outs   dx,BYTE PTR ds:[esi]
  40d923:	64                   	fs
  40d924:	65                   	gs
  40d925:	66                   	data16
  40d926:	2e                   	cs
  40d927:	68 00 02 00 00       	push   0x200
  40d92c:	6c                   	ins    BYTE PTR es:[edi],dx
  40d92d:	6f                   	outs   dx,DWORD PTR ds:[esi]
  40d92e:	63 6b 2e             	arpl   WORD PTR [ebx+0x2e],bp
  40d931:	68 00 03 00 00       	push   0x300
  40d936:	5f                   	pop    edi
  40d937:	74 79                	je     40d9b2 <.debug_line+0x1c7>
  40d939:	70 65                	jo     40d9a0 <.debug_line+0x1b5>
  40d93b:	73 2e                	jae    40d96b <.debug_line+0x180>
  40d93d:	68 00 04 00 00       	push   0x400
  40d942:	73 74                	jae    40d9b8 <.debug_line+0x1cd>
  40d944:	64                   	fs
  40d945:	64                   	fs
  40d946:	65                   	gs
  40d947:	66                   	data16
  40d948:	2e                   	cs
  40d949:	68 00 05 00 00       	push   0x500
  40d94e:	72 65                	jb     40d9b5 <.debug_line+0x1ca>
  40d950:	65 6e                	outs   dx,BYTE PTR gs:[esi]
  40d952:	74 2e                	je     40d982 <.debug_line+0x197>
  40d954:	68 00 04 00 00       	push   0x400
  40d959:	63 79 67             	arpl   WORD PTR [ecx+0x67],di
  40d95c:	77 69                	ja     40d9c7 <.debug_line+0x1dc>
  40d95e:	6e                   	outs   dx,BYTE PTR ds:[esi]
  40d95f:	2e                   	cs
  40d960:	68 00 03 00 00       	push   0x300
  40d965:	63 72 74             	arpl   WORD PTR [edx+0x74],si
  40d968:	30 2e                	xor    BYTE PTR [esi],ch
  40d96a:	68 00 01 00 00       	push   0x100
  40d96f:	00 00                	add    BYTE PTR [eax],al
  40d971:	05 02 40 17 40       	add    eax,0x40174002
  40d976:	00 03                	add    BYTE PTR [ebx],al
  40d978:	14 01                	adc    al,0x1
  40d97a:	76 3a                	jbe    40d9b6 <.debug_line+0x1cb>
  40d97c:	3e                   	ds
  40d97d:	f5                   	cmc    
  40d97e:	3d 3b 71 40 1f       	cmp    eax,0x1f40713b
  40d983:	02                   	.byte 0x2
  40d984:	05                   	.byte 0x5
  40d985:	00 01                	add    BYTE PTR [ecx],al
  40d987:	01                   	.byte 0x1

Disassembly of section .debug_frame:

0040e000 <.debug_frame>:
  40e000:	10 00                	adc    BYTE PTR [eax],al
  40e002:	00 00                	add    BYTE PTR [eax],al
  40e004:	ff                   	(bad)  
  40e005:	ff                   	(bad)  
  40e006:	ff                   	(bad)  
  40e007:	ff 01                	inc    DWORD PTR [ecx]
  40e009:	00 01                	add    BYTE PTR [ecx],al
  40e00b:	7c 08                	jl     40e015 <.debug_frame+0x15>
  40e00d:	0c 04                	or     al,0x4
  40e00f:	04 88                	add    al,0x88
  40e011:	01 00                	add    DWORD PTR [eax],eax
  40e013:	00 1c 00             	add    BYTE PTR [eax+eax*1],bl
  40e016:	00 00                	add    BYTE PTR [eax],al
  40e018:	00 00                	add    BYTE PTR [eax],al
  40e01a:	00 00                	add    BYTE PTR [eax],al
  40e01c:	00 10                	add    BYTE PTR [eax],dl
  40e01e:	40                   	inc    eax
  40e01f:	00 87 00 00 00 41    	add    BYTE PTR [edi+0x41000000],al
  40e025:	0e                   	push   cs
  40e026:	08 85 02 42 0d 05    	or     BYTE PTR [ebp+0x50d4202],al
  40e02c:	02 83 c5 0c 04 04    	add    al,BYTE PTR [ebx+0x4040cc5]
	...

0040e034 <.debug_frame>:
  40e034:	10 00                	adc    BYTE PTR [eax],al
  40e036:	00 00                	add    BYTE PTR [eax],al
  40e038:	ff                   	(bad)  
  40e039:	ff                   	(bad)  
  40e03a:	ff                   	(bad)  
  40e03b:	ff 01                	inc    DWORD PTR [ecx]
  40e03d:	00 01                	add    BYTE PTR [ecx],al
  40e03f:	7c 08                	jl     40e049 <.debug_frame+0x15>
  40e041:	0c 04                	or     al,0x4
  40e043:	04 88                	add    al,0x88
  40e045:	01 00                	add    DWORD PTR [eax],eax
  40e047:	00 14 00             	add    BYTE PTR [eax+eax*1],dl
  40e04a:	00 00                	add    BYTE PTR [eax],al
  40e04c:	34 00                	xor    al,0x0
  40e04e:	00 00                	add    BYTE PTR [eax],al
  40e050:	20 12                	and    BYTE PTR [edx],dl
  40e052:	40                   	inc    eax
  40e053:	00 22                	add    BYTE PTR [edx],ah
  40e055:	00 00                	add    BYTE PTR [eax],al
  40e057:	00 41 0e             	add    BYTE PTR [ecx+0xe],al
  40e05a:	08 85 02 42 0d 05    	or     BYTE PTR [ebp+0x50d4202],al

0040e060 <.debug_frame>:
  40e060:	10 00                	adc    BYTE PTR [eax],al
  40e062:	00 00                	add    BYTE PTR [eax],al
  40e064:	ff                   	(bad)  
  40e065:	ff                   	(bad)  
  40e066:	ff                   	(bad)  
  40e067:	ff 01                	inc    DWORD PTR [ecx]
  40e069:	00 01                	add    BYTE PTR [ecx],al
  40e06b:	7c 08                	jl     40e075 <.debug_frame+0x15>
  40e06d:	0c 04                	or     al,0x4
  40e06f:	04 88                	add    al,0x88
  40e071:	01 00                	add    DWORD PTR [eax],eax
  40e073:	00 1c 00             	add    BYTE PTR [eax+eax*1],bl
  40e076:	00 00                	add    BYTE PTR [eax],al
  40e078:	60                   	pusha  
  40e079:	00 00                	add    BYTE PTR [eax],al
  40e07b:	00 50 12             	add    BYTE PTR [eax+0x12],dl
  40e07e:	40                   	inc    eax
  40e07f:	00 05 00 00 00 41    	add    BYTE PTR ds:0x41000000,al
  40e085:	0e                   	push   cs
  40e086:	08 85 02 42 0d 05    	or     BYTE PTR [ebp+0x50d4202],al
  40e08c:	41                   	inc    ecx
  40e08d:	c5 0c 04             	lds    ecx,FWORD PTR [esp+eax*1]
  40e090:	04 00                	add    al,0x0
	...

0040e094 <.debug_frame>:
  40e094:	10 00                	adc    BYTE PTR [eax],al
  40e096:	00 00                	add    BYTE PTR [eax],al
  40e098:	ff                   	(bad)  
  40e099:	ff                   	(bad)  
  40e09a:	ff                   	(bad)  
  40e09b:	ff 01                	inc    DWORD PTR [ecx]
  40e09d:	00 01                	add    BYTE PTR [ecx],al
  40e09f:	7c 08                	jl     40e0a9 <.debug_frame+0x15>
  40e0a1:	0c 04                	or     al,0x4
  40e0a3:	04 88                	add    al,0x88
  40e0a5:	01 00                	add    DWORD PTR [eax],eax
  40e0a7:	00 1c 00             	add    BYTE PTR [eax+eax*1],bl
  40e0aa:	00 00                	add    BYTE PTR [eax],al
  40e0ac:	94                   	xchg   esp,eax
  40e0ad:	00 00                	add    BYTE PTR [eax],al
  40e0af:	00 60 12             	add    BYTE PTR [eax+0x12],ah
  40e0b2:	40                   	inc    eax
  40e0b3:	00 05 00 00 00 41    	add    BYTE PTR ds:0x41000000,al
  40e0b9:	0e                   	push   cs
  40e0ba:	08 85 02 42 0d 05    	or     BYTE PTR [ebp+0x50d4202],al
  40e0c0:	41                   	inc    ecx
  40e0c1:	c5 0c 04             	lds    ecx,FWORD PTR [esp+eax*1]
  40e0c4:	04 00                	add    al,0x0
	...

0040e0c8 <.debug_frame>:
  40e0c8:	10 00                	adc    BYTE PTR [eax],al
  40e0ca:	00 00                	add    BYTE PTR [eax],al
  40e0cc:	ff                   	(bad)  
  40e0cd:	ff                   	(bad)  
  40e0ce:	ff                   	(bad)  
  40e0cf:	ff 01                	inc    DWORD PTR [ecx]
  40e0d1:	00 01                	add    BYTE PTR [ecx],al
  40e0d3:	7c 08                	jl     40e0dd <.debug_frame+0x15>
  40e0d5:	0c 04                	or     al,0x4
  40e0d7:	04 88                	add    al,0x88
  40e0d9:	01 00                	add    DWORD PTR [eax],eax
  40e0db:	00 1c 00             	add    BYTE PTR [eax+eax*1],bl
  40e0de:	00 00                	add    BYTE PTR [eax],al
  40e0e0:	c8 00 00 00          	enter  0x0,0x0
  40e0e4:	70 12                	jo     40e0f8 <.debug_frame+0x30>
  40e0e6:	40                   	inc    eax
  40e0e7:	00 05 00 00 00 41    	add    BYTE PTR ds:0x41000000,al
  40e0ed:	0e                   	push   cs
  40e0ee:	08 85 02 42 0d 05    	or     BYTE PTR [ebp+0x50d4202],al
  40e0f4:	41                   	inc    ecx
  40e0f5:	c5 0c 04             	lds    ecx,FWORD PTR [esp+eax*1]
  40e0f8:	04 00                	add    al,0x0
	...

0040e0fc <.debug_frame>:
  40e0fc:	10 00                	adc    BYTE PTR [eax],al
  40e0fe:	00 00                	add    BYTE PTR [eax],al
  40e100:	ff                   	(bad)  
  40e101:	ff                   	(bad)  
  40e102:	ff                   	(bad)  
  40e103:	ff 01                	inc    DWORD PTR [ecx]
  40e105:	00 01                	add    BYTE PTR [ecx],al
  40e107:	7c 08                	jl     40e111 <.debug_frame+0x15>
  40e109:	0c 04                	or     al,0x4
  40e10b:	04 88                	add    al,0x88
  40e10d:	01 00                	add    DWORD PTR [eax],eax
  40e10f:	00 1c 00             	add    BYTE PTR [eax+eax*1],bl
  40e112:	00 00                	add    BYTE PTR [eax],al
  40e114:	fc                   	cld    
  40e115:	00 00                	add    BYTE PTR [eax],al
  40e117:	00 80 12 40 00 05    	add    BYTE PTR [eax+0x5004012],al
  40e11d:	00 00                	add    BYTE PTR [eax],al
  40e11f:	00 41 0e             	add    BYTE PTR [ecx+0xe],al
  40e122:	08 85 02 42 0d 05    	or     BYTE PTR [ebp+0x50d4202],al
  40e128:	41                   	inc    ecx
  40e129:	c5 0c 04             	lds    ecx,FWORD PTR [esp+eax*1]
  40e12c:	04 00                	add    al,0x0
	...

0040e130 <.debug_frame>:
  40e130:	10 00                	adc    BYTE PTR [eax],al
  40e132:	00 00                	add    BYTE PTR [eax],al
  40e134:	ff                   	(bad)  
  40e135:	ff                   	(bad)  
  40e136:	ff                   	(bad)  
  40e137:	ff 01                	inc    DWORD PTR [ecx]
  40e139:	00 01                	add    BYTE PTR [ecx],al
  40e13b:	7c 08                	jl     40e145 <.debug_frame+0x15>
  40e13d:	0c 04                	or     al,0x4
  40e13f:	04 88                	add    al,0x88
  40e141:	01 00                	add    DWORD PTR [eax],eax
  40e143:	00 28                	add    BYTE PTR [eax],ch
  40e145:	00 00                	add    BYTE PTR [eax],al
  40e147:	00 30                	add    BYTE PTR [eax],dh
  40e149:	01 00                	add    DWORD PTR [eax],eax
  40e14b:	00 b0 12 40 00 0c    	add    BYTE PTR [eax+0xc004012],dh
  40e151:	03 00                	add    eax,DWORD PTR [eax]
  40e153:	00 41 0e             	add    BYTE PTR [ecx+0xe],al
  40e156:	08 85 02 42 0d 05    	or     BYTE PTR [ebp+0x50d4202],al
  40e15c:	45                   	inc    ebp
  40e15d:	83 04 86 03          	add    DWORD PTR [esi+eax*4],0x3
  40e161:	03 d6                	add    edx,esi
  40e163:	01 0a                	add    DWORD PTR [edx],ecx
  40e165:	c3                   	ret    
  40e166:	41                   	inc    ecx
  40e167:	c6 41 c5 0c          	mov    BYTE PTR [ecx-0x3b],0xc
  40e16b:	04 04                	add    al,0x4
  40e16d:	43                   	inc    ebx
  40e16e:	0b 00                	or     eax,DWORD PTR [eax]

0040e170 <.debug_frame>:
  40e170:	10 00                	adc    BYTE PTR [eax],al
  40e172:	00 00                	add    BYTE PTR [eax],al
  40e174:	ff                   	(bad)  
  40e175:	ff                   	(bad)  
  40e176:	ff                   	(bad)  
  40e177:	ff 01                	inc    DWORD PTR [ecx]
  40e179:	00 01                	add    BYTE PTR [ecx],al
  40e17b:	7c 08                	jl     40e185 <.debug_frame+0x15>
  40e17d:	0c 04                	or     al,0x4
  40e17f:	04 88                	add    al,0x88
  40e181:	01 00                	add    DWORD PTR [eax],eax
  40e183:	00 1c 00             	add    BYTE PTR [eax+eax*1],bl
  40e186:	00 00                	add    BYTE PTR [eax],al
  40e188:	70 01                	jo     40e18b <.debug_frame+0x1b>
  40e18a:	00 00                	add    BYTE PTR [eax],al
  40e18c:	c0 15 40 00 2a 00 00 	rcl    BYTE PTR ds:0x2a0040,0x0
  40e193:	00 41 0e             	add    BYTE PTR [ecx+0xe],al
  40e196:	08 85 02 42 0d 05    	or     BYTE PTR [ebp+0x50d4202],al
  40e19c:	66 c5 0c 04          	lds    cx,DWORD PTR [esp+eax*1]
  40e1a0:	04 00                	add    al,0x0
  40e1a2:	00 00                	add    BYTE PTR [eax],al
  40e1a4:	34 00                	xor    al,0x0
  40e1a6:	00 00                	add    BYTE PTR [eax],al
  40e1a8:	70 01                	jo     40e1ab <.debug_frame+0x3b>
  40e1aa:	00 00                	add    BYTE PTR [eax],al
  40e1ac:	f0 15 40 00 da 00    	lock adc eax,0xda0040
  40e1b2:	00 00                	add    BYTE PTR [eax],al
  40e1b4:	41                   	inc    ecx
  40e1b5:	0e                   	push   cs
  40e1b6:	08 85 02 42 0d 05    	or     BYTE PTR [ebp+0x50d4202],al
  40e1bc:	67 0a c5             	addr16 or al,ch
  40e1bf:	0c 04                	or     al,0x4
  40e1c1:	04 46                	add    al,0x46
  40e1c3:	0b 02                	or     eax,DWORD PTR [edx]
  40e1c5:	4e                   	dec    esi
  40e1c6:	0a c5                	or     al,ch
  40e1c8:	0c 04                	or     al,0x4
  40e1ca:	04 45                	add    al,0x45
  40e1cc:	0b 02                	or     eax,DWORD PTR [edx]
  40e1ce:	41                   	inc    ecx
  40e1cf:	0a 0c 04             	or     cl,BYTE PTR [esp+eax*1]
  40e1d2:	04 c5                	add    al,0xc5
  40e1d4:	43                   	inc    ebx
  40e1d5:	0b 4e c5             	or     ecx,DWORD PTR [esi-0x3b]
  40e1d8:	0c 04                	or     al,0x4
  40e1da:	04 00                	add    al,0x0
  40e1dc:	1c 00                	sbb    al,0x0
  40e1de:	00 00                	add    BYTE PTR [eax],al
  40e1e0:	70 01                	jo     40e1e3 <.debug_frame+0x73>
  40e1e2:	00 00                	add    BYTE PTR [eax],al
  40e1e4:	d0 16                	rcl    BYTE PTR [esi],1
  40e1e6:	40                   	inc    eax
  40e1e7:	00 0c 00             	add    BYTE PTR [eax+eax*1],cl
  40e1ea:	00 00                	add    BYTE PTR [eax],al
  40e1ec:	41                   	inc    ecx
  40e1ed:	0e                   	push   cs
  40e1ee:	08 85 02 42 0d 05    	or     BYTE PTR [ebp+0x50d4202],al
  40e1f4:	44                   	inc    esp
  40e1f5:	c5 0c 04             	lds    ecx,FWORD PTR [esp+eax*1]
  40e1f8:	04 00                	add    al,0x0
	...

0040e1fc <.debug_frame>:
  40e1fc:	10 00                	adc    BYTE PTR [eax],al
  40e1fe:	00 00                	add    BYTE PTR [eax],al
  40e200:	ff                   	(bad)  
  40e201:	ff                   	(bad)  
  40e202:	ff                   	(bad)  
  40e203:	ff 01                	inc    DWORD PTR [ecx]
  40e205:	00 01                	add    BYTE PTR [ecx],al
  40e207:	7c 08                	jl     40e211 <.debug_frame+0x15>
  40e209:	0c 04                	or     al,0x4
  40e20b:	04 88                	add    al,0x88
  40e20d:	01 00                	add    DWORD PTR [eax],eax
  40e20f:	00 1c 00             	add    BYTE PTR [eax+eax*1],bl
  40e212:	00 00                	add    BYTE PTR [eax],al
  40e214:	fc                   	cld    
  40e215:	01 00                	add    DWORD PTR [eax],eax
  40e217:	00 10                	add    BYTE PTR [eax],dl
  40e219:	17                   	pop    ss
  40e21a:	40                   	inc    eax
  40e21b:	00 05 00 00 00 41    	add    BYTE PTR ds:0x41000000,al
  40e221:	0e                   	push   cs
  40e222:	08 85 02 42 0d 05    	or     BYTE PTR [ebp+0x50d4202],al
  40e228:	41                   	inc    ecx
  40e229:	c5 0c 04             	lds    ecx,FWORD PTR [esp+eax*1]
  40e22c:	04 00                	add    al,0x0
	...

0040e230 <.debug_frame>:
  40e230:	10 00                	adc    BYTE PTR [eax],al
  40e232:	00 00                	add    BYTE PTR [eax],al
  40e234:	ff                   	(bad)  
  40e235:	ff                   	(bad)  
  40e236:	ff                   	(bad)  
  40e237:	ff 01                	inc    DWORD PTR [ecx]
  40e239:	00 01                	add    BYTE PTR [ecx],al
  40e23b:	7c 08                	jl     40e245 <.debug_frame+0x15>
  40e23d:	0c 04                	or     al,0x4
  40e23f:	04 88                	add    al,0x88
  40e241:	01 00                	add    DWORD PTR [eax],eax
  40e243:	00 1c 00             	add    BYTE PTR [eax+eax*1],bl
  40e246:	00 00                	add    BYTE PTR [eax],al
  40e248:	30 02                	xor    BYTE PTR [edx],al
  40e24a:	00 00                	add    BYTE PTR [eax],al
  40e24c:	20 17                	and    BYTE PTR [edi],dl
  40e24e:	40                   	inc    eax
  40e24f:	00 0c 00             	add    BYTE PTR [eax+eax*1],cl
  40e252:	00 00                	add    BYTE PTR [eax],al
  40e254:	41                   	inc    ecx
  40e255:	0e                   	push   cs
  40e256:	08 85 02 47 0d 05    	or     BYTE PTR [ebp+0x50d4702],al
  40e25c:	41                   	inc    ecx
  40e25d:	c5 0c 04             	lds    ecx,FWORD PTR [esp+eax*1]
  40e260:	04 00                	add    al,0x0
	...

0040e264 <.debug_frame>:
  40e264:	10 00                	adc    BYTE PTR [eax],al
  40e266:	00 00                	add    BYTE PTR [eax],al
  40e268:	ff                   	(bad)  
  40e269:	ff                   	(bad)  
  40e26a:	ff                   	(bad)  
  40e26b:	ff 01                	inc    DWORD PTR [ecx]
  40e26d:	00 01                	add    BYTE PTR [ecx],al
  40e26f:	7c 08                	jl     40e279 <.debug_frame+0x15>
  40e271:	0c 04                	or     al,0x4
  40e273:	04 88                	add    al,0x88
  40e275:	01 00                	add    DWORD PTR [eax],eax
  40e277:	00 20                	add    BYTE PTR [eax],ah
  40e279:	00 00                	add    BYTE PTR [eax],al
  40e27b:	00 64 02 00          	add    BYTE PTR [edx+eax*1+0x0],ah
  40e27f:	00 40 17             	add    BYTE PTR [eax+0x17],al
  40e282:	40                   	inc    eax
  40e283:	00 33                	add    BYTE PTR [ebx],dh
  40e285:	00 00                	add    BYTE PTR [eax],al
  40e287:	00 41 0e             	add    BYTE PTR [ecx+0xe],al
  40e28a:	08 85 02 42 0d 05    	or     BYTE PTR [ebp+0x50d4202],al
  40e290:	44                   	inc    esp
  40e291:	83 03 67             	add    DWORD PTR [ebx],0x67
  40e294:	c5 0c 04             	lds    ecx,FWORD PTR [esp+eax*1]
  40e297:	04 c3                	add    al,0xc3
  40e299:	00 00                	add    BYTE PTR [eax],al
	...

Disassembly of section .debug_str:

0040f000 <.debug_str>:
  40f000:	73 74                	jae    40f076 <.debug_str+0x4c>
  40f002:	72 61                	jb     40f065 <.debug_str+0x3b>
  40f004:	63 65 00             	arpl   WORD PTR [ebp+0x0],sp
  40f007:	5f                   	pop    edi
  40f008:	6f                   	outs   dx,DWORD PTR ds:[esi]
  40f009:	6e                   	outs   dx,BYTE PTR ds:[esi]
  40f00a:	5f                   	pop    edi
  40f00b:	65                   	gs
  40f00c:	78 69                	js     40f077 <.debug_str+0x4d>
  40f00e:	74 5f                	je     40f06f <.debug_str+0x45>
  40f010:	61                   	popa   
  40f011:	72 67                	jb     40f07a <.debug_str+0x50>
  40f013:	73 00                	jae    40f015 <.debug_str>

0040f015 <.debug_str>:
  40f015:	5f                   	pop    edi
  40f016:	5f                   	pop    edi
  40f017:	64                   	fs
  40f018:	79 6e                	jns    40f088 <.debug_str+0x5e>
  40f01a:	61                   	popa   
  40f01b:	6d                   	ins    DWORD PTR es:[edi],dx
  40f01c:	69 63 61 6c 6c 79 5f 	imul   esp,DWORD PTR [ebx+0x61],0x5f796c6c
  40f023:	6c                   	ins    BYTE PTR es:[edi],dx
  40f024:	6f                   	outs   dx,DWORD PTR ds:[esi]
  40f025:	61                   	popa   
  40f026:	64 65 64 00 5f 6f    	fs gs add BYTE PTR fs:gs:[edi+0x6f],bl

0040f02a <.debug_str>:
  40f02a:	5f                   	pop    edi
  40f02b:	6f                   	outs   dx,DWORD PTR ds:[esi]
  40f02c:	6e                   	outs   dx,BYTE PTR ds:[esi]
  40f02d:	5f                   	pop    edi
  40f02e:	65                   	gs
  40f02f:	78 69                	js     40f09a <.debug_str+0x70>
  40f031:	74 5f                	je     40f092 <.debug_str+0x68>
  40f033:	61                   	popa   
  40f034:	72 67                	jb     40f09d <.debug_str+0x73>
  40f036:	73 00                	jae    40f038 <.debug_str+0xe>

Disassembly of section .debug_loc:

00410000 <.debug_loc>:
  410000:	00 00                	add    BYTE PTR [eax],al
  410002:	00 00                	add    BYTE PTR [eax],al
  410004:	01 00                	add    DWORD PTR [eax],eax
  410006:	00 00                	add    BYTE PTR [eax],al
  410008:	02 00                	add    al,BYTE PTR [eax]
  41000a:	74 04                	je     410010 <.debug_loc+0x10>
  41000c:	01 00                	add    DWORD PTR [eax],eax
  41000e:	00 00                	add    BYTE PTR [eax],al
  410010:	03 00                	add    eax,DWORD PTR [eax]
  410012:	00 00                	add    BYTE PTR [eax],al
  410014:	02 00                	add    al,BYTE PTR [eax]
  410016:	74 08                	je     410020 <.debug_loc+0x20>
  410018:	03 00                	add    eax,DWORD PTR [eax]
  41001a:	00 00                	add    BYTE PTR [eax],al
  41001c:	86 00                	xchg   BYTE PTR [eax],al
  41001e:	00 00                	add    BYTE PTR [eax],al
  410020:	02 00                	add    al,BYTE PTR [eax]
  410022:	75 08                	jne    41002c <.debug_loc+0x2c>
  410024:	86 00                	xchg   BYTE PTR [eax],al
  410026:	00 00                	add    BYTE PTR [eax],al
  410028:	87 00                	xchg   DWORD PTR [eax],eax
  41002a:	00 00                	add    BYTE PTR [eax],al
  41002c:	02 00                	add    al,BYTE PTR [eax]
  41002e:	74 04                	je     410034 <.debug_loc+0x34>
	...

00410038 <.debug_loc>:
  410038:	00 00                	add    BYTE PTR [eax],al
  41003a:	00 00                	add    BYTE PTR [eax],al
  41003c:	01 00                	add    DWORD PTR [eax],eax
  41003e:	00 00                	add    BYTE PTR [eax],al
  410040:	02 00                	add    al,BYTE PTR [eax]
  410042:	74 04                	je     410048 <.debug_loc+0x10>
  410044:	01 00                	add    DWORD PTR [eax],eax
  410046:	00 00                	add    BYTE PTR [eax],al
  410048:	03 00                	add    eax,DWORD PTR [eax]
  41004a:	00 00                	add    BYTE PTR [eax],al
  41004c:	02 00                	add    al,BYTE PTR [eax]
  41004e:	74 08                	je     410058 <.debug_loc+0x20>
  410050:	03 00                	add    eax,DWORD PTR [eax]
  410052:	00 00                	add    BYTE PTR [eax],al
  410054:	22 00                	and    al,BYTE PTR [eax]
  410056:	00 00                	add    BYTE PTR [eax],al
  410058:	02 00                	add    al,BYTE PTR [eax]
  41005a:	75 08                	jne    410064 <.debug_loc>
	...

00410064 <.debug_loc>:
  410064:	00 00                	add    BYTE PTR [eax],al
  410066:	00 00                	add    BYTE PTR [eax],al
  410068:	01 00                	add    DWORD PTR [eax],eax
  41006a:	00 00                	add    BYTE PTR [eax],al
  41006c:	02 00                	add    al,BYTE PTR [eax]
  41006e:	74 04                	je     410074 <.debug_loc+0x10>
  410070:	01 00                	add    DWORD PTR [eax],eax
  410072:	00 00                	add    BYTE PTR [eax],al
  410074:	03 00                	add    eax,DWORD PTR [eax]
  410076:	00 00                	add    BYTE PTR [eax],al
  410078:	02 00                	add    al,BYTE PTR [eax]
  41007a:	74 08                	je     410084 <.debug_loc+0x20>
  41007c:	03 00                	add    eax,DWORD PTR [eax]
  41007e:	00 00                	add    BYTE PTR [eax],al
  410080:	04 00                	add    al,0x0
  410082:	00 00                	add    BYTE PTR [eax],al
  410084:	02 00                	add    al,BYTE PTR [eax]
  410086:	75 08                	jne    410090 <.debug_loc+0x2c>
  410088:	04 00                	add    al,0x0
  41008a:	00 00                	add    BYTE PTR [eax],al
  41008c:	05 00 00 00 02       	add    eax,0x2000000
  410091:	00 74 04 00          	add    BYTE PTR [esp+eax*1+0x0],dh
  410095:	00 00                	add    BYTE PTR [eax],al
  410097:	00 00                	add    BYTE PTR [eax],al
  410099:	00 00                	add    BYTE PTR [eax],al
	...

0041009c <.debug_loc>:
  41009c:	00 00                	add    BYTE PTR [eax],al
  41009e:	00 00                	add    BYTE PTR [eax],al
  4100a0:	01 00                	add    DWORD PTR [eax],eax
  4100a2:	00 00                	add    BYTE PTR [eax],al
  4100a4:	02 00                	add    al,BYTE PTR [eax]
  4100a6:	74 04                	je     4100ac <.debug_loc+0x10>
  4100a8:	01 00                	add    DWORD PTR [eax],eax
  4100aa:	00 00                	add    BYTE PTR [eax],al
  4100ac:	03 00                	add    eax,DWORD PTR [eax]
  4100ae:	00 00                	add    BYTE PTR [eax],al
  4100b0:	02 00                	add    al,BYTE PTR [eax]
  4100b2:	74 08                	je     4100bc <.debug_loc+0x20>
  4100b4:	03 00                	add    eax,DWORD PTR [eax]
  4100b6:	00 00                	add    BYTE PTR [eax],al
  4100b8:	04 00                	add    al,0x0
  4100ba:	00 00                	add    BYTE PTR [eax],al
  4100bc:	02 00                	add    al,BYTE PTR [eax]
  4100be:	75 08                	jne    4100c8 <.debug_loc+0x2c>
  4100c0:	04 00                	add    al,0x0
  4100c2:	00 00                	add    BYTE PTR [eax],al
  4100c4:	05 00 00 00 02       	add    eax,0x2000000
  4100c9:	00 74 04 00          	add    BYTE PTR [esp+eax*1+0x0],dh
  4100cd:	00 00                	add    BYTE PTR [eax],al
  4100cf:	00 00                	add    BYTE PTR [eax],al
  4100d1:	00 00                	add    BYTE PTR [eax],al
	...

004100d4 <.debug_loc>:
  4100d4:	00 00                	add    BYTE PTR [eax],al
  4100d6:	00 00                	add    BYTE PTR [eax],al
  4100d8:	01 00                	add    DWORD PTR [eax],eax
  4100da:	00 00                	add    BYTE PTR [eax],al
  4100dc:	02 00                	add    al,BYTE PTR [eax]
  4100de:	74 04                	je     4100e4 <.debug_loc+0x10>
  4100e0:	01 00                	add    DWORD PTR [eax],eax
  4100e2:	00 00                	add    BYTE PTR [eax],al
  4100e4:	03 00                	add    eax,DWORD PTR [eax]
  4100e6:	00 00                	add    BYTE PTR [eax],al
  4100e8:	02 00                	add    al,BYTE PTR [eax]
  4100ea:	74 08                	je     4100f4 <.debug_loc+0x20>
  4100ec:	03 00                	add    eax,DWORD PTR [eax]
  4100ee:	00 00                	add    BYTE PTR [eax],al
  4100f0:	04 00                	add    al,0x0
  4100f2:	00 00                	add    BYTE PTR [eax],al
  4100f4:	02 00                	add    al,BYTE PTR [eax]
  4100f6:	75 08                	jne    410100 <.debug_loc+0x2c>
  4100f8:	04 00                	add    al,0x0
  4100fa:	00 00                	add    BYTE PTR [eax],al
  4100fc:	05 00 00 00 02       	add    eax,0x2000000
  410101:	00 74 04 00          	add    BYTE PTR [esp+eax*1+0x0],dh
  410105:	00 00                	add    BYTE PTR [eax],al
  410107:	00 00                	add    BYTE PTR [eax],al
  410109:	00 00                	add    BYTE PTR [eax],al
	...

0041010c <.debug_loc>:
  41010c:	00 00                	add    BYTE PTR [eax],al
  41010e:	00 00                	add    BYTE PTR [eax],al
  410110:	01 00                	add    DWORD PTR [eax],eax
  410112:	00 00                	add    BYTE PTR [eax],al
  410114:	02 00                	add    al,BYTE PTR [eax]
  410116:	74 04                	je     41011c <.debug_loc+0x10>
  410118:	01 00                	add    DWORD PTR [eax],eax
  41011a:	00 00                	add    BYTE PTR [eax],al
  41011c:	03 00                	add    eax,DWORD PTR [eax]
  41011e:	00 00                	add    BYTE PTR [eax],al
  410120:	02 00                	add    al,BYTE PTR [eax]
  410122:	74 08                	je     41012c <.debug_loc+0x20>
  410124:	03 00                	add    eax,DWORD PTR [eax]
  410126:	00 00                	add    BYTE PTR [eax],al
  410128:	04 00                	add    al,0x0
  41012a:	00 00                	add    BYTE PTR [eax],al
  41012c:	02 00                	add    al,BYTE PTR [eax]
  41012e:	75 08                	jne    410138 <.debug_loc+0x2c>
  410130:	04 00                	add    al,0x0
  410132:	00 00                	add    BYTE PTR [eax],al
  410134:	05 00 00 00 02       	add    eax,0x2000000
  410139:	00 74 04 00          	add    BYTE PTR [esp+eax*1+0x0],dh
  41013d:	00 00                	add    BYTE PTR [eax],al
  41013f:	00 00                	add    BYTE PTR [eax],al
  410141:	00 00                	add    BYTE PTR [eax],al
	...

00410144 <.debug_loc>:
  410144:	00 00                	add    BYTE PTR [eax],al
  410146:	00 00                	add    BYTE PTR [eax],al
  410148:	01 00                	add    DWORD PTR [eax],eax
  41014a:	00 00                	add    BYTE PTR [eax],al
  41014c:	02 00                	add    al,BYTE PTR [eax]
  41014e:	74 04                	je     410154 <.debug_loc+0x10>
  410150:	01 00                	add    DWORD PTR [eax],eax
  410152:	00 00                	add    BYTE PTR [eax],al
  410154:	03 00                	add    eax,DWORD PTR [eax]
  410156:	00 00                	add    BYTE PTR [eax],al
  410158:	02 00                	add    al,BYTE PTR [eax]
  41015a:	74 08                	je     410164 <.debug_loc+0x20>
  41015c:	03 00                	add    eax,DWORD PTR [eax]
  41015e:	00 00                	add    BYTE PTR [eax],al
  410160:	e0 01                	loopne 410163 <.debug_loc+0x1f>
  410162:	00 00                	add    BYTE PTR [eax],al
  410164:	02 00                	add    al,BYTE PTR [eax]
  410166:	75 08                	jne    410170 <.debug_loc+0x2c>
  410168:	e0 01                	loopne 41016b <.debug_loc+0x27>
  41016a:	00 00                	add    BYTE PTR [eax],al
  41016c:	e3 01                	jecxz  41016f <.debug_loc+0x2b>
  41016e:	00 00                	add    BYTE PTR [eax],al
  410170:	02 00                	add    al,BYTE PTR [eax]
  410172:	74 04                	je     410178 <.debug_loc+0x34>
  410174:	e3 01                	jecxz  410177 <.debug_loc+0x33>
  410176:	00 00                	add    BYTE PTR [eax],al
  410178:	0c 03                	or     al,0x3
  41017a:	00 00                	add    BYTE PTR [eax],al
  41017c:	02 00                	add    al,BYTE PTR [eax]
  41017e:	75 08                	jne    410188 <.debug_loc+0x44>
	...
  41018c:	c3                   	ret    
  41018d:	00 00                	add    BYTE PTR [eax],al
  41018f:	00 02                	add    BYTE PTR [edx],al
  410191:	00 91 04 c3 00 00    	add    BYTE PTR [ecx+0xc304],dl
  410197:	00 7d 01             	add    BYTE PTR [ebp+0x1],bh
  41019a:	00 00                	add    BYTE PTR [eax],al
  41019c:	01 00                	add    DWORD PTR [eax],eax
  41019e:	53                   	push   ebx
  41019f:	e3 01                	jecxz  4101a2 <.debug_loc+0x5e>
  4101a1:	00 00                	add    BYTE PTR [eax],al
  4101a3:	90                   	nop
  4101a4:	02 00                	add    al,BYTE PTR [eax]
  4101a6:	00 01                	add    BYTE PTR [ecx],al
  4101a8:	00 50 90             	add    BYTE PTR [eax-0x70],dl
  4101ab:	02 00                	add    al,BYTE PTR [eax]
  4101ad:	00 0c 03             	add    BYTE PTR [ebx+eax*1],cl
  4101b0:	00 00                	add    BYTE PTR [eax],al
  4101b2:	01 00                	add    DWORD PTR [eax],eax
  4101b4:	53                   	push   ebx
	...
  4101bd:	1a 00                	sbb    al,BYTE PTR [eax]
  4101bf:	00 00                	add    BYTE PTR [eax],al
  4101c1:	df 00                	fild   WORD PTR [eax]
  4101c3:	00 00                	add    BYTE PTR [eax],al
  4101c5:	01 00                	add    DWORD PTR [eax],eax
  4101c7:	50                   	push   eax
  4101c8:	e3 01                	jecxz  4101cb <.debug_loc+0x87>
  4101ca:	00 00                	add    BYTE PTR [eax],al
  4101cc:	90                   	nop
  4101cd:	02 00                	add    al,BYTE PTR [eax]
  4101cf:	00 01                	add    BYTE PTR [ecx],al
  4101d1:	00 50 fd             	add    BYTE PTR [eax-0x3],dl
  4101d4:	02 00                	add    al,BYTE PTR [eax]
  4101d6:	00 02                	add    BYTE PTR [edx],al
  4101d8:	03 00                	add    eax,DWORD PTR [eax]
  4101da:	00 01                	add    BYTE PTR [ecx],al
  4101dc:	00 50 00             	add    BYTE PTR [eax+0x0],dl
  4101df:	00 00                	add    BYTE PTR [eax],al
  4101e1:	00 00                	add    BYTE PTR [eax],al
  4101e3:	00 00                	add    BYTE PTR [eax],al
  4101e5:	00 22                	add    BYTE PTR [edx],ah
  4101e7:	00 00                	add    BYTE PTR [eax],al
  4101e9:	00 c3                	add    bl,al
  4101eb:	00 00                	add    BYTE PTR [eax],al
  4101ed:	00 02                	add    BYTE PTR [edx],al
  4101ef:	00 30                	add    BYTE PTR [eax],dh
  4101f1:	9f                   	lahf   
  4101f2:	e3 01                	jecxz  4101f5 <.debug_loc+0xb1>
  4101f4:	00 00                	add    BYTE PTR [eax],al
  4101f6:	90                   	nop
  4101f7:	02 00                	add    al,BYTE PTR [eax]
  4101f9:	00 02                	add    BYTE PTR [edx],al
  4101fb:	00 31                	add    BYTE PTR [ecx],dh
  4101fd:	9f                   	lahf   
	...

00410206 <.debug_loc>:
  410206:	00 00                	add    BYTE PTR [eax],al
  410208:	00 00                	add    BYTE PTR [eax],al
  41020a:	01 00                	add    DWORD PTR [eax],eax
  41020c:	00 00                	add    BYTE PTR [eax],al
  41020e:	02 00                	add    al,BYTE PTR [eax]
  410210:	74 04                	je     410216 <.debug_loc+0x10>
  410212:	01 00                	add    DWORD PTR [eax],eax
  410214:	00 00                	add    BYTE PTR [eax],al
  410216:	03 00                	add    eax,DWORD PTR [eax]
  410218:	00 00                	add    BYTE PTR [eax],al
  41021a:	02 00                	add    al,BYTE PTR [eax]
  41021c:	74 08                	je     410226 <.debug_loc+0x20>
  41021e:	03 00                	add    eax,DWORD PTR [eax]
  410220:	00 00                	add    BYTE PTR [eax],al
  410222:	29 00                	sub    DWORD PTR [eax],eax
  410224:	00 00                	add    BYTE PTR [eax],al
  410226:	02 00                	add    al,BYTE PTR [eax]
  410228:	75 08                	jne    410232 <.debug_loc+0x2c>
  41022a:	29 00                	sub    DWORD PTR [eax],eax
  41022c:	00 00                	add    BYTE PTR [eax],al
  41022e:	2a 00                	sub    al,BYTE PTR [eax]
  410230:	00 00                	add    BYTE PTR [eax],al
  410232:	02 00                	add    al,BYTE PTR [eax]
  410234:	74 04                	je     41023a <.debug_loc+0x34>
	...
  41023e:	30 00                	xor    BYTE PTR [eax],al
  410240:	00 00                	add    BYTE PTR [eax],al
  410242:	31 00                	xor    DWORD PTR [eax],eax
  410244:	00 00                	add    BYTE PTR [eax],al
  410246:	02 00                	add    al,BYTE PTR [eax]
  410248:	74 04                	je     41024e <.debug_loc+0x48>
  41024a:	31 00                	xor    DWORD PTR [eax],eax
  41024c:	00 00                	add    BYTE PTR [eax],al
  41024e:	33 00                	xor    eax,DWORD PTR [eax]
  410250:	00 00                	add    BYTE PTR [eax],al
  410252:	02 00                	add    al,BYTE PTR [eax]
  410254:	74 08                	je     41025e <.debug_loc+0x58>
  410256:	33 00                	xor    eax,DWORD PTR [eax]
  410258:	00 00                	add    BYTE PTR [eax],al
  41025a:	5a                   	pop    edx
  41025b:	00 00                	add    BYTE PTR [eax],al
  41025d:	00 02                	add    BYTE PTR [edx],al
  41025f:	00 75 08             	add    BYTE PTR [ebp+0x8],dh
  410262:	5a                   	pop    edx
  410263:	00 00                	add    BYTE PTR [eax],al
  410265:	00 60 00             	add    BYTE PTR [eax+0x0],ah
  410268:	00 00                	add    BYTE PTR [eax],al
  41026a:	02 00                	add    al,BYTE PTR [eax]
  41026c:	74 04                	je     410272 <.debug_loc+0x6c>
  41026e:	60                   	pusha  
  41026f:	00 00                	add    BYTE PTR [eax],al
  410271:	00 ae 00 00 00 02    	add    BYTE PTR [esi+0x2000000],ch
  410277:	00 75 08             	add    BYTE PTR [ebp+0x8],dh
  41027a:	ae                   	scas   al,BYTE PTR es:[edi]
  41027b:	00 00                	add    BYTE PTR [eax],al
  41027d:	00 b3 00 00 00 02    	add    BYTE PTR [ebx+0x2000000],dh
  410283:	00 74 04 b3          	add    BYTE PTR [esp+eax*1-0x4d],dh
  410287:	00 00                	add    BYTE PTR [eax],al
  410289:	00 f4                	add    ah,dh
  41028b:	00 00                	add    BYTE PTR [eax],al
  41028d:	00 02                	add    BYTE PTR [edx],al
  41028f:	00 75 08             	add    BYTE PTR [ebp+0x8],dh
  410292:	f4                   	hlt    
  410293:	00 00                	add    BYTE PTR [eax],al
  410295:	00 f7                	add    bh,dh
  410297:	00 00                	add    BYTE PTR [eax],al
  410299:	00 02                	add    BYTE PTR [edx],al
  41029b:	00 74 04 f7          	add    BYTE PTR [esp+eax*1-0x9],dh
  41029f:	00 00                	add    BYTE PTR [eax],al
  4102a1:	00 05 01 00 00 02    	add    BYTE PTR ds:0x2000001,al
  4102a7:	00 75 08             	add    BYTE PTR [ebp+0x8],dh
  4102aa:	05 01 00 00 0a       	add    eax,0xa000001
  4102af:	01 00                	add    DWORD PTR [eax],eax
  4102b1:	00 02                	add    BYTE PTR [edx],al
  4102b3:	00 74 04 00          	add    BYTE PTR [esp+eax*1+0x0],dh
  4102b7:	00 00                	add    BYTE PTR [eax],al
  4102b9:	00 00                	add    BYTE PTR [eax],al
  4102bb:	00 00                	add    BYTE PTR [eax],al
  4102bd:	00 30                	add    BYTE PTR [eax],dh
  4102bf:	00 00                	add    BYTE PTR [eax],al
  4102c1:	00 59 00             	add    BYTE PTR [ecx+0x0],bl
  4102c4:	00 00                	add    BYTE PTR [eax],al
  4102c6:	02 00                	add    al,BYTE PTR [eax]
  4102c8:	31 9f 59 00 00 00    	xor    DWORD PTR [edi+0x59],ebx
  4102ce:	5d                   	pop    ebp
  4102cf:	00 00                	add    BYTE PTR [eax],al
  4102d1:	00 01                	add    BYTE PTR [ecx],al
  4102d3:	00 50 5d             	add    BYTE PTR [eax+0x5d],dl
  4102d6:	00 00                	add    BYTE PTR [eax],al
  4102d8:	00 77 00             	add    BYTE PTR [edi+0x0],dh
  4102db:	00 00                	add    BYTE PTR [eax],al
  4102dd:	02 00                	add    al,BYTE PTR [eax]
  4102df:	31 9f 77 00 00 00    	xor    DWORD PTR [edi+0x77],ebx
  4102e5:	8b 00                	mov    eax,DWORD PTR [eax]
  4102e7:	00 00                	add    BYTE PTR [eax],al
  4102e9:	01 00                	add    DWORD PTR [eax],eax
  4102eb:	50                   	push   eax
  4102ec:	9b                   	fwait
  4102ed:	00 00                	add    BYTE PTR [eax],al
  4102ef:	00 f3                	add    bl,dh
  4102f1:	00 00                	add    BYTE PTR [eax],al
  4102f3:	00 02                	add    BYTE PTR [edx],al
  4102f5:	00 31                	add    BYTE PTR [ecx],dh
  4102f7:	9f                   	lahf   
  4102f8:	f3 00 00             	repz add BYTE PTR [eax],al
  4102fb:	00 f7                	add    bh,dh
  4102fd:	00 00                	add    BYTE PTR [eax],al
  4102ff:	00 01                	add    BYTE PTR [ecx],al
  410301:	00 50 f7             	add    BYTE PTR [eax-0x9],dl
  410304:	00 00                	add    BYTE PTR [eax],al
  410306:	00 0a                	add    BYTE PTR [edx],cl
  410308:	01 00                	add    DWORD PTR [eax],eax
  41030a:	00 02                	add    BYTE PTR [edx],al
  41030c:	00 31                	add    BYTE PTR [ecx],dh
  41030e:	9f                   	lahf   
	...
  410317:	10 01                	adc    BYTE PTR [ecx],al
  410319:	00 00                	add    BYTE PTR [eax],al
  41031b:	11 01                	adc    DWORD PTR [ecx],eax
  41031d:	00 00                	add    BYTE PTR [eax],al
  41031f:	02 00                	add    al,BYTE PTR [eax]
  410321:	74 04                	je     410327 <.debug_loc+0x121>
  410323:	11 01                	adc    DWORD PTR [ecx],eax
  410325:	00 00                	add    BYTE PTR [eax],al
  410327:	13 01                	adc    eax,DWORD PTR [ecx]
  410329:	00 00                	add    BYTE PTR [eax],al
  41032b:	02 00                	add    al,BYTE PTR [eax]
  41032d:	74 08                	je     410337 <.debug_loc+0x131>
  41032f:	13 01                	adc    eax,DWORD PTR [ecx]
  410331:	00 00                	add    BYTE PTR [eax],al
  410333:	17                   	pop    ss
  410334:	01 00                	add    DWORD PTR [eax],eax
  410336:	00 02                	add    BYTE PTR [edx],al
  410338:	00 75 08             	add    BYTE PTR [ebp+0x8],dh
  41033b:	17                   	pop    ss
  41033c:	01 00                	add    DWORD PTR [eax],eax
  41033e:	00 1c 01             	add    BYTE PTR [ecx+eax*1],bl
  410341:	00 00                	add    BYTE PTR [eax],al
  410343:	02 00                	add    al,BYTE PTR [eax]
  410345:	74 04                	je     41034b <.debug_loc+0x145>
	...

0041034f <.debug_loc>:
  41034f:	00 00                	add    BYTE PTR [eax],al
  410351:	00 00                	add    BYTE PTR [eax],al
  410353:	01 00                	add    DWORD PTR [eax],eax
  410355:	00 00                	add    BYTE PTR [eax],al
  410357:	02 00                	add    al,BYTE PTR [eax]
  410359:	74 04                	je     41035f <.debug_loc+0x10>
  41035b:	01 00                	add    DWORD PTR [eax],eax
  41035d:	00 00                	add    BYTE PTR [eax],al
  41035f:	03 00                	add    eax,DWORD PTR [eax]
  410361:	00 00                	add    BYTE PTR [eax],al
  410363:	02 00                	add    al,BYTE PTR [eax]
  410365:	74 08                	je     41036f <.debug_loc+0x20>
  410367:	03 00                	add    eax,DWORD PTR [eax]
  410369:	00 00                	add    BYTE PTR [eax],al
  41036b:	04 00                	add    al,0x0
  41036d:	00 00                	add    BYTE PTR [eax],al
  41036f:	02 00                	add    al,BYTE PTR [eax]
  410371:	75 08                	jne    41037b <.debug_loc+0x2c>
  410373:	04 00                	add    al,0x0
  410375:	00 00                	add    BYTE PTR [eax],al
  410377:	05 00 00 00 02       	add    eax,0x2000000
  41037c:	00 74 04 00          	add    BYTE PTR [esp+eax*1+0x0],dh
  410380:	00 00                	add    BYTE PTR [eax],al
  410382:	00 00                	add    BYTE PTR [eax],al
  410384:	00 00                	add    BYTE PTR [eax],al
	...

00410387 <.debug_loc>:
  410387:	00 00                	add    BYTE PTR [eax],al
  410389:	00 00                	add    BYTE PTR [eax],al
  41038b:	01 00                	add    DWORD PTR [eax],eax
  41038d:	00 00                	add    BYTE PTR [eax],al
  41038f:	02 00                	add    al,BYTE PTR [eax]
  410391:	74 04                	je     410397 <.debug_loc+0x10>
  410393:	01 00                	add    DWORD PTR [eax],eax
  410395:	00 00                	add    BYTE PTR [eax],al
  410397:	08 00                	or     BYTE PTR [eax],al
  410399:	00 00                	add    BYTE PTR [eax],al
  41039b:	02 00                	add    al,BYTE PTR [eax]
  41039d:	74 08                	je     4103a7 <.debug_loc+0x20>
  41039f:	08 00                	or     BYTE PTR [eax],al
  4103a1:	00 00                	add    BYTE PTR [eax],al
  4103a3:	09 00                	or     DWORD PTR [eax],eax
  4103a5:	00 00                	add    BYTE PTR [eax],al
  4103a7:	02 00                	add    al,BYTE PTR [eax]
  4103a9:	75 08                	jne    4103b3 <.debug_loc+0x2c>
  4103ab:	09 00                	or     DWORD PTR [eax],eax
  4103ad:	00 00                	add    BYTE PTR [eax],al
  4103af:	0c 00                	or     al,0x0
  4103b1:	00 00                	add    BYTE PTR [eax],al
  4103b3:	02 00                	add    al,BYTE PTR [eax]
  4103b5:	74 04                	je     4103bb <.debug_loc+0x34>
	...

004103bf <.debug_loc>:
  4103bf:	00 00                	add    BYTE PTR [eax],al
  4103c1:	00 00                	add    BYTE PTR [eax],al
  4103c3:	01 00                	add    DWORD PTR [eax],eax
  4103c5:	00 00                	add    BYTE PTR [eax],al
  4103c7:	02 00                	add    al,BYTE PTR [eax]
  4103c9:	74 04                	je     4103cf <.debug_loc+0x10>
  4103cb:	01 00                	add    DWORD PTR [eax],eax
  4103cd:	00 00                	add    BYTE PTR [eax],al
  4103cf:	03 00                	add    eax,DWORD PTR [eax]
  4103d1:	00 00                	add    BYTE PTR [eax],al
  4103d3:	02 00                	add    al,BYTE PTR [eax]
  4103d5:	74 08                	je     4103df <.debug_loc+0x20>
  4103d7:	03 00                	add    eax,DWORD PTR [eax]
  4103d9:	00 00                	add    BYTE PTR [eax],al
  4103db:	2e 00 00             	add    BYTE PTR cs:[eax],al
  4103de:	00 02                	add    BYTE PTR [edx],al
  4103e0:	00 75 08             	add    BYTE PTR [ebp+0x8],dh
  4103e3:	2e 00 00             	add    BYTE PTR cs:[eax],al
  4103e6:	00 33                	add    BYTE PTR [ebx],dh
  4103e8:	00 00                	add    BYTE PTR [eax],al
  4103ea:	00 02                	add    BYTE PTR [edx],al
  4103ec:	00 74 04 00          	add    BYTE PTR [esp+eax*1+0x0],dh
  4103f0:	00 00                	add    BYTE PTR [eax],al
  4103f2:	00 00                	add    BYTE PTR [eax],al
  4103f4:	00 00                	add    BYTE PTR [eax],al
	...

Disassembly of section .debug_ranges:

00411000 <.debug_ranges>:
  411000:	0e                   	push   cs
  411001:	00 00                	add    BYTE PTR [eax],al
  411003:	00 d5                	add    ch,dl
  411005:	01 00                	add    DWORD PTR [eax],eax
  411007:	00 e3                	add    bl,ah
  411009:	01 00                	add    DWORD PTR [eax],eax
  41100b:	00 0c 03             	add    BYTE PTR [ebx+eax*1],cl
	...
